
XIMU.elf:     file format elf32-littlearm

Sections:
Idx Name          Size      VMA       LMA       File off  Algn
  0 .isr_vector   0000010c  08000000  08000000  00010000  2**0
                  CONTENTS, ALLOC, LOAD, READONLY, DATA
  1 .text         0000b5a8  08000110  08000110  00010110  2**3
                  CONTENTS, ALLOC, LOAD, READONLY, CODE
  2 .rodata       00001060  0800b6b8  0800b6b8  0001b6b8  2**3
                  CONTENTS, ALLOC, LOAD, READONLY, DATA
  3 .ARM.extab    00000000  0800c718  0800c718  00020388  2**0
                  CONTENTS
  4 .ARM          00000000  0800c718  0800c718  00020388  2**0
                  CONTENTS
  5 .preinit_array 00000000  0800c718  0800c718  00020388  2**0
                  CONTENTS, ALLOC, LOAD, DATA
  6 .init_array   00000004  0800c718  0800c718  0001c718  2**2
                  CONTENTS, ALLOC, LOAD, DATA
  7 .fini_array   00000004  0800c71c  0800c71c  0001c71c  2**2
                  CONTENTS, ALLOC, LOAD, DATA
  8 .data         00000388  20000000  0800c720  00020000  2**2
                  CONTENTS, ALLOC, LOAD, DATA
  9 .bss          000018a8  20000388  0800caa8  00020388  2**3
                  ALLOC
 10 ._user_heap_stack 00000600  20001c30  0800caa8  00021c30  2**0
                  ALLOC
 11 .ARM.attributes 00000029  00000000  00000000  00020388  2**0
                  CONTENTS, READONLY
 12 .debug_info   00032be0  00000000  00000000  000203b1  2**0
                  CONTENTS, READONLY, DEBUGGING
 13 .debug_abbrev 00006982  00000000  00000000  00052f91  2**0
                  CONTENTS, READONLY, DEBUGGING
 14 .debug_loc    0001a11c  00000000  00000000  00059913  2**0
                  CONTENTS, READONLY, DEBUGGING
 15 .debug_aranges 000014e8  00000000  00000000  00073a30  2**3
                  CONTENTS, READONLY, DEBUGGING
 16 .debug_ranges 00004180  00000000  00000000  00074f18  2**3
                  CONTENTS, READONLY, DEBUGGING
 17 .debug_macro  0001beb4  00000000  00000000  00079098  2**0
                  CONTENTS, READONLY, DEBUGGING
 18 .debug_line   0001a8b9  00000000  00000000  00094f4c  2**0
                  CONTENTS, READONLY, DEBUGGING
 19 .debug_str    00082e7d  00000000  00000000  000af805  2**0
                  CONTENTS, READONLY, DEBUGGING
 20 .comment      000000f0  00000000  00000000  00132682  2**0
                  CONTENTS, READONLY
 21 .debug_frame  000058a4  00000000  00000000  00132774  2**2
                  CONTENTS, READONLY, DEBUGGING

Disassembly of section .text:

08000110 <__do_global_dtors_aux>:
 8000110:	b510      	push	{r4, lr}
 8000112:	4c05      	ldr	r4, [pc, #20]	; (8000128 <__do_global_dtors_aux+0x18>)
 8000114:	7823      	ldrb	r3, [r4, #0]
 8000116:	b933      	cbnz	r3, 8000126 <__do_global_dtors_aux+0x16>
 8000118:	4b04      	ldr	r3, [pc, #16]	; (800012c <__do_global_dtors_aux+0x1c>)
 800011a:	b113      	cbz	r3, 8000122 <__do_global_dtors_aux+0x12>
 800011c:	4804      	ldr	r0, [pc, #16]	; (8000130 <__do_global_dtors_aux+0x20>)
 800011e:	f3af 8000 	nop.w
 8000122:	2301      	movs	r3, #1
 8000124:	7023      	strb	r3, [r4, #0]
 8000126:	bd10      	pop	{r4, pc}
 8000128:	20000388 	.word	0x20000388
 800012c:	00000000 	.word	0x00000000
 8000130:	0800b6a0 	.word	0x0800b6a0

08000134 <frame_dummy>:
 8000134:	b508      	push	{r3, lr}
 8000136:	4b03      	ldr	r3, [pc, #12]	; (8000144 <frame_dummy+0x10>)
 8000138:	b11b      	cbz	r3, 8000142 <frame_dummy+0xe>
 800013a:	4903      	ldr	r1, [pc, #12]	; (8000148 <frame_dummy+0x14>)
 800013c:	4803      	ldr	r0, [pc, #12]	; (800014c <frame_dummy+0x18>)
 800013e:	f3af 8000 	nop.w
 8000142:	bd08      	pop	{r3, pc}
 8000144:	00000000 	.word	0x00000000
 8000148:	2000038c 	.word	0x2000038c
 800014c:	0800b6a0 	.word	0x0800b6a0

08000150 <strlen>:
 8000150:	4603      	mov	r3, r0
 8000152:	f813 2b01 	ldrb.w	r2, [r3], #1
 8000156:	2a00      	cmp	r2, #0
 8000158:	d1fb      	bne.n	8000152 <strlen+0x2>
 800015a:	1a18      	subs	r0, r3, r0
 800015c:	3801      	subs	r0, #1
 800015e:	4770      	bx	lr

08000160 <__aeabi_drsub>:
 8000160:	f081 4100 	eor.w	r1, r1, #2147483648	; 0x80000000
 8000164:	e002      	b.n	800016c <__adddf3>
 8000166:	bf00      	nop

08000168 <__aeabi_dsub>:
 8000168:	f083 4300 	eor.w	r3, r3, #2147483648	; 0x80000000

0800016c <__adddf3>:
 800016c:	b530      	push	{r4, r5, lr}
 800016e:	ea4f 0441 	mov.w	r4, r1, lsl #1
 8000172:	ea4f 0543 	mov.w	r5, r3, lsl #1
 8000176:	ea94 0f05 	teq	r4, r5
 800017a:	bf08      	it	eq
 800017c:	ea90 0f02 	teqeq	r0, r2
 8000180:	bf1f      	itttt	ne
 8000182:	ea54 0c00 	orrsne.w	ip, r4, r0
 8000186:	ea55 0c02 	orrsne.w	ip, r5, r2
 800018a:	ea7f 5c64 	mvnsne.w	ip, r4, asr #21
 800018e:	ea7f 5c65 	mvnsne.w	ip, r5, asr #21
 8000192:	f000 80e2 	beq.w	800035a <__adddf3+0x1ee>
 8000196:	ea4f 5454 	mov.w	r4, r4, lsr #21
 800019a:	ebd4 5555 	rsbs	r5, r4, r5, lsr #21
 800019e:	bfb8      	it	lt
 80001a0:	426d      	neglt	r5, r5
 80001a2:	dd0c      	ble.n	80001be <__adddf3+0x52>
 80001a4:	442c      	add	r4, r5
 80001a6:	ea80 0202 	eor.w	r2, r0, r2
 80001aa:	ea81 0303 	eor.w	r3, r1, r3
 80001ae:	ea82 0000 	eor.w	r0, r2, r0
 80001b2:	ea83 0101 	eor.w	r1, r3, r1
 80001b6:	ea80 0202 	eor.w	r2, r0, r2
 80001ba:	ea81 0303 	eor.w	r3, r1, r3
 80001be:	2d36      	cmp	r5, #54	; 0x36
 80001c0:	bf88      	it	hi
 80001c2:	bd30      	pophi	{r4, r5, pc}
 80001c4:	f011 4f00 	tst.w	r1, #2147483648	; 0x80000000
 80001c8:	ea4f 3101 	mov.w	r1, r1, lsl #12
 80001cc:	f44f 1c80 	mov.w	ip, #1048576	; 0x100000
 80001d0:	ea4c 3111 	orr.w	r1, ip, r1, lsr #12
 80001d4:	d002      	beq.n	80001dc <__adddf3+0x70>
 80001d6:	4240      	negs	r0, r0
 80001d8:	eb61 0141 	sbc.w	r1, r1, r1, lsl #1
 80001dc:	f013 4f00 	tst.w	r3, #2147483648	; 0x80000000
 80001e0:	ea4f 3303 	mov.w	r3, r3, lsl #12
 80001e4:	ea4c 3313 	orr.w	r3, ip, r3, lsr #12
 80001e8:	d002      	beq.n	80001f0 <__adddf3+0x84>
 80001ea:	4252      	negs	r2, r2
 80001ec:	eb63 0343 	sbc.w	r3, r3, r3, lsl #1
 80001f0:	ea94 0f05 	teq	r4, r5
 80001f4:	f000 80a7 	beq.w	8000346 <__adddf3+0x1da>
 80001f8:	f1a4 0401 	sub.w	r4, r4, #1
 80001fc:	f1d5 0e20 	rsbs	lr, r5, #32
 8000200:	db0d      	blt.n	800021e <__adddf3+0xb2>
 8000202:	fa02 fc0e 	lsl.w	ip, r2, lr
 8000206:	fa22 f205 	lsr.w	r2, r2, r5
 800020a:	1880      	adds	r0, r0, r2
 800020c:	f141 0100 	adc.w	r1, r1, #0
 8000210:	fa03 f20e 	lsl.w	r2, r3, lr
 8000214:	1880      	adds	r0, r0, r2
 8000216:	fa43 f305 	asr.w	r3, r3, r5
 800021a:	4159      	adcs	r1, r3
 800021c:	e00e      	b.n	800023c <__adddf3+0xd0>
 800021e:	f1a5 0520 	sub.w	r5, r5, #32
 8000222:	f10e 0e20 	add.w	lr, lr, #32
 8000226:	2a01      	cmp	r2, #1
 8000228:	fa03 fc0e 	lsl.w	ip, r3, lr
 800022c:	bf28      	it	cs
 800022e:	f04c 0c02 	orrcs.w	ip, ip, #2
 8000232:	fa43 f305 	asr.w	r3, r3, r5
 8000236:	18c0      	adds	r0, r0, r3
 8000238:	eb51 71e3 	adcs.w	r1, r1, r3, asr #31
 800023c:	f001 4500 	and.w	r5, r1, #2147483648	; 0x80000000
 8000240:	d507      	bpl.n	8000252 <__adddf3+0xe6>
 8000242:	f04f 0e00 	mov.w	lr, #0
 8000246:	f1dc 0c00 	rsbs	ip, ip, #0
 800024a:	eb7e 0000 	sbcs.w	r0, lr, r0
 800024e:	eb6e 0101 	sbc.w	r1, lr, r1
 8000252:	f5b1 1f80 	cmp.w	r1, #1048576	; 0x100000
 8000256:	d31b      	bcc.n	8000290 <__adddf3+0x124>
 8000258:	f5b1 1f00 	cmp.w	r1, #2097152	; 0x200000
 800025c:	d30c      	bcc.n	8000278 <__adddf3+0x10c>
 800025e:	0849      	lsrs	r1, r1, #1
 8000260:	ea5f 0030 	movs.w	r0, r0, rrx
 8000264:	ea4f 0c3c 	mov.w	ip, ip, rrx
 8000268:	f104 0401 	add.w	r4, r4, #1
 800026c:	ea4f 5244 	mov.w	r2, r4, lsl #21
 8000270:	f512 0f80 	cmn.w	r2, #4194304	; 0x400000
 8000274:	f080 809a 	bcs.w	80003ac <__adddf3+0x240>
 8000278:	f1bc 4f00 	cmp.w	ip, #2147483648	; 0x80000000
 800027c:	bf08      	it	eq
 800027e:	ea5f 0c50 	movseq.w	ip, r0, lsr #1
 8000282:	f150 0000 	adcs.w	r0, r0, #0
 8000286:	eb41 5104 	adc.w	r1, r1, r4, lsl #20
 800028a:	ea41 0105 	orr.w	r1, r1, r5
 800028e:	bd30      	pop	{r4, r5, pc}
 8000290:	ea5f 0c4c 	movs.w	ip, ip, lsl #1
 8000294:	4140      	adcs	r0, r0
 8000296:	eb41 0101 	adc.w	r1, r1, r1
 800029a:	f411 1f80 	tst.w	r1, #1048576	; 0x100000
 800029e:	f1a4 0401 	sub.w	r4, r4, #1
 80002a2:	d1e9      	bne.n	8000278 <__adddf3+0x10c>
 80002a4:	f091 0f00 	teq	r1, #0
 80002a8:	bf04      	itt	eq
 80002aa:	4601      	moveq	r1, r0
 80002ac:	2000      	moveq	r0, #0
 80002ae:	fab1 f381 	clz	r3, r1
 80002b2:	bf08      	it	eq
 80002b4:	3320      	addeq	r3, #32
 80002b6:	f1a3 030b 	sub.w	r3, r3, #11
 80002ba:	f1b3 0220 	subs.w	r2, r3, #32
 80002be:	da0c      	bge.n	80002da <__adddf3+0x16e>
 80002c0:	320c      	adds	r2, #12
 80002c2:	dd08      	ble.n	80002d6 <__adddf3+0x16a>
 80002c4:	f102 0c14 	add.w	ip, r2, #20
 80002c8:	f1c2 020c 	rsb	r2, r2, #12
 80002cc:	fa01 f00c 	lsl.w	r0, r1, ip
 80002d0:	fa21 f102 	lsr.w	r1, r1, r2
 80002d4:	e00c      	b.n	80002f0 <__adddf3+0x184>
 80002d6:	f102 0214 	add.w	r2, r2, #20
 80002da:	bfd8      	it	le
 80002dc:	f1c2 0c20 	rsble	ip, r2, #32
 80002e0:	fa01 f102 	lsl.w	r1, r1, r2
 80002e4:	fa20 fc0c 	lsr.w	ip, r0, ip
 80002e8:	bfdc      	itt	le
 80002ea:	ea41 010c 	orrle.w	r1, r1, ip
 80002ee:	4090      	lslle	r0, r2
 80002f0:	1ae4      	subs	r4, r4, r3
 80002f2:	bfa2      	ittt	ge
 80002f4:	eb01 5104 	addge.w	r1, r1, r4, lsl #20
 80002f8:	4329      	orrge	r1, r5
 80002fa:	bd30      	popge	{r4, r5, pc}
 80002fc:	ea6f 0404 	mvn.w	r4, r4
 8000300:	3c1f      	subs	r4, #31
 8000302:	da1c      	bge.n	800033e <__adddf3+0x1d2>
 8000304:	340c      	adds	r4, #12
 8000306:	dc0e      	bgt.n	8000326 <__adddf3+0x1ba>
 8000308:	f104 0414 	add.w	r4, r4, #20
 800030c:	f1c4 0220 	rsb	r2, r4, #32
 8000310:	fa20 f004 	lsr.w	r0, r0, r4
 8000314:	fa01 f302 	lsl.w	r3, r1, r2
 8000318:	ea40 0003 	orr.w	r0, r0, r3
 800031c:	fa21 f304 	lsr.w	r3, r1, r4
 8000320:	ea45 0103 	orr.w	r1, r5, r3
 8000324:	bd30      	pop	{r4, r5, pc}
 8000326:	f1c4 040c 	rsb	r4, r4, #12
 800032a:	f1c4 0220 	rsb	r2, r4, #32
 800032e:	fa20 f002 	lsr.w	r0, r0, r2
 8000332:	fa01 f304 	lsl.w	r3, r1, r4
 8000336:	ea40 0003 	orr.w	r0, r0, r3
 800033a:	4629      	mov	r1, r5
 800033c:	bd30      	pop	{r4, r5, pc}
 800033e:	fa21 f004 	lsr.w	r0, r1, r4
 8000342:	4629      	mov	r1, r5
 8000344:	bd30      	pop	{r4, r5, pc}
 8000346:	f094 0f00 	teq	r4, #0
 800034a:	f483 1380 	eor.w	r3, r3, #1048576	; 0x100000
 800034e:	bf06      	itte	eq
 8000350:	f481 1180 	eoreq.w	r1, r1, #1048576	; 0x100000
 8000354:	3401      	addeq	r4, #1
 8000356:	3d01      	subne	r5, #1
 8000358:	e74e      	b.n	80001f8 <__adddf3+0x8c>
 800035a:	ea7f 5c64 	mvns.w	ip, r4, asr #21
 800035e:	bf18      	it	ne
 8000360:	ea7f 5c65 	mvnsne.w	ip, r5, asr #21
 8000364:	d029      	beq.n	80003ba <__adddf3+0x24e>
 8000366:	ea94 0f05 	teq	r4, r5
 800036a:	bf08      	it	eq
 800036c:	ea90 0f02 	teqeq	r0, r2
 8000370:	d005      	beq.n	800037e <__adddf3+0x212>
 8000372:	ea54 0c00 	orrs.w	ip, r4, r0
 8000376:	bf04      	itt	eq
 8000378:	4619      	moveq	r1, r3
 800037a:	4610      	moveq	r0, r2
 800037c:	bd30      	pop	{r4, r5, pc}
 800037e:	ea91 0f03 	teq	r1, r3
 8000382:	bf1e      	ittt	ne
 8000384:	2100      	movne	r1, #0
 8000386:	2000      	movne	r0, #0
 8000388:	bd30      	popne	{r4, r5, pc}
 800038a:	ea5f 5c54 	movs.w	ip, r4, lsr #21
 800038e:	d105      	bne.n	800039c <__adddf3+0x230>
 8000390:	0040      	lsls	r0, r0, #1
 8000392:	4149      	adcs	r1, r1
 8000394:	bf28      	it	cs
 8000396:	f041 4100 	orrcs.w	r1, r1, #2147483648	; 0x80000000
 800039a:	bd30      	pop	{r4, r5, pc}
 800039c:	f514 0480 	adds.w	r4, r4, #4194304	; 0x400000
 80003a0:	bf3c      	itt	cc
 80003a2:	f501 1180 	addcc.w	r1, r1, #1048576	; 0x100000
 80003a6:	bd30      	popcc	{r4, r5, pc}
 80003a8:	f001 4500 	and.w	r5, r1, #2147483648	; 0x80000000
 80003ac:	f045 41fe 	orr.w	r1, r5, #2130706432	; 0x7f000000
 80003b0:	f441 0170 	orr.w	r1, r1, #15728640	; 0xf00000
 80003b4:	f04f 0000 	mov.w	r0, #0
 80003b8:	bd30      	pop	{r4, r5, pc}
 80003ba:	ea7f 5c64 	mvns.w	ip, r4, asr #21
 80003be:	bf1a      	itte	ne
 80003c0:	4619      	movne	r1, r3
 80003c2:	4610      	movne	r0, r2
 80003c4:	ea7f 5c65 	mvnseq.w	ip, r5, asr #21
 80003c8:	bf1c      	itt	ne
 80003ca:	460b      	movne	r3, r1
 80003cc:	4602      	movne	r2, r0
 80003ce:	ea50 3401 	orrs.w	r4, r0, r1, lsl #12
 80003d2:	bf06      	itte	eq
 80003d4:	ea52 3503 	orrseq.w	r5, r2, r3, lsl #12
 80003d8:	ea91 0f03 	teqeq	r1, r3
 80003dc:	f441 2100 	orrne.w	r1, r1, #524288	; 0x80000
 80003e0:	bd30      	pop	{r4, r5, pc}
 80003e2:	bf00      	nop

080003e4 <__aeabi_ui2d>:
 80003e4:	f090 0f00 	teq	r0, #0
 80003e8:	bf04      	itt	eq
 80003ea:	2100      	moveq	r1, #0
 80003ec:	4770      	bxeq	lr
 80003ee:	b530      	push	{r4, r5, lr}
 80003f0:	f44f 6480 	mov.w	r4, #1024	; 0x400
 80003f4:	f104 0432 	add.w	r4, r4, #50	; 0x32
 80003f8:	f04f 0500 	mov.w	r5, #0
 80003fc:	f04f 0100 	mov.w	r1, #0
 8000400:	e750      	b.n	80002a4 <__adddf3+0x138>
 8000402:	bf00      	nop

08000404 <__aeabi_i2d>:
 8000404:	f090 0f00 	teq	r0, #0
 8000408:	bf04      	itt	eq
 800040a:	2100      	moveq	r1, #0
 800040c:	4770      	bxeq	lr
 800040e:	b530      	push	{r4, r5, lr}
 8000410:	f44f 6480 	mov.w	r4, #1024	; 0x400
 8000414:	f104 0432 	add.w	r4, r4, #50	; 0x32
 8000418:	f010 4500 	ands.w	r5, r0, #2147483648	; 0x80000000
 800041c:	bf48      	it	mi
 800041e:	4240      	negmi	r0, r0
 8000420:	f04f 0100 	mov.w	r1, #0
 8000424:	e73e      	b.n	80002a4 <__adddf3+0x138>
 8000426:	bf00      	nop

08000428 <__aeabi_f2d>:
 8000428:	0042      	lsls	r2, r0, #1
 800042a:	ea4f 01e2 	mov.w	r1, r2, asr #3
 800042e:	ea4f 0131 	mov.w	r1, r1, rrx
 8000432:	ea4f 7002 	mov.w	r0, r2, lsl #28
 8000436:	bf1f      	itttt	ne
 8000438:	f012 437f 	andsne.w	r3, r2, #4278190080	; 0xff000000
 800043c:	f093 4f7f 	teqne	r3, #4278190080	; 0xff000000
 8000440:	f081 5160 	eorne.w	r1, r1, #939524096	; 0x38000000
 8000444:	4770      	bxne	lr
 8000446:	f032 427f 	bics.w	r2, r2, #4278190080	; 0xff000000
 800044a:	bf08      	it	eq
 800044c:	4770      	bxeq	lr
 800044e:	f093 4f7f 	teq	r3, #4278190080	; 0xff000000
 8000452:	bf04      	itt	eq
 8000454:	f441 2100 	orreq.w	r1, r1, #524288	; 0x80000
 8000458:	4770      	bxeq	lr
 800045a:	b530      	push	{r4, r5, lr}
 800045c:	f44f 7460 	mov.w	r4, #896	; 0x380
 8000460:	f001 4500 	and.w	r5, r1, #2147483648	; 0x80000000
 8000464:	f021 4100 	bic.w	r1, r1, #2147483648	; 0x80000000
 8000468:	e71c      	b.n	80002a4 <__adddf3+0x138>
 800046a:	bf00      	nop

0800046c <__aeabi_ul2d>:
 800046c:	ea50 0201 	orrs.w	r2, r0, r1
 8000470:	bf08      	it	eq
 8000472:	4770      	bxeq	lr
 8000474:	b530      	push	{r4, r5, lr}
 8000476:	f04f 0500 	mov.w	r5, #0
 800047a:	e00a      	b.n	8000492 <__aeabi_l2d+0x16>

0800047c <__aeabi_l2d>:
 800047c:	ea50 0201 	orrs.w	r2, r0, r1
 8000480:	bf08      	it	eq
 8000482:	4770      	bxeq	lr
 8000484:	b530      	push	{r4, r5, lr}
 8000486:	f011 4500 	ands.w	r5, r1, #2147483648	; 0x80000000
 800048a:	d502      	bpl.n	8000492 <__aeabi_l2d+0x16>
 800048c:	4240      	negs	r0, r0
 800048e:	eb61 0141 	sbc.w	r1, r1, r1, lsl #1
 8000492:	f44f 6480 	mov.w	r4, #1024	; 0x400
 8000496:	f104 0432 	add.w	r4, r4, #50	; 0x32
 800049a:	ea5f 5c91 	movs.w	ip, r1, lsr #22
 800049e:	f43f aed8 	beq.w	8000252 <__adddf3+0xe6>
 80004a2:	f04f 0203 	mov.w	r2, #3
 80004a6:	ea5f 0cdc 	movs.w	ip, ip, lsr #3
 80004aa:	bf18      	it	ne
 80004ac:	3203      	addne	r2, #3
 80004ae:	ea5f 0cdc 	movs.w	ip, ip, lsr #3
 80004b2:	bf18      	it	ne
 80004b4:	3203      	addne	r2, #3
 80004b6:	eb02 02dc 	add.w	r2, r2, ip, lsr #3
 80004ba:	f1c2 0320 	rsb	r3, r2, #32
 80004be:	fa00 fc03 	lsl.w	ip, r0, r3
 80004c2:	fa20 f002 	lsr.w	r0, r0, r2
 80004c6:	fa01 fe03 	lsl.w	lr, r1, r3
 80004ca:	ea40 000e 	orr.w	r0, r0, lr
 80004ce:	fa21 f102 	lsr.w	r1, r1, r2
 80004d2:	4414      	add	r4, r2
 80004d4:	e6bd      	b.n	8000252 <__adddf3+0xe6>
 80004d6:	bf00      	nop

080004d8 <__aeabi_dmul>:
 80004d8:	b570      	push	{r4, r5, r6, lr}
 80004da:	f04f 0cff 	mov.w	ip, #255	; 0xff
 80004de:	f44c 6ce0 	orr.w	ip, ip, #1792	; 0x700
 80004e2:	ea1c 5411 	ands.w	r4, ip, r1, lsr #20
 80004e6:	bf1d      	ittte	ne
 80004e8:	ea1c 5513 	andsne.w	r5, ip, r3, lsr #20
 80004ec:	ea94 0f0c 	teqne	r4, ip
 80004f0:	ea95 0f0c 	teqne	r5, ip
 80004f4:	f000 f8de 	bleq	80006b4 <__aeabi_dmul+0x1dc>
 80004f8:	442c      	add	r4, r5
 80004fa:	ea81 0603 	eor.w	r6, r1, r3
 80004fe:	ea21 514c 	bic.w	r1, r1, ip, lsl #21
 8000502:	ea23 534c 	bic.w	r3, r3, ip, lsl #21
 8000506:	ea50 3501 	orrs.w	r5, r0, r1, lsl #12
 800050a:	bf18      	it	ne
 800050c:	ea52 3503 	orrsne.w	r5, r2, r3, lsl #12
 8000510:	f441 1180 	orr.w	r1, r1, #1048576	; 0x100000
 8000514:	f443 1380 	orr.w	r3, r3, #1048576	; 0x100000
 8000518:	d038      	beq.n	800058c <__aeabi_dmul+0xb4>
 800051a:	fba0 ce02 	umull	ip, lr, r0, r2
 800051e:	f04f 0500 	mov.w	r5, #0
 8000522:	fbe1 e502 	umlal	lr, r5, r1, r2
 8000526:	f006 4200 	and.w	r2, r6, #2147483648	; 0x80000000
 800052a:	fbe0 e503 	umlal	lr, r5, r0, r3
 800052e:	f04f 0600 	mov.w	r6, #0
 8000532:	fbe1 5603 	umlal	r5, r6, r1, r3
 8000536:	f09c 0f00 	teq	ip, #0
 800053a:	bf18      	it	ne
 800053c:	f04e 0e01 	orrne.w	lr, lr, #1
 8000540:	f1a4 04ff 	sub.w	r4, r4, #255	; 0xff
 8000544:	f5b6 7f00 	cmp.w	r6, #512	; 0x200
 8000548:	f564 7440 	sbc.w	r4, r4, #768	; 0x300
 800054c:	d204      	bcs.n	8000558 <__aeabi_dmul+0x80>
 800054e:	ea5f 0e4e 	movs.w	lr, lr, lsl #1
 8000552:	416d      	adcs	r5, r5
 8000554:	eb46 0606 	adc.w	r6, r6, r6
 8000558:	ea42 21c6 	orr.w	r1, r2, r6, lsl #11
 800055c:	ea41 5155 	orr.w	r1, r1, r5, lsr #21
 8000560:	ea4f 20c5 	mov.w	r0, r5, lsl #11
 8000564:	ea40 505e 	orr.w	r0, r0, lr, lsr #21
 8000568:	ea4f 2ece 	mov.w	lr, lr, lsl #11
 800056c:	f1b4 0cfd 	subs.w	ip, r4, #253	; 0xfd
 8000570:	bf88      	it	hi
 8000572:	f5bc 6fe0 	cmphi.w	ip, #1792	; 0x700
 8000576:	d81e      	bhi.n	80005b6 <__aeabi_dmul+0xde>
 8000578:	f1be 4f00 	cmp.w	lr, #2147483648	; 0x80000000
 800057c:	bf08      	it	eq
 800057e:	ea5f 0e50 	movseq.w	lr, r0, lsr #1
 8000582:	f150 0000 	adcs.w	r0, r0, #0
 8000586:	eb41 5104 	adc.w	r1, r1, r4, lsl #20
 800058a:	bd70      	pop	{r4, r5, r6, pc}
 800058c:	f006 4600 	and.w	r6, r6, #2147483648	; 0x80000000
 8000590:	ea46 0101 	orr.w	r1, r6, r1
 8000594:	ea40 0002 	orr.w	r0, r0, r2
 8000598:	ea81 0103 	eor.w	r1, r1, r3
 800059c:	ebb4 045c 	subs.w	r4, r4, ip, lsr #1
 80005a0:	bfc2      	ittt	gt
 80005a2:	ebd4 050c 	rsbsgt	r5, r4, ip
 80005a6:	ea41 5104 	orrgt.w	r1, r1, r4, lsl #20
 80005aa:	bd70      	popgt	{r4, r5, r6, pc}
 80005ac:	f441 1180 	orr.w	r1, r1, #1048576	; 0x100000
 80005b0:	f04f 0e00 	mov.w	lr, #0
 80005b4:	3c01      	subs	r4, #1
 80005b6:	f300 80ab 	bgt.w	8000710 <__aeabi_dmul+0x238>
 80005ba:	f114 0f36 	cmn.w	r4, #54	; 0x36
 80005be:	bfde      	ittt	le
 80005c0:	2000      	movle	r0, #0
 80005c2:	f001 4100 	andle.w	r1, r1, #2147483648	; 0x80000000
 80005c6:	bd70      	pople	{r4, r5, r6, pc}
 80005c8:	f1c4 0400 	rsb	r4, r4, #0
 80005cc:	3c20      	subs	r4, #32
 80005ce:	da35      	bge.n	800063c <__aeabi_dmul+0x164>
 80005d0:	340c      	adds	r4, #12
 80005d2:	dc1b      	bgt.n	800060c <__aeabi_dmul+0x134>
 80005d4:	f104 0414 	add.w	r4, r4, #20
 80005d8:	f1c4 0520 	rsb	r5, r4, #32
 80005dc:	fa00 f305 	lsl.w	r3, r0, r5
 80005e0:	fa20 f004 	lsr.w	r0, r0, r4
 80005e4:	fa01 f205 	lsl.w	r2, r1, r5
 80005e8:	ea40 0002 	orr.w	r0, r0, r2
 80005ec:	f001 4200 	and.w	r2, r1, #2147483648	; 0x80000000
 80005f0:	f021 4100 	bic.w	r1, r1, #2147483648	; 0x80000000
 80005f4:	eb10 70d3 	adds.w	r0, r0, r3, lsr #31
 80005f8:	fa21 f604 	lsr.w	r6, r1, r4
 80005fc:	eb42 0106 	adc.w	r1, r2, r6
 8000600:	ea5e 0e43 	orrs.w	lr, lr, r3, lsl #1
 8000604:	bf08      	it	eq
 8000606:	ea20 70d3 	biceq.w	r0, r0, r3, lsr #31
 800060a:	bd70      	pop	{r4, r5, r6, pc}
 800060c:	f1c4 040c 	rsb	r4, r4, #12
 8000610:	f1c4 0520 	rsb	r5, r4, #32
 8000614:	fa00 f304 	lsl.w	r3, r0, r4
 8000618:	fa20 f005 	lsr.w	r0, r0, r5
 800061c:	fa01 f204 	lsl.w	r2, r1, r4
 8000620:	ea40 0002 	orr.w	r0, r0, r2
 8000624:	f001 4100 	and.w	r1, r1, #2147483648	; 0x80000000
 8000628:	eb10 70d3 	adds.w	r0, r0, r3, lsr #31
 800062c:	f141 0100 	adc.w	r1, r1, #0
 8000630:	ea5e 0e43 	orrs.w	lr, lr, r3, lsl #1
 8000634:	bf08      	it	eq
 8000636:	ea20 70d3 	biceq.w	r0, r0, r3, lsr #31
 800063a:	bd70      	pop	{r4, r5, r6, pc}
 800063c:	f1c4 0520 	rsb	r5, r4, #32
 8000640:	fa00 f205 	lsl.w	r2, r0, r5
 8000644:	ea4e 0e02 	orr.w	lr, lr, r2
 8000648:	fa20 f304 	lsr.w	r3, r0, r4
 800064c:	fa01 f205 	lsl.w	r2, r1, r5
 8000650:	ea43 0302 	orr.w	r3, r3, r2
 8000654:	fa21 f004 	lsr.w	r0, r1, r4
 8000658:	f001 4100 	and.w	r1, r1, #2147483648	; 0x80000000
 800065c:	fa21 f204 	lsr.w	r2, r1, r4
 8000660:	ea20 0002 	bic.w	r0, r0, r2
 8000664:	eb00 70d3 	add.w	r0, r0, r3, lsr #31
 8000668:	ea5e 0e43 	orrs.w	lr, lr, r3, lsl #1
 800066c:	bf08      	it	eq
 800066e:	ea20 70d3 	biceq.w	r0, r0, r3, lsr #31
 8000672:	bd70      	pop	{r4, r5, r6, pc}
 8000674:	f094 0f00 	teq	r4, #0
 8000678:	d10f      	bne.n	800069a <__aeabi_dmul+0x1c2>
 800067a:	f001 4600 	and.w	r6, r1, #2147483648	; 0x80000000
 800067e:	0040      	lsls	r0, r0, #1
 8000680:	eb41 0101 	adc.w	r1, r1, r1
 8000684:	f411 1f80 	tst.w	r1, #1048576	; 0x100000
 8000688:	bf08      	it	eq
 800068a:	3c01      	subeq	r4, #1
 800068c:	d0f7      	beq.n	800067e <__aeabi_dmul+0x1a6>
 800068e:	ea41 0106 	orr.w	r1, r1, r6
 8000692:	f095 0f00 	teq	r5, #0
 8000696:	bf18      	it	ne
 8000698:	4770      	bxne	lr
 800069a:	f003 4600 	and.w	r6, r3, #2147483648	; 0x80000000
 800069e:	0052      	lsls	r2, r2, #1
 80006a0:	eb43 0303 	adc.w	r3, r3, r3
 80006a4:	f413 1f80 	tst.w	r3, #1048576	; 0x100000
 80006a8:	bf08      	it	eq
 80006aa:	3d01      	subeq	r5, #1
 80006ac:	d0f7      	beq.n	800069e <__aeabi_dmul+0x1c6>
 80006ae:	ea43 0306 	orr.w	r3, r3, r6
 80006b2:	4770      	bx	lr
 80006b4:	ea94 0f0c 	teq	r4, ip
 80006b8:	ea0c 5513 	and.w	r5, ip, r3, lsr #20
 80006bc:	bf18      	it	ne
 80006be:	ea95 0f0c 	teqne	r5, ip
 80006c2:	d00c      	beq.n	80006de <__aeabi_dmul+0x206>
 80006c4:	ea50 0641 	orrs.w	r6, r0, r1, lsl #1
 80006c8:	bf18      	it	ne
 80006ca:	ea52 0643 	orrsne.w	r6, r2, r3, lsl #1
 80006ce:	d1d1      	bne.n	8000674 <__aeabi_dmul+0x19c>
 80006d0:	ea81 0103 	eor.w	r1, r1, r3
 80006d4:	f001 4100 	and.w	r1, r1, #2147483648	; 0x80000000
 80006d8:	f04f 0000 	mov.w	r0, #0
 80006dc:	bd70      	pop	{r4, r5, r6, pc}
 80006de:	ea50 0641 	orrs.w	r6, r0, r1, lsl #1
 80006e2:	bf06      	itte	eq
 80006e4:	4610      	moveq	r0, r2
 80006e6:	4619      	moveq	r1, r3
 80006e8:	ea52 0643 	orrsne.w	r6, r2, r3, lsl #1
 80006ec:	d019      	beq.n	8000722 <__aeabi_dmul+0x24a>
 80006ee:	ea94 0f0c 	teq	r4, ip
 80006f2:	d102      	bne.n	80006fa <__aeabi_dmul+0x222>
 80006f4:	ea50 3601 	orrs.w	r6, r0, r1, lsl #12
 80006f8:	d113      	bne.n	8000722 <__aeabi_dmul+0x24a>
 80006fa:	ea95 0f0c 	teq	r5, ip
 80006fe:	d105      	bne.n	800070c <__aeabi_dmul+0x234>
 8000700:	ea52 3603 	orrs.w	r6, r2, r3, lsl #12
 8000704:	bf1c      	itt	ne
 8000706:	4610      	movne	r0, r2
 8000708:	4619      	movne	r1, r3
 800070a:	d10a      	bne.n	8000722 <__aeabi_dmul+0x24a>
 800070c:	ea81 0103 	eor.w	r1, r1, r3
 8000710:	f001 4100 	and.w	r1, r1, #2147483648	; 0x80000000
 8000714:	f041 41fe 	orr.w	r1, r1, #2130706432	; 0x7f000000
 8000718:	f441 0170 	orr.w	r1, r1, #15728640	; 0xf00000
 800071c:	f04f 0000 	mov.w	r0, #0
 8000720:	bd70      	pop	{r4, r5, r6, pc}
 8000722:	f041 41fe 	orr.w	r1, r1, #2130706432	; 0x7f000000
 8000726:	f441 0178 	orr.w	r1, r1, #16252928	; 0xf80000
 800072a:	bd70      	pop	{r4, r5, r6, pc}

0800072c <__aeabi_ddiv>:
 800072c:	b570      	push	{r4, r5, r6, lr}
 800072e:	f04f 0cff 	mov.w	ip, #255	; 0xff
 8000732:	f44c 6ce0 	orr.w	ip, ip, #1792	; 0x700
 8000736:	ea1c 5411 	ands.w	r4, ip, r1, lsr #20
 800073a:	bf1d      	ittte	ne
 800073c:	ea1c 5513 	andsne.w	r5, ip, r3, lsr #20
 8000740:	ea94 0f0c 	teqne	r4, ip
 8000744:	ea95 0f0c 	teqne	r5, ip
 8000748:	f000 f8a7 	bleq	800089a <__aeabi_ddiv+0x16e>
 800074c:	eba4 0405 	sub.w	r4, r4, r5
 8000750:	ea81 0e03 	eor.w	lr, r1, r3
 8000754:	ea52 3503 	orrs.w	r5, r2, r3, lsl #12
 8000758:	ea4f 3101 	mov.w	r1, r1, lsl #12
 800075c:	f000 8088 	beq.w	8000870 <__aeabi_ddiv+0x144>
 8000760:	ea4f 3303 	mov.w	r3, r3, lsl #12
 8000764:	f04f 5580 	mov.w	r5, #268435456	; 0x10000000
 8000768:	ea45 1313 	orr.w	r3, r5, r3, lsr #4
 800076c:	ea43 6312 	orr.w	r3, r3, r2, lsr #24
 8000770:	ea4f 2202 	mov.w	r2, r2, lsl #8
 8000774:	ea45 1511 	orr.w	r5, r5, r1, lsr #4
 8000778:	ea45 6510 	orr.w	r5, r5, r0, lsr #24
 800077c:	ea4f 2600 	mov.w	r6, r0, lsl #8
 8000780:	f00e 4100 	and.w	r1, lr, #2147483648	; 0x80000000
 8000784:	429d      	cmp	r5, r3
 8000786:	bf08      	it	eq
 8000788:	4296      	cmpeq	r6, r2
 800078a:	f144 04fd 	adc.w	r4, r4, #253	; 0xfd
 800078e:	f504 7440 	add.w	r4, r4, #768	; 0x300
 8000792:	d202      	bcs.n	800079a <__aeabi_ddiv+0x6e>
 8000794:	085b      	lsrs	r3, r3, #1
 8000796:	ea4f 0232 	mov.w	r2, r2, rrx
 800079a:	1ab6      	subs	r6, r6, r2
 800079c:	eb65 0503 	sbc.w	r5, r5, r3
 80007a0:	085b      	lsrs	r3, r3, #1
 80007a2:	ea4f 0232 	mov.w	r2, r2, rrx
 80007a6:	f44f 1080 	mov.w	r0, #1048576	; 0x100000
 80007aa:	f44f 2c00 	mov.w	ip, #524288	; 0x80000
 80007ae:	ebb6 0e02 	subs.w	lr, r6, r2
 80007b2:	eb75 0e03 	sbcs.w	lr, r5, r3
 80007b6:	bf22      	ittt	cs
 80007b8:	1ab6      	subcs	r6, r6, r2
 80007ba:	4675      	movcs	r5, lr
 80007bc:	ea40 000c 	orrcs.w	r0, r0, ip
 80007c0:	085b      	lsrs	r3, r3, #1
 80007c2:	ea4f 0232 	mov.w	r2, r2, rrx
 80007c6:	ebb6 0e02 	subs.w	lr, r6, r2
 80007ca:	eb75 0e03 	sbcs.w	lr, r5, r3
 80007ce:	bf22      	ittt	cs
 80007d0:	1ab6      	subcs	r6, r6, r2
 80007d2:	4675      	movcs	r5, lr
 80007d4:	ea40 005c 	orrcs.w	r0, r0, ip, lsr #1
 80007d8:	085b      	lsrs	r3, r3, #1
 80007da:	ea4f 0232 	mov.w	r2, r2, rrx
 80007de:	ebb6 0e02 	subs.w	lr, r6, r2
 80007e2:	eb75 0e03 	sbcs.w	lr, r5, r3
 80007e6:	bf22      	ittt	cs
 80007e8:	1ab6      	subcs	r6, r6, r2
 80007ea:	4675      	movcs	r5, lr
 80007ec:	ea40 009c 	orrcs.w	r0, r0, ip, lsr #2
 80007f0:	085b      	lsrs	r3, r3, #1
 80007f2:	ea4f 0232 	mov.w	r2, r2, rrx
 80007f6:	ebb6 0e02 	subs.w	lr, r6, r2
 80007fa:	eb75 0e03 	sbcs.w	lr, r5, r3
 80007fe:	bf22      	ittt	cs
 8000800:	1ab6      	subcs	r6, r6, r2
 8000802:	4675      	movcs	r5, lr
 8000804:	ea40 00dc 	orrcs.w	r0, r0, ip, lsr #3
 8000808:	ea55 0e06 	orrs.w	lr, r5, r6
 800080c:	d018      	beq.n	8000840 <__aeabi_ddiv+0x114>
 800080e:	ea4f 1505 	mov.w	r5, r5, lsl #4
 8000812:	ea45 7516 	orr.w	r5, r5, r6, lsr #28
 8000816:	ea4f 1606 	mov.w	r6, r6, lsl #4
 800081a:	ea4f 03c3 	mov.w	r3, r3, lsl #3
 800081e:	ea43 7352 	orr.w	r3, r3, r2, lsr #29
 8000822:	ea4f 02c2 	mov.w	r2, r2, lsl #3
 8000826:	ea5f 1c1c 	movs.w	ip, ip, lsr #4
 800082a:	d1c0      	bne.n	80007ae <__aeabi_ddiv+0x82>
 800082c:	f411 1f80 	tst.w	r1, #1048576	; 0x100000
 8000830:	d10b      	bne.n	800084a <__aeabi_ddiv+0x11e>
 8000832:	ea41 0100 	orr.w	r1, r1, r0
 8000836:	f04f 0000 	mov.w	r0, #0
 800083a:	f04f 4c00 	mov.w	ip, #2147483648	; 0x80000000
 800083e:	e7b6      	b.n	80007ae <__aeabi_ddiv+0x82>
 8000840:	f411 1f80 	tst.w	r1, #1048576	; 0x100000
 8000844:	bf04      	itt	eq
 8000846:	4301      	orreq	r1, r0
 8000848:	2000      	moveq	r0, #0
 800084a:	f1b4 0cfd 	subs.w	ip, r4, #253	; 0xfd
 800084e:	bf88      	it	hi
 8000850:	f5bc 6fe0 	cmphi.w	ip, #1792	; 0x700
 8000854:	f63f aeaf 	bhi.w	80005b6 <__aeabi_dmul+0xde>
 8000858:	ebb5 0c03 	subs.w	ip, r5, r3
 800085c:	bf04      	itt	eq
 800085e:	ebb6 0c02 	subseq.w	ip, r6, r2
 8000862:	ea5f 0c50 	movseq.w	ip, r0, lsr #1
 8000866:	f150 0000 	adcs.w	r0, r0, #0
 800086a:	eb41 5104 	adc.w	r1, r1, r4, lsl #20
 800086e:	bd70      	pop	{r4, r5, r6, pc}
 8000870:	f00e 4e00 	and.w	lr, lr, #2147483648	; 0x80000000
 8000874:	ea4e 3111 	orr.w	r1, lr, r1, lsr #12
 8000878:	eb14 045c 	adds.w	r4, r4, ip, lsr #1
 800087c:	bfc2      	ittt	gt
 800087e:	ebd4 050c 	rsbsgt	r5, r4, ip
 8000882:	ea41 5104 	orrgt.w	r1, r1, r4, lsl #20
 8000886:	bd70      	popgt	{r4, r5, r6, pc}
 8000888:	f441 1180 	orr.w	r1, r1, #1048576	; 0x100000
 800088c:	f04f 0e00 	mov.w	lr, #0
 8000890:	3c01      	subs	r4, #1
 8000892:	e690      	b.n	80005b6 <__aeabi_dmul+0xde>
 8000894:	ea45 0e06 	orr.w	lr, r5, r6
 8000898:	e68d      	b.n	80005b6 <__aeabi_dmul+0xde>
 800089a:	ea0c 5513 	and.w	r5, ip, r3, lsr #20
 800089e:	ea94 0f0c 	teq	r4, ip
 80008a2:	bf08      	it	eq
 80008a4:	ea95 0f0c 	teqeq	r5, ip
 80008a8:	f43f af3b 	beq.w	8000722 <__aeabi_dmul+0x24a>
 80008ac:	ea94 0f0c 	teq	r4, ip
 80008b0:	d10a      	bne.n	80008c8 <__aeabi_ddiv+0x19c>
 80008b2:	ea50 3401 	orrs.w	r4, r0, r1, lsl #12
 80008b6:	f47f af34 	bne.w	8000722 <__aeabi_dmul+0x24a>
 80008ba:	ea95 0f0c 	teq	r5, ip
 80008be:	f47f af25 	bne.w	800070c <__aeabi_dmul+0x234>
 80008c2:	4610      	mov	r0, r2
 80008c4:	4619      	mov	r1, r3
 80008c6:	e72c      	b.n	8000722 <__aeabi_dmul+0x24a>
 80008c8:	ea95 0f0c 	teq	r5, ip
 80008cc:	d106      	bne.n	80008dc <__aeabi_ddiv+0x1b0>
 80008ce:	ea52 3503 	orrs.w	r5, r2, r3, lsl #12
 80008d2:	f43f aefd 	beq.w	80006d0 <__aeabi_dmul+0x1f8>
 80008d6:	4610      	mov	r0, r2
 80008d8:	4619      	mov	r1, r3
 80008da:	e722      	b.n	8000722 <__aeabi_dmul+0x24a>
 80008dc:	ea50 0641 	orrs.w	r6, r0, r1, lsl #1
 80008e0:	bf18      	it	ne
 80008e2:	ea52 0643 	orrsne.w	r6, r2, r3, lsl #1
 80008e6:	f47f aec5 	bne.w	8000674 <__aeabi_dmul+0x19c>
 80008ea:	ea50 0441 	orrs.w	r4, r0, r1, lsl #1
 80008ee:	f47f af0d 	bne.w	800070c <__aeabi_dmul+0x234>
 80008f2:	ea52 0543 	orrs.w	r5, r2, r3, lsl #1
 80008f6:	f47f aeeb 	bne.w	80006d0 <__aeabi_dmul+0x1f8>
 80008fa:	e712      	b.n	8000722 <__aeabi_dmul+0x24a>

080008fc <__gedf2>:
 80008fc:	f04f 3cff 	mov.w	ip, #4294967295
 8000900:	e006      	b.n	8000910 <__cmpdf2+0x4>
 8000902:	bf00      	nop

08000904 <__ledf2>:
 8000904:	f04f 0c01 	mov.w	ip, #1
 8000908:	e002      	b.n	8000910 <__cmpdf2+0x4>
 800090a:	bf00      	nop

0800090c <__cmpdf2>:
 800090c:	f04f 0c01 	mov.w	ip, #1
 8000910:	f84d cd04 	str.w	ip, [sp, #-4]!
 8000914:	ea4f 0c41 	mov.w	ip, r1, lsl #1
 8000918:	ea7f 5c6c 	mvns.w	ip, ip, asr #21
 800091c:	ea4f 0c43 	mov.w	ip, r3, lsl #1
 8000920:	bf18      	it	ne
 8000922:	ea7f 5c6c 	mvnsne.w	ip, ip, asr #21
 8000926:	d01b      	beq.n	8000960 <__cmpdf2+0x54>
 8000928:	b001      	add	sp, #4
 800092a:	ea50 0c41 	orrs.w	ip, r0, r1, lsl #1
 800092e:	bf0c      	ite	eq
 8000930:	ea52 0c43 	orrseq.w	ip, r2, r3, lsl #1
 8000934:	ea91 0f03 	teqne	r1, r3
 8000938:	bf02      	ittt	eq
 800093a:	ea90 0f02 	teqeq	r0, r2
 800093e:	2000      	moveq	r0, #0
 8000940:	4770      	bxeq	lr
 8000942:	f110 0f00 	cmn.w	r0, #0
 8000946:	ea91 0f03 	teq	r1, r3
 800094a:	bf58      	it	pl
 800094c:	4299      	cmppl	r1, r3
 800094e:	bf08      	it	eq
 8000950:	4290      	cmpeq	r0, r2
 8000952:	bf2c      	ite	cs
 8000954:	17d8      	asrcs	r0, r3, #31
 8000956:	ea6f 70e3 	mvncc.w	r0, r3, asr #31
 800095a:	f040 0001 	orr.w	r0, r0, #1
 800095e:	4770      	bx	lr
 8000960:	ea4f 0c41 	mov.w	ip, r1, lsl #1
 8000964:	ea7f 5c6c 	mvns.w	ip, ip, asr #21
 8000968:	d102      	bne.n	8000970 <__cmpdf2+0x64>
 800096a:	ea50 3c01 	orrs.w	ip, r0, r1, lsl #12
 800096e:	d107      	bne.n	8000980 <__cmpdf2+0x74>
 8000970:	ea4f 0c43 	mov.w	ip, r3, lsl #1
 8000974:	ea7f 5c6c 	mvns.w	ip, ip, asr #21
 8000978:	d1d6      	bne.n	8000928 <__cmpdf2+0x1c>
 800097a:	ea52 3c03 	orrs.w	ip, r2, r3, lsl #12
 800097e:	d0d3      	beq.n	8000928 <__cmpdf2+0x1c>
 8000980:	f85d 0b04 	ldr.w	r0, [sp], #4
 8000984:	4770      	bx	lr
 8000986:	bf00      	nop

08000988 <__aeabi_cdrcmple>:
 8000988:	4684      	mov	ip, r0
 800098a:	4610      	mov	r0, r2
 800098c:	4662      	mov	r2, ip
 800098e:	468c      	mov	ip, r1
 8000990:	4619      	mov	r1, r3
 8000992:	4663      	mov	r3, ip
 8000994:	e000      	b.n	8000998 <__aeabi_cdcmpeq>
 8000996:	bf00      	nop

08000998 <__aeabi_cdcmpeq>:
 8000998:	b501      	push	{r0, lr}
 800099a:	f7ff ffb7 	bl	800090c <__cmpdf2>
 800099e:	2800      	cmp	r0, #0
 80009a0:	bf48      	it	mi
 80009a2:	f110 0f00 	cmnmi.w	r0, #0
 80009a6:	bd01      	pop	{r0, pc}

080009a8 <__aeabi_dcmpeq>:
 80009a8:	f84d ed08 	str.w	lr, [sp, #-8]!
 80009ac:	f7ff fff4 	bl	8000998 <__aeabi_cdcmpeq>
 80009b0:	bf0c      	ite	eq
 80009b2:	2001      	moveq	r0, #1
 80009b4:	2000      	movne	r0, #0
 80009b6:	f85d fb08 	ldr.w	pc, [sp], #8
 80009ba:	bf00      	nop

080009bc <__aeabi_dcmplt>:
 80009bc:	f84d ed08 	str.w	lr, [sp, #-8]!
 80009c0:	f7ff ffea 	bl	8000998 <__aeabi_cdcmpeq>
 80009c4:	bf34      	ite	cc
 80009c6:	2001      	movcc	r0, #1
 80009c8:	2000      	movcs	r0, #0
 80009ca:	f85d fb08 	ldr.w	pc, [sp], #8
 80009ce:	bf00      	nop

080009d0 <__aeabi_dcmple>:
 80009d0:	f84d ed08 	str.w	lr, [sp, #-8]!
 80009d4:	f7ff ffe0 	bl	8000998 <__aeabi_cdcmpeq>
 80009d8:	bf94      	ite	ls
 80009da:	2001      	movls	r0, #1
 80009dc:	2000      	movhi	r0, #0
 80009de:	f85d fb08 	ldr.w	pc, [sp], #8
 80009e2:	bf00      	nop

080009e4 <__aeabi_dcmpge>:
 80009e4:	f84d ed08 	str.w	lr, [sp, #-8]!
 80009e8:	f7ff ffce 	bl	8000988 <__aeabi_cdrcmple>
 80009ec:	bf94      	ite	ls
 80009ee:	2001      	movls	r0, #1
 80009f0:	2000      	movhi	r0, #0
 80009f2:	f85d fb08 	ldr.w	pc, [sp], #8
 80009f6:	bf00      	nop

080009f8 <__aeabi_dcmpgt>:
 80009f8:	f84d ed08 	str.w	lr, [sp, #-8]!
 80009fc:	f7ff ffc4 	bl	8000988 <__aeabi_cdrcmple>
 8000a00:	bf34      	ite	cc
 8000a02:	2001      	movcc	r0, #1
 8000a04:	2000      	movcs	r0, #0
 8000a06:	f85d fb08 	ldr.w	pc, [sp], #8
 8000a0a:	bf00      	nop

08000a0c <__aeabi_dcmpun>:
 8000a0c:	ea4f 0c41 	mov.w	ip, r1, lsl #1
 8000a10:	ea7f 5c6c 	mvns.w	ip, ip, asr #21
 8000a14:	d102      	bne.n	8000a1c <__aeabi_dcmpun+0x10>
 8000a16:	ea50 3c01 	orrs.w	ip, r0, r1, lsl #12
 8000a1a:	d10a      	bne.n	8000a32 <__aeabi_dcmpun+0x26>
 8000a1c:	ea4f 0c43 	mov.w	ip, r3, lsl #1
 8000a20:	ea7f 5c6c 	mvns.w	ip, ip, asr #21
 8000a24:	d102      	bne.n	8000a2c <__aeabi_dcmpun+0x20>
 8000a26:	ea52 3c03 	orrs.w	ip, r2, r3, lsl #12
 8000a2a:	d102      	bne.n	8000a32 <__aeabi_dcmpun+0x26>
 8000a2c:	f04f 0000 	mov.w	r0, #0
 8000a30:	4770      	bx	lr
 8000a32:	f04f 0001 	mov.w	r0, #1
 8000a36:	4770      	bx	lr

08000a38 <__aeabi_d2iz>:
 8000a38:	ea4f 0241 	mov.w	r2, r1, lsl #1
 8000a3c:	f512 1200 	adds.w	r2, r2, #2097152	; 0x200000
 8000a40:	d215      	bcs.n	8000a6e <__aeabi_d2iz+0x36>
 8000a42:	d511      	bpl.n	8000a68 <__aeabi_d2iz+0x30>
 8000a44:	f46f 7378 	mvn.w	r3, #992	; 0x3e0
 8000a48:	ebb3 5262 	subs.w	r2, r3, r2, asr #21
 8000a4c:	d912      	bls.n	8000a74 <__aeabi_d2iz+0x3c>
 8000a4e:	ea4f 23c1 	mov.w	r3, r1, lsl #11
 8000a52:	f043 4300 	orr.w	r3, r3, #2147483648	; 0x80000000
 8000a56:	ea43 5350 	orr.w	r3, r3, r0, lsr #21
 8000a5a:	f011 4f00 	tst.w	r1, #2147483648	; 0x80000000
 8000a5e:	fa23 f002 	lsr.w	r0, r3, r2
 8000a62:	bf18      	it	ne
 8000a64:	4240      	negne	r0, r0
 8000a66:	4770      	bx	lr
 8000a68:	f04f 0000 	mov.w	r0, #0
 8000a6c:	4770      	bx	lr
 8000a6e:	ea50 3001 	orrs.w	r0, r0, r1, lsl #12
 8000a72:	d105      	bne.n	8000a80 <__aeabi_d2iz+0x48>
 8000a74:	f011 4000 	ands.w	r0, r1, #2147483648	; 0x80000000
 8000a78:	bf08      	it	eq
 8000a7a:	f06f 4000 	mvneq.w	r0, #2147483648	; 0x80000000
 8000a7e:	4770      	bx	lr
 8000a80:	f04f 0000 	mov.w	r0, #0
 8000a84:	4770      	bx	lr
 8000a86:	bf00      	nop

08000a88 <__aeabi_d2uiz>:
 8000a88:	004a      	lsls	r2, r1, #1
 8000a8a:	d211      	bcs.n	8000ab0 <__aeabi_d2uiz+0x28>
 8000a8c:	f512 1200 	adds.w	r2, r2, #2097152	; 0x200000
 8000a90:	d211      	bcs.n	8000ab6 <__aeabi_d2uiz+0x2e>
 8000a92:	d50d      	bpl.n	8000ab0 <__aeabi_d2uiz+0x28>
 8000a94:	f46f 7378 	mvn.w	r3, #992	; 0x3e0
 8000a98:	ebb3 5262 	subs.w	r2, r3, r2, asr #21
 8000a9c:	d40e      	bmi.n	8000abc <__aeabi_d2uiz+0x34>
 8000a9e:	ea4f 23c1 	mov.w	r3, r1, lsl #11
 8000aa2:	f043 4300 	orr.w	r3, r3, #2147483648	; 0x80000000
 8000aa6:	ea43 5350 	orr.w	r3, r3, r0, lsr #21
 8000aaa:	fa23 f002 	lsr.w	r0, r3, r2
 8000aae:	4770      	bx	lr
 8000ab0:	f04f 0000 	mov.w	r0, #0
 8000ab4:	4770      	bx	lr
 8000ab6:	ea50 3001 	orrs.w	r0, r0, r1, lsl #12
 8000aba:	d102      	bne.n	8000ac2 <__aeabi_d2uiz+0x3a>
 8000abc:	f04f 30ff 	mov.w	r0, #4294967295
 8000ac0:	4770      	bx	lr
 8000ac2:	f04f 0000 	mov.w	r0, #0
 8000ac6:	4770      	bx	lr

08000ac8 <__aeabi_d2f>:
 8000ac8:	ea4f 0241 	mov.w	r2, r1, lsl #1
 8000acc:	f1b2 43e0 	subs.w	r3, r2, #1879048192	; 0x70000000
 8000ad0:	bf24      	itt	cs
 8000ad2:	f5b3 1c00 	subscs.w	ip, r3, #2097152	; 0x200000
 8000ad6:	f1dc 5cfe 	rsbscs	ip, ip, #532676608	; 0x1fc00000
 8000ada:	d90d      	bls.n	8000af8 <__aeabi_d2f+0x30>
 8000adc:	f001 4c00 	and.w	ip, r1, #2147483648	; 0x80000000
 8000ae0:	ea4f 02c0 	mov.w	r2, r0, lsl #3
 8000ae4:	ea4c 7050 	orr.w	r0, ip, r0, lsr #29
 8000ae8:	f1b2 4f00 	cmp.w	r2, #2147483648	; 0x80000000
 8000aec:	eb40 0083 	adc.w	r0, r0, r3, lsl #2
 8000af0:	bf08      	it	eq
 8000af2:	f020 0001 	biceq.w	r0, r0, #1
 8000af6:	4770      	bx	lr
 8000af8:	f011 4f80 	tst.w	r1, #1073741824	; 0x40000000
 8000afc:	d121      	bne.n	8000b42 <__aeabi_d2f+0x7a>
 8000afe:	f113 7238 	adds.w	r2, r3, #48234496	; 0x2e00000
 8000b02:	bfbc      	itt	lt
 8000b04:	f001 4000 	andlt.w	r0, r1, #2147483648	; 0x80000000
 8000b08:	4770      	bxlt	lr
 8000b0a:	f441 1180 	orr.w	r1, r1, #1048576	; 0x100000
 8000b0e:	ea4f 5252 	mov.w	r2, r2, lsr #21
 8000b12:	f1c2 0218 	rsb	r2, r2, #24
 8000b16:	f1c2 0c20 	rsb	ip, r2, #32
 8000b1a:	fa10 f30c 	lsls.w	r3, r0, ip
 8000b1e:	fa20 f002 	lsr.w	r0, r0, r2
 8000b22:	bf18      	it	ne
 8000b24:	f040 0001 	orrne.w	r0, r0, #1
 8000b28:	ea4f 23c1 	mov.w	r3, r1, lsl #11
 8000b2c:	ea4f 23d3 	mov.w	r3, r3, lsr #11
 8000b30:	fa03 fc0c 	lsl.w	ip, r3, ip
 8000b34:	ea40 000c 	orr.w	r0, r0, ip
 8000b38:	fa23 f302 	lsr.w	r3, r3, r2
 8000b3c:	ea4f 0343 	mov.w	r3, r3, lsl #1
 8000b40:	e7cc      	b.n	8000adc <__aeabi_d2f+0x14>
 8000b42:	ea7f 5362 	mvns.w	r3, r2, asr #21
 8000b46:	d107      	bne.n	8000b58 <__aeabi_d2f+0x90>
 8000b48:	ea50 3301 	orrs.w	r3, r0, r1, lsl #12
 8000b4c:	bf1e      	ittt	ne
 8000b4e:	f04f 40fe 	movne.w	r0, #2130706432	; 0x7f000000
 8000b52:	f440 0040 	orrne.w	r0, r0, #12582912	; 0xc00000
 8000b56:	4770      	bxne	lr
 8000b58:	f001 4000 	and.w	r0, r1, #2147483648	; 0x80000000
 8000b5c:	f040 40fe 	orr.w	r0, r0, #2130706432	; 0x7f000000
 8000b60:	f440 0000 	orr.w	r0, r0, #8388608	; 0x800000
 8000b64:	4770      	bx	lr
 8000b66:	bf00      	nop

08000b68 <__aeabi_frsub>:
 8000b68:	f080 4000 	eor.w	r0, r0, #2147483648	; 0x80000000
 8000b6c:	e002      	b.n	8000b74 <__addsf3>
 8000b6e:	bf00      	nop

08000b70 <__aeabi_fsub>:
 8000b70:	f081 4100 	eor.w	r1, r1, #2147483648	; 0x80000000

08000b74 <__addsf3>:
 8000b74:	0042      	lsls	r2, r0, #1
 8000b76:	bf1f      	itttt	ne
 8000b78:	ea5f 0341 	movsne.w	r3, r1, lsl #1
 8000b7c:	ea92 0f03 	teqne	r2, r3
 8000b80:	ea7f 6c22 	mvnsne.w	ip, r2, asr #24
 8000b84:	ea7f 6c23 	mvnsne.w	ip, r3, asr #24
 8000b88:	d06a      	beq.n	8000c60 <__addsf3+0xec>
 8000b8a:	ea4f 6212 	mov.w	r2, r2, lsr #24
 8000b8e:	ebd2 6313 	rsbs	r3, r2, r3, lsr #24
 8000b92:	bfc1      	itttt	gt
 8000b94:	18d2      	addgt	r2, r2, r3
 8000b96:	4041      	eorgt	r1, r0
 8000b98:	4048      	eorgt	r0, r1
 8000b9a:	4041      	eorgt	r1, r0
 8000b9c:	bfb8      	it	lt
 8000b9e:	425b      	neglt	r3, r3
 8000ba0:	2b19      	cmp	r3, #25
 8000ba2:	bf88      	it	hi
 8000ba4:	4770      	bxhi	lr
 8000ba6:	f010 4f00 	tst.w	r0, #2147483648	; 0x80000000
 8000baa:	f440 0000 	orr.w	r0, r0, #8388608	; 0x800000
 8000bae:	f020 407f 	bic.w	r0, r0, #4278190080	; 0xff000000
 8000bb2:	bf18      	it	ne
 8000bb4:	4240      	negne	r0, r0
 8000bb6:	f011 4f00 	tst.w	r1, #2147483648	; 0x80000000
 8000bba:	f441 0100 	orr.w	r1, r1, #8388608	; 0x800000
 8000bbe:	f021 417f 	bic.w	r1, r1, #4278190080	; 0xff000000
 8000bc2:	bf18      	it	ne
 8000bc4:	4249      	negne	r1, r1
 8000bc6:	ea92 0f03 	teq	r2, r3
 8000bca:	d03f      	beq.n	8000c4c <__addsf3+0xd8>
 8000bcc:	f1a2 0201 	sub.w	r2, r2, #1
 8000bd0:	fa41 fc03 	asr.w	ip, r1, r3
 8000bd4:	eb10 000c 	adds.w	r0, r0, ip
 8000bd8:	f1c3 0320 	rsb	r3, r3, #32
 8000bdc:	fa01 f103 	lsl.w	r1, r1, r3
 8000be0:	f000 4300 	and.w	r3, r0, #2147483648	; 0x80000000
 8000be4:	d502      	bpl.n	8000bec <__addsf3+0x78>
 8000be6:	4249      	negs	r1, r1
 8000be8:	eb60 0040 	sbc.w	r0, r0, r0, lsl #1
 8000bec:	f5b0 0f00 	cmp.w	r0, #8388608	; 0x800000
 8000bf0:	d313      	bcc.n	8000c1a <__addsf3+0xa6>
 8000bf2:	f1b0 7f80 	cmp.w	r0, #16777216	; 0x1000000
 8000bf6:	d306      	bcc.n	8000c06 <__addsf3+0x92>
 8000bf8:	0840      	lsrs	r0, r0, #1
 8000bfa:	ea4f 0131 	mov.w	r1, r1, rrx
 8000bfe:	f102 0201 	add.w	r2, r2, #1
 8000c02:	2afe      	cmp	r2, #254	; 0xfe
 8000c04:	d251      	bcs.n	8000caa <__addsf3+0x136>
 8000c06:	f1b1 4f00 	cmp.w	r1, #2147483648	; 0x80000000
 8000c0a:	eb40 50c2 	adc.w	r0, r0, r2, lsl #23
 8000c0e:	bf08      	it	eq
 8000c10:	f020 0001 	biceq.w	r0, r0, #1
 8000c14:	ea40 0003 	orr.w	r0, r0, r3
 8000c18:	4770      	bx	lr
 8000c1a:	0049      	lsls	r1, r1, #1
 8000c1c:	eb40 0000 	adc.w	r0, r0, r0
 8000c20:	f410 0f00 	tst.w	r0, #8388608	; 0x800000
 8000c24:	f1a2 0201 	sub.w	r2, r2, #1
 8000c28:	d1ed      	bne.n	8000c06 <__addsf3+0x92>
 8000c2a:	fab0 fc80 	clz	ip, r0
 8000c2e:	f1ac 0c08 	sub.w	ip, ip, #8
 8000c32:	ebb2 020c 	subs.w	r2, r2, ip
 8000c36:	fa00 f00c 	lsl.w	r0, r0, ip
 8000c3a:	bfaa      	itet	ge
 8000c3c:	eb00 50c2 	addge.w	r0, r0, r2, lsl #23
 8000c40:	4252      	neglt	r2, r2
 8000c42:	4318      	orrge	r0, r3
 8000c44:	bfbc      	itt	lt
 8000c46:	40d0      	lsrlt	r0, r2
 8000c48:	4318      	orrlt	r0, r3
 8000c4a:	4770      	bx	lr
 8000c4c:	f092 0f00 	teq	r2, #0
 8000c50:	f481 0100 	eor.w	r1, r1, #8388608	; 0x800000
 8000c54:	bf06      	itte	eq
 8000c56:	f480 0000 	eoreq.w	r0, r0, #8388608	; 0x800000
 8000c5a:	3201      	addeq	r2, #1
 8000c5c:	3b01      	subne	r3, #1
 8000c5e:	e7b5      	b.n	8000bcc <__addsf3+0x58>
 8000c60:	ea4f 0341 	mov.w	r3, r1, lsl #1
 8000c64:	ea7f 6c22 	mvns.w	ip, r2, asr #24
 8000c68:	bf18      	it	ne
 8000c6a:	ea7f 6c23 	mvnsne.w	ip, r3, asr #24
 8000c6e:	d021      	beq.n	8000cb4 <__addsf3+0x140>
 8000c70:	ea92 0f03 	teq	r2, r3
 8000c74:	d004      	beq.n	8000c80 <__addsf3+0x10c>
 8000c76:	f092 0f00 	teq	r2, #0
 8000c7a:	bf08      	it	eq
 8000c7c:	4608      	moveq	r0, r1
 8000c7e:	4770      	bx	lr
 8000c80:	ea90 0f01 	teq	r0, r1
 8000c84:	bf1c      	itt	ne
 8000c86:	2000      	movne	r0, #0
 8000c88:	4770      	bxne	lr
 8000c8a:	f012 4f7f 	tst.w	r2, #4278190080	; 0xff000000
 8000c8e:	d104      	bne.n	8000c9a <__addsf3+0x126>
 8000c90:	0040      	lsls	r0, r0, #1
 8000c92:	bf28      	it	cs
 8000c94:	f040 4000 	orrcs.w	r0, r0, #2147483648	; 0x80000000
 8000c98:	4770      	bx	lr
 8000c9a:	f112 7200 	adds.w	r2, r2, #33554432	; 0x2000000
 8000c9e:	bf3c      	itt	cc
 8000ca0:	f500 0000 	addcc.w	r0, r0, #8388608	; 0x800000
 8000ca4:	4770      	bxcc	lr
 8000ca6:	f000 4300 	and.w	r3, r0, #2147483648	; 0x80000000
 8000caa:	f043 40fe 	orr.w	r0, r3, #2130706432	; 0x7f000000
 8000cae:	f440 0000 	orr.w	r0, r0, #8388608	; 0x800000
 8000cb2:	4770      	bx	lr
 8000cb4:	ea7f 6222 	mvns.w	r2, r2, asr #24
 8000cb8:	bf16      	itet	ne
 8000cba:	4608      	movne	r0, r1
 8000cbc:	ea7f 6323 	mvnseq.w	r3, r3, asr #24
 8000cc0:	4601      	movne	r1, r0
 8000cc2:	0242      	lsls	r2, r0, #9
 8000cc4:	bf06      	itte	eq
 8000cc6:	ea5f 2341 	movseq.w	r3, r1, lsl #9
 8000cca:	ea90 0f01 	teqeq	r0, r1
 8000cce:	f440 0080 	orrne.w	r0, r0, #4194304	; 0x400000
 8000cd2:	4770      	bx	lr

08000cd4 <__aeabi_ui2f>:
 8000cd4:	f04f 0300 	mov.w	r3, #0
 8000cd8:	e004      	b.n	8000ce4 <__aeabi_i2f+0x8>
 8000cda:	bf00      	nop

08000cdc <__aeabi_i2f>:
 8000cdc:	f010 4300 	ands.w	r3, r0, #2147483648	; 0x80000000
 8000ce0:	bf48      	it	mi
 8000ce2:	4240      	negmi	r0, r0
 8000ce4:	ea5f 0c00 	movs.w	ip, r0
 8000ce8:	bf08      	it	eq
 8000cea:	4770      	bxeq	lr
 8000cec:	f043 4396 	orr.w	r3, r3, #1258291200	; 0x4b000000
 8000cf0:	4601      	mov	r1, r0
 8000cf2:	f04f 0000 	mov.w	r0, #0
 8000cf6:	e01c      	b.n	8000d32 <__aeabi_l2f+0x2a>

08000cf8 <__aeabi_ul2f>:
 8000cf8:	ea50 0201 	orrs.w	r2, r0, r1
 8000cfc:	bf08      	it	eq
 8000cfe:	4770      	bxeq	lr
 8000d00:	f04f 0300 	mov.w	r3, #0
 8000d04:	e00a      	b.n	8000d1c <__aeabi_l2f+0x14>
 8000d06:	bf00      	nop

08000d08 <__aeabi_l2f>:
 8000d08:	ea50 0201 	orrs.w	r2, r0, r1
 8000d0c:	bf08      	it	eq
 8000d0e:	4770      	bxeq	lr
 8000d10:	f011 4300 	ands.w	r3, r1, #2147483648	; 0x80000000
 8000d14:	d502      	bpl.n	8000d1c <__aeabi_l2f+0x14>
 8000d16:	4240      	negs	r0, r0
 8000d18:	eb61 0141 	sbc.w	r1, r1, r1, lsl #1
 8000d1c:	ea5f 0c01 	movs.w	ip, r1
 8000d20:	bf02      	ittt	eq
 8000d22:	4684      	moveq	ip, r0
 8000d24:	4601      	moveq	r1, r0
 8000d26:	2000      	moveq	r0, #0
 8000d28:	f043 43b6 	orr.w	r3, r3, #1526726656	; 0x5b000000
 8000d2c:	bf08      	it	eq
 8000d2e:	f1a3 5380 	subeq.w	r3, r3, #268435456	; 0x10000000
 8000d32:	f5a3 0300 	sub.w	r3, r3, #8388608	; 0x800000
 8000d36:	fabc f28c 	clz	r2, ip
 8000d3a:	3a08      	subs	r2, #8
 8000d3c:	eba3 53c2 	sub.w	r3, r3, r2, lsl #23
 8000d40:	db10      	blt.n	8000d64 <__aeabi_l2f+0x5c>
 8000d42:	fa01 fc02 	lsl.w	ip, r1, r2
 8000d46:	4463      	add	r3, ip
 8000d48:	fa00 fc02 	lsl.w	ip, r0, r2
 8000d4c:	f1c2 0220 	rsb	r2, r2, #32
 8000d50:	f1bc 4f00 	cmp.w	ip, #2147483648	; 0x80000000
 8000d54:	fa20 f202 	lsr.w	r2, r0, r2
 8000d58:	eb43 0002 	adc.w	r0, r3, r2
 8000d5c:	bf08      	it	eq
 8000d5e:	f020 0001 	biceq.w	r0, r0, #1
 8000d62:	4770      	bx	lr
 8000d64:	f102 0220 	add.w	r2, r2, #32
 8000d68:	fa01 fc02 	lsl.w	ip, r1, r2
 8000d6c:	f1c2 0220 	rsb	r2, r2, #32
 8000d70:	ea50 004c 	orrs.w	r0, r0, ip, lsl #1
 8000d74:	fa21 f202 	lsr.w	r2, r1, r2
 8000d78:	eb43 0002 	adc.w	r0, r3, r2
 8000d7c:	bf08      	it	eq
 8000d7e:	ea20 70dc 	biceq.w	r0, r0, ip, lsr #31
 8000d82:	4770      	bx	lr

08000d84 <__aeabi_fmul>:
 8000d84:	f04f 0cff 	mov.w	ip, #255	; 0xff
 8000d88:	ea1c 52d0 	ands.w	r2, ip, r0, lsr #23
 8000d8c:	bf1e      	ittt	ne
 8000d8e:	ea1c 53d1 	andsne.w	r3, ip, r1, lsr #23
 8000d92:	ea92 0f0c 	teqne	r2, ip
 8000d96:	ea93 0f0c 	teqne	r3, ip
 8000d9a:	d06f      	beq.n	8000e7c <__aeabi_fmul+0xf8>
 8000d9c:	441a      	add	r2, r3
 8000d9e:	ea80 0c01 	eor.w	ip, r0, r1
 8000da2:	0240      	lsls	r0, r0, #9
 8000da4:	bf18      	it	ne
 8000da6:	ea5f 2141 	movsne.w	r1, r1, lsl #9
 8000daa:	d01e      	beq.n	8000dea <__aeabi_fmul+0x66>
 8000dac:	f04f 6300 	mov.w	r3, #134217728	; 0x8000000
 8000db0:	ea43 1050 	orr.w	r0, r3, r0, lsr #5
 8000db4:	ea43 1151 	orr.w	r1, r3, r1, lsr #5
 8000db8:	fba0 3101 	umull	r3, r1, r0, r1
 8000dbc:	f00c 4000 	and.w	r0, ip, #2147483648	; 0x80000000
 8000dc0:	f5b1 0f00 	cmp.w	r1, #8388608	; 0x800000
 8000dc4:	bf3e      	ittt	cc
 8000dc6:	0049      	lslcc	r1, r1, #1
 8000dc8:	ea41 71d3 	orrcc.w	r1, r1, r3, lsr #31
 8000dcc:	005b      	lslcc	r3, r3, #1
 8000dce:	ea40 0001 	orr.w	r0, r0, r1
 8000dd2:	f162 027f 	sbc.w	r2, r2, #127	; 0x7f
 8000dd6:	2afd      	cmp	r2, #253	; 0xfd
 8000dd8:	d81d      	bhi.n	8000e16 <__aeabi_fmul+0x92>
 8000dda:	f1b3 4f00 	cmp.w	r3, #2147483648	; 0x80000000
 8000dde:	eb40 50c2 	adc.w	r0, r0, r2, lsl #23
 8000de2:	bf08      	it	eq
 8000de4:	f020 0001 	biceq.w	r0, r0, #1
 8000de8:	4770      	bx	lr
 8000dea:	f090 0f00 	teq	r0, #0
 8000dee:	f00c 4c00 	and.w	ip, ip, #2147483648	; 0x80000000
 8000df2:	bf08      	it	eq
 8000df4:	0249      	lsleq	r1, r1, #9
 8000df6:	ea4c 2050 	orr.w	r0, ip, r0, lsr #9
 8000dfa:	ea40 2051 	orr.w	r0, r0, r1, lsr #9
 8000dfe:	3a7f      	subs	r2, #127	; 0x7f
 8000e00:	bfc2      	ittt	gt
 8000e02:	f1d2 03ff 	rsbsgt	r3, r2, #255	; 0xff
 8000e06:	ea40 50c2 	orrgt.w	r0, r0, r2, lsl #23
 8000e0a:	4770      	bxgt	lr
 8000e0c:	f440 0000 	orr.w	r0, r0, #8388608	; 0x800000
 8000e10:	f04f 0300 	mov.w	r3, #0
 8000e14:	3a01      	subs	r2, #1
 8000e16:	dc5d      	bgt.n	8000ed4 <__aeabi_fmul+0x150>
 8000e18:	f112 0f19 	cmn.w	r2, #25
 8000e1c:	bfdc      	itt	le
 8000e1e:	f000 4000 	andle.w	r0, r0, #2147483648	; 0x80000000
 8000e22:	4770      	bxle	lr
 8000e24:	f1c2 0200 	rsb	r2, r2, #0
 8000e28:	0041      	lsls	r1, r0, #1
 8000e2a:	fa21 f102 	lsr.w	r1, r1, r2
 8000e2e:	f1c2 0220 	rsb	r2, r2, #32
 8000e32:	fa00 fc02 	lsl.w	ip, r0, r2
 8000e36:	ea5f 0031 	movs.w	r0, r1, rrx
 8000e3a:	f140 0000 	adc.w	r0, r0, #0
 8000e3e:	ea53 034c 	orrs.w	r3, r3, ip, lsl #1
 8000e42:	bf08      	it	eq
 8000e44:	ea20 70dc 	biceq.w	r0, r0, ip, lsr #31
 8000e48:	4770      	bx	lr
 8000e4a:	f092 0f00 	teq	r2, #0
 8000e4e:	f000 4c00 	and.w	ip, r0, #2147483648	; 0x80000000
 8000e52:	bf02      	ittt	eq
 8000e54:	0040      	lsleq	r0, r0, #1
 8000e56:	f410 0f00 	tsteq.w	r0, #8388608	; 0x800000
 8000e5a:	3a01      	subeq	r2, #1
 8000e5c:	d0f9      	beq.n	8000e52 <__aeabi_fmul+0xce>
 8000e5e:	ea40 000c 	orr.w	r0, r0, ip
 8000e62:	f093 0f00 	teq	r3, #0
 8000e66:	f001 4c00 	and.w	ip, r1, #2147483648	; 0x80000000
 8000e6a:	bf02      	ittt	eq
 8000e6c:	0049      	lsleq	r1, r1, #1
 8000e6e:	f411 0f00 	tsteq.w	r1, #8388608	; 0x800000
 8000e72:	3b01      	subeq	r3, #1
 8000e74:	d0f9      	beq.n	8000e6a <__aeabi_fmul+0xe6>
 8000e76:	ea41 010c 	orr.w	r1, r1, ip
 8000e7a:	e78f      	b.n	8000d9c <__aeabi_fmul+0x18>
 8000e7c:	ea0c 53d1 	and.w	r3, ip, r1, lsr #23
 8000e80:	ea92 0f0c 	teq	r2, ip
 8000e84:	bf18      	it	ne
 8000e86:	ea93 0f0c 	teqne	r3, ip
 8000e8a:	d00a      	beq.n	8000ea2 <__aeabi_fmul+0x11e>
 8000e8c:	f030 4c00 	bics.w	ip, r0, #2147483648	; 0x80000000
 8000e90:	bf18      	it	ne
 8000e92:	f031 4c00 	bicsne.w	ip, r1, #2147483648	; 0x80000000
 8000e96:	d1d8      	bne.n	8000e4a <__aeabi_fmul+0xc6>
 8000e98:	ea80 0001 	eor.w	r0, r0, r1
 8000e9c:	f000 4000 	and.w	r0, r0, #2147483648	; 0x80000000
 8000ea0:	4770      	bx	lr
 8000ea2:	f090 0f00 	teq	r0, #0
 8000ea6:	bf17      	itett	ne
 8000ea8:	f090 4f00 	teqne	r0, #2147483648	; 0x80000000
 8000eac:	4608      	moveq	r0, r1
 8000eae:	f091 0f00 	teqne	r1, #0
 8000eb2:	f091 4f00 	teqne	r1, #2147483648	; 0x80000000
 8000eb6:	d014      	beq.n	8000ee2 <__aeabi_fmul+0x15e>
 8000eb8:	ea92 0f0c 	teq	r2, ip
 8000ebc:	d101      	bne.n	8000ec2 <__aeabi_fmul+0x13e>
 8000ebe:	0242      	lsls	r2, r0, #9
 8000ec0:	d10f      	bne.n	8000ee2 <__aeabi_fmul+0x15e>
 8000ec2:	ea93 0f0c 	teq	r3, ip
 8000ec6:	d103      	bne.n	8000ed0 <__aeabi_fmul+0x14c>
 8000ec8:	024b      	lsls	r3, r1, #9
 8000eca:	bf18      	it	ne
 8000ecc:	4608      	movne	r0, r1
 8000ece:	d108      	bne.n	8000ee2 <__aeabi_fmul+0x15e>
 8000ed0:	ea80 0001 	eor.w	r0, r0, r1
 8000ed4:	f000 4000 	and.w	r0, r0, #2147483648	; 0x80000000
 8000ed8:	f040 40fe 	orr.w	r0, r0, #2130706432	; 0x7f000000
 8000edc:	f440 0000 	orr.w	r0, r0, #8388608	; 0x800000
 8000ee0:	4770      	bx	lr
 8000ee2:	f040 40fe 	orr.w	r0, r0, #2130706432	; 0x7f000000
 8000ee6:	f440 0040 	orr.w	r0, r0, #12582912	; 0xc00000
 8000eea:	4770      	bx	lr

08000eec <__aeabi_fdiv>:
 8000eec:	f04f 0cff 	mov.w	ip, #255	; 0xff
 8000ef0:	ea1c 52d0 	ands.w	r2, ip, r0, lsr #23
 8000ef4:	bf1e      	ittt	ne
 8000ef6:	ea1c 53d1 	andsne.w	r3, ip, r1, lsr #23
 8000efa:	ea92 0f0c 	teqne	r2, ip
 8000efe:	ea93 0f0c 	teqne	r3, ip
 8000f02:	d069      	beq.n	8000fd8 <__aeabi_fdiv+0xec>
 8000f04:	eba2 0203 	sub.w	r2, r2, r3
 8000f08:	ea80 0c01 	eor.w	ip, r0, r1
 8000f0c:	0249      	lsls	r1, r1, #9
 8000f0e:	ea4f 2040 	mov.w	r0, r0, lsl #9
 8000f12:	d037      	beq.n	8000f84 <__aeabi_fdiv+0x98>
 8000f14:	f04f 5380 	mov.w	r3, #268435456	; 0x10000000
 8000f18:	ea43 1111 	orr.w	r1, r3, r1, lsr #4
 8000f1c:	ea43 1310 	orr.w	r3, r3, r0, lsr #4
 8000f20:	f00c 4000 	and.w	r0, ip, #2147483648	; 0x80000000
 8000f24:	428b      	cmp	r3, r1
 8000f26:	bf38      	it	cc
 8000f28:	005b      	lslcc	r3, r3, #1
 8000f2a:	f142 027d 	adc.w	r2, r2, #125	; 0x7d
 8000f2e:	f44f 0c00 	mov.w	ip, #8388608	; 0x800000
 8000f32:	428b      	cmp	r3, r1
 8000f34:	bf24      	itt	cs
 8000f36:	1a5b      	subcs	r3, r3, r1
 8000f38:	ea40 000c 	orrcs.w	r0, r0, ip
 8000f3c:	ebb3 0f51 	cmp.w	r3, r1, lsr #1
 8000f40:	bf24      	itt	cs
 8000f42:	eba3 0351 	subcs.w	r3, r3, r1, lsr #1
 8000f46:	ea40 005c 	orrcs.w	r0, r0, ip, lsr #1
 8000f4a:	ebb3 0f91 	cmp.w	r3, r1, lsr #2
 8000f4e:	bf24      	itt	cs
 8000f50:	eba3 0391 	subcs.w	r3, r3, r1, lsr #2
 8000f54:	ea40 009c 	orrcs.w	r0, r0, ip, lsr #2
 8000f58:	ebb3 0fd1 	cmp.w	r3, r1, lsr #3
 8000f5c:	bf24      	itt	cs
 8000f5e:	eba3 03d1 	subcs.w	r3, r3, r1, lsr #3
 8000f62:	ea40 00dc 	orrcs.w	r0, r0, ip, lsr #3
 8000f66:	011b      	lsls	r3, r3, #4
 8000f68:	bf18      	it	ne
 8000f6a:	ea5f 1c1c 	movsne.w	ip, ip, lsr #4
 8000f6e:	d1e0      	bne.n	8000f32 <__aeabi_fdiv+0x46>
 8000f70:	2afd      	cmp	r2, #253	; 0xfd
 8000f72:	f63f af50 	bhi.w	8000e16 <__aeabi_fmul+0x92>
 8000f76:	428b      	cmp	r3, r1
 8000f78:	eb40 50c2 	adc.w	r0, r0, r2, lsl #23
 8000f7c:	bf08      	it	eq
 8000f7e:	f020 0001 	biceq.w	r0, r0, #1
 8000f82:	4770      	bx	lr
 8000f84:	f00c 4c00 	and.w	ip, ip, #2147483648	; 0x80000000
 8000f88:	ea4c 2050 	orr.w	r0, ip, r0, lsr #9
 8000f8c:	327f      	adds	r2, #127	; 0x7f
 8000f8e:	bfc2      	ittt	gt
 8000f90:	f1d2 03ff 	rsbsgt	r3, r2, #255	; 0xff
 8000f94:	ea40 50c2 	orrgt.w	r0, r0, r2, lsl #23
 8000f98:	4770      	bxgt	lr
 8000f9a:	f440 0000 	orr.w	r0, r0, #8388608	; 0x800000
 8000f9e:	f04f 0300 	mov.w	r3, #0
 8000fa2:	3a01      	subs	r2, #1
 8000fa4:	e737      	b.n	8000e16 <__aeabi_fmul+0x92>
 8000fa6:	f092 0f00 	teq	r2, #0
 8000faa:	f000 4c00 	and.w	ip, r0, #2147483648	; 0x80000000
 8000fae:	bf02      	ittt	eq
 8000fb0:	0040      	lsleq	r0, r0, #1
 8000fb2:	f410 0f00 	tsteq.w	r0, #8388608	; 0x800000
 8000fb6:	3a01      	subeq	r2, #1
 8000fb8:	d0f9      	beq.n	8000fae <__aeabi_fdiv+0xc2>
 8000fba:	ea40 000c 	orr.w	r0, r0, ip
 8000fbe:	f093 0f00 	teq	r3, #0
 8000fc2:	f001 4c00 	and.w	ip, r1, #2147483648	; 0x80000000
 8000fc6:	bf02      	ittt	eq
 8000fc8:	0049      	lsleq	r1, r1, #1
 8000fca:	f411 0f00 	tsteq.w	r1, #8388608	; 0x800000
 8000fce:	3b01      	subeq	r3, #1
 8000fd0:	d0f9      	beq.n	8000fc6 <__aeabi_fdiv+0xda>
 8000fd2:	ea41 010c 	orr.w	r1, r1, ip
 8000fd6:	e795      	b.n	8000f04 <__aeabi_fdiv+0x18>
 8000fd8:	ea0c 53d1 	and.w	r3, ip, r1, lsr #23
 8000fdc:	ea92 0f0c 	teq	r2, ip
 8000fe0:	d108      	bne.n	8000ff4 <__aeabi_fdiv+0x108>
 8000fe2:	0242      	lsls	r2, r0, #9
 8000fe4:	f47f af7d 	bne.w	8000ee2 <__aeabi_fmul+0x15e>
 8000fe8:	ea93 0f0c 	teq	r3, ip
 8000fec:	f47f af70 	bne.w	8000ed0 <__aeabi_fmul+0x14c>
 8000ff0:	4608      	mov	r0, r1
 8000ff2:	e776      	b.n	8000ee2 <__aeabi_fmul+0x15e>
 8000ff4:	ea93 0f0c 	teq	r3, ip
 8000ff8:	d104      	bne.n	8001004 <__aeabi_fdiv+0x118>
 8000ffa:	024b      	lsls	r3, r1, #9
 8000ffc:	f43f af4c 	beq.w	8000e98 <__aeabi_fmul+0x114>
 8001000:	4608      	mov	r0, r1
 8001002:	e76e      	b.n	8000ee2 <__aeabi_fmul+0x15e>
 8001004:	f030 4c00 	bics.w	ip, r0, #2147483648	; 0x80000000
 8001008:	bf18      	it	ne
 800100a:	f031 4c00 	bicsne.w	ip, r1, #2147483648	; 0x80000000
 800100e:	d1ca      	bne.n	8000fa6 <__aeabi_fdiv+0xba>
 8001010:	f030 4200 	bics.w	r2, r0, #2147483648	; 0x80000000
 8001014:	f47f af5c 	bne.w	8000ed0 <__aeabi_fmul+0x14c>
 8001018:	f031 4300 	bics.w	r3, r1, #2147483648	; 0x80000000
 800101c:	f47f af3c 	bne.w	8000e98 <__aeabi_fmul+0x114>
 8001020:	e75f      	b.n	8000ee2 <__aeabi_fmul+0x15e>
 8001022:	bf00      	nop

08001024 <__aeabi_f2iz>:
 8001024:	ea4f 0240 	mov.w	r2, r0, lsl #1
 8001028:	f1b2 4ffe 	cmp.w	r2, #2130706432	; 0x7f000000
 800102c:	d30f      	bcc.n	800104e <__aeabi_f2iz+0x2a>
 800102e:	f04f 039e 	mov.w	r3, #158	; 0x9e
 8001032:	ebb3 6212 	subs.w	r2, r3, r2, lsr #24
 8001036:	d90d      	bls.n	8001054 <__aeabi_f2iz+0x30>
 8001038:	ea4f 2300 	mov.w	r3, r0, lsl #8
 800103c:	f043 4300 	orr.w	r3, r3, #2147483648	; 0x80000000
 8001040:	f010 4f00 	tst.w	r0, #2147483648	; 0x80000000
 8001044:	fa23 f002 	lsr.w	r0, r3, r2
 8001048:	bf18      	it	ne
 800104a:	4240      	negne	r0, r0
 800104c:	4770      	bx	lr
 800104e:	f04f 0000 	mov.w	r0, #0
 8001052:	4770      	bx	lr
 8001054:	f112 0f61 	cmn.w	r2, #97	; 0x61
 8001058:	d101      	bne.n	800105e <__aeabi_f2iz+0x3a>
 800105a:	0242      	lsls	r2, r0, #9
 800105c:	d105      	bne.n	800106a <__aeabi_f2iz+0x46>
 800105e:	f010 4000 	ands.w	r0, r0, #2147483648	; 0x80000000
 8001062:	bf08      	it	eq
 8001064:	f06f 4000 	mvneq.w	r0, #2147483648	; 0x80000000
 8001068:	4770      	bx	lr
 800106a:	f04f 0000 	mov.w	r0, #0
 800106e:	4770      	bx	lr

08001070 <mpu_set_bypass.part.1>:
/**
 *  @brief      Set device to bypass mode.
 *  @param[in]  bypass_on   1 to enable bypass mode.
 *  @return     0 if successful.
 */
int mpu_set_bypass(unsigned char bypass_on)
 8001070:	b570      	push	{r4, r5, r6, lr}
    unsigned char tmp;

    if (st.chip_cfg.bypass_mode == bypass_on)
        return 0;

    if (bypass_on) {
 8001072:	4606      	mov	r6, r0
int mpu_set_bypass(unsigned char bypass_on)
 8001074:	b082      	sub	sp, #8
 8001076:	4c36      	ldr	r4, [pc, #216]	; (8001150 <mpu_set_bypass.part.1+0xe0>)
        if (i2c_read(st.hw->addr, st.reg->user_ctrl, 1, &tmp))
 8001078:	f10d 0507 	add.w	r5, sp, #7
 800107c:	e9d4 3200 	ldrd	r3, r2, [r4]
 8001080:	7810      	ldrb	r0, [r2, #0]
 8001082:	7919      	ldrb	r1, [r3, #4]
 8001084:	2201      	movs	r2, #1
 8001086:	462b      	mov	r3, r5
    if (bypass_on) {
 8001088:	b33e      	cbz	r6, 80010da <mpu_set_bypass.part.1+0x6a>
        if (i2c_read(st.hw->addr, st.reg->user_ctrl, 1, &tmp))
 800108a:	f003 f80d 	bl	80040a8 <i2c_read>
 800108e:	2800      	cmp	r0, #0
 8001090:	d15a      	bne.n	8001148 <mpu_set_bypass.part.1+0xd8>
            return -1;
        tmp &= ~BIT_AUX_IF_EN;
 8001092:	f89d 3007 	ldrb.w	r3, [sp, #7]
        if (i2c_write(st.hw->addr, st.reg->user_ctrl, 1, &tmp))
 8001096:	6861      	ldr	r1, [r4, #4]
        tmp &= ~BIT_AUX_IF_EN;
 8001098:	f023 0320 	bic.w	r3, r3, #32
        if (i2c_write(st.hw->addr, st.reg->user_ctrl, 1, &tmp))
 800109c:	6822      	ldr	r2, [r4, #0]
        tmp &= ~BIT_AUX_IF_EN;
 800109e:	f88d 3007 	strb.w	r3, [sp, #7]
        if (i2c_write(st.hw->addr, st.reg->user_ctrl, 1, &tmp))
 80010a2:	7808      	ldrb	r0, [r1, #0]
 80010a4:	462b      	mov	r3, r5
 80010a6:	7911      	ldrb	r1, [r2, #4]
 80010a8:	2201      	movs	r2, #1
 80010aa:	f002 ffed 	bl	8004088 <i2c_write>
 80010ae:	2800      	cmp	r0, #0
 80010b0:	d14a      	bne.n	8001148 <mpu_set_bypass.part.1+0xd8>
            return -1;
        delay_ms(3);
 80010b2:	2003      	movs	r0, #3
 80010b4:	f003 f808 	bl	80040c8 <delay_ms>
        tmp = BIT_BYPASS_EN;
 80010b8:	2202      	movs	r2, #2
        if (st.chip_cfg.active_low_int)
 80010ba:	f894 3022 	ldrb.w	r3, [r4, #34]	; 0x22
        tmp = BIT_BYPASS_EN;
 80010be:	f88d 2007 	strb.w	r2, [sp, #7]
        if (st.chip_cfg.active_low_int)
 80010c2:	2b00      	cmp	r3, #0
 80010c4:	d03e      	beq.n	8001144 <mpu_set_bypass.part.1+0xd4>
            tmp |= BIT_ACTL;
 80010c6:	2382      	movs	r3, #130	; 0x82
 80010c8:	22b2      	movs	r2, #178	; 0xb2
 80010ca:	f88d 3007 	strb.w	r3, [sp, #7]
        if (st.chip_cfg.latched_int)
 80010ce:	f894 3023 	ldrb.w	r3, [r4, #35]	; 0x23
 80010d2:	b343      	cbz	r3, 8001126 <mpu_set_bypass.part.1+0xb6>
            tmp |= BIT_LATCH_EN | BIT_ANY_RD_CLR;
 80010d4:	f88d 2007 	strb.w	r2, [sp, #7]
 80010d8:	e025      	b.n	8001126 <mpu_set_bypass.part.1+0xb6>
        if (i2c_write(st.hw->addr, st.reg->int_pin_cfg, 1, &tmp))
            return -1;
    } else {
        /* Enable I2C master mode if compass is being used. */
        if (i2c_read(st.hw->addr, st.reg->user_ctrl, 1, &tmp))
 80010da:	f002 ffe5 	bl	80040a8 <i2c_read>
 80010de:	bb98      	cbnz	r0, 8001148 <mpu_set_bypass.part.1+0xd8>
            return -1;
        if (st.chip_cfg.sensors & INV_XYZ_COMPASS)
 80010e0:	7aa2      	ldrb	r2, [r4, #10]
 80010e2:	f89d 3007 	ldrb.w	r3, [sp, #7]
 80010e6:	07d2      	lsls	r2, r2, #31
            tmp |= BIT_AUX_IF_EN;
 80010e8:	bf4c      	ite	mi
 80010ea:	f043 0320 	orrmi.w	r3, r3, #32
        else
            tmp &= ~BIT_AUX_IF_EN;
 80010ee:	f003 03df 	andpl.w	r3, r3, #223	; 0xdf
 80010f2:	f88d 3007 	strb.w	r3, [sp, #7]
        if (i2c_write(st.hw->addr, st.reg->user_ctrl, 1, &tmp))
 80010f6:	e9d4 2100 	ldrd	r2, r1, [r4]
 80010fa:	462b      	mov	r3, r5
 80010fc:	7808      	ldrb	r0, [r1, #0]
 80010fe:	7911      	ldrb	r1, [r2, #4]
 8001100:	2201      	movs	r2, #1
 8001102:	f002 ffc1 	bl	8004088 <i2c_write>
 8001106:	b9f8      	cbnz	r0, 8001148 <mpu_set_bypass.part.1+0xd8>
            return -1;
        delay_ms(3);
 8001108:	2003      	movs	r0, #3
 800110a:	f002 ffdd 	bl	80040c8 <delay_ms>
        if (st.chip_cfg.active_low_int)
 800110e:	f894 3022 	ldrb.w	r3, [r4, #34]	; 0x22
 8001112:	b1ab      	cbz	r3, 8001140 <mpu_set_bypass.part.1+0xd0>
 8001114:	21b0      	movs	r1, #176	; 0xb0
            tmp = BIT_ACTL;
 8001116:	2380      	movs	r3, #128	; 0x80
        else
            tmp = 0;
        if (st.chip_cfg.latched_int)
 8001118:	f894 2023 	ldrb.w	r2, [r4, #35]	; 0x23
 800111c:	f88d 3007 	strb.w	r3, [sp, #7]
 8001120:	b10a      	cbz	r2, 8001126 <mpu_set_bypass.part.1+0xb6>
            tmp |= BIT_LATCH_EN | BIT_ANY_RD_CLR;
 8001122:	f88d 1007 	strb.w	r1, [sp, #7]
        if (i2c_write(st.hw->addr, st.reg->int_pin_cfg, 1, &tmp))
 8001126:	e9d4 1200 	ldrd	r1, r2, [r4]
 800112a:	462b      	mov	r3, r5
 800112c:	7810      	ldrb	r0, [r2, #0]
 800112e:	7dc9      	ldrb	r1, [r1, #23]
 8001130:	2201      	movs	r2, #1
 8001132:	f002 ffa9 	bl	8004088 <i2c_write>
 8001136:	b938      	cbnz	r0, 8001148 <mpu_set_bypass.part.1+0xd8>
            return -1;
    }
    st.chip_cfg.bypass_mode = bypass_on;
    return 0;
 8001138:	2000      	movs	r0, #0
    st.chip_cfg.bypass_mode = bypass_on;
 800113a:	74a6      	strb	r6, [r4, #18]
}
 800113c:	b002      	add	sp, #8
 800113e:	bd70      	pop	{r4, r5, r6, pc}
        if (st.chip_cfg.active_low_int)
 8001140:	2130      	movs	r1, #48	; 0x30
 8001142:	e7e9      	b.n	8001118 <mpu_set_bypass.part.1+0xa8>
        if (st.chip_cfg.active_low_int)
 8001144:	2232      	movs	r2, #50	; 0x32
 8001146:	e7c2      	b.n	80010ce <mpu_set_bypass.part.1+0x5e>
            return -1;
 8001148:	f04f 30ff 	mov.w	r0, #4294967295
 800114c:	e7f6      	b.n	800113c <mpu_set_bypass.part.1+0xcc>
 800114e:	bf00      	nop
 8001150:	20000000 	.word	0x20000000

08001154 <mpu_set_bypass.part.1.constprop.7>:
int mpu_set_bypass(unsigned char bypass_on)
 8001154:	b510      	push	{r4, lr}
        if (i2c_read(st.hw->addr, st.reg->user_ctrl, 1, &tmp))
 8001156:	4c20      	ldr	r4, [pc, #128]	; (80011d8 <mpu_set_bypass.part.1.constprop.7+0x84>)
int mpu_set_bypass(unsigned char bypass_on)
 8001158:	b082      	sub	sp, #8
        if (i2c_read(st.hw->addr, st.reg->user_ctrl, 1, &tmp))
 800115a:	e9d4 2300 	ldrd	r2, r3, [r4]
 800115e:	7911      	ldrb	r1, [r2, #4]
 8001160:	7818      	ldrb	r0, [r3, #0]
 8001162:	2201      	movs	r2, #1
 8001164:	f10d 0307 	add.w	r3, sp, #7
 8001168:	f002 ff9e 	bl	80040a8 <i2c_read>
 800116c:	bb88      	cbnz	r0, 80011d2 <mpu_set_bypass.part.1.constprop.7+0x7e>
        tmp &= ~BIT_AUX_IF_EN;
 800116e:	f89d 3007 	ldrb.w	r3, [sp, #7]
        if (i2c_write(st.hw->addr, st.reg->user_ctrl, 1, &tmp))
 8001172:	6861      	ldr	r1, [r4, #4]
        tmp &= ~BIT_AUX_IF_EN;
 8001174:	f023 0320 	bic.w	r3, r3, #32
        if (i2c_write(st.hw->addr, st.reg->user_ctrl, 1, &tmp))
 8001178:	6822      	ldr	r2, [r4, #0]
        tmp &= ~BIT_AUX_IF_EN;
 800117a:	f88d 3007 	strb.w	r3, [sp, #7]
        if (i2c_write(st.hw->addr, st.reg->user_ctrl, 1, &tmp))
 800117e:	7808      	ldrb	r0, [r1, #0]
 8001180:	f10d 0307 	add.w	r3, sp, #7
 8001184:	7911      	ldrb	r1, [r2, #4]
 8001186:	2201      	movs	r2, #1
 8001188:	f002 ff7e 	bl	8004088 <i2c_write>
 800118c:	bb08      	cbnz	r0, 80011d2 <mpu_set_bypass.part.1.constprop.7+0x7e>
        delay_ms(3);
 800118e:	2003      	movs	r0, #3
 8001190:	f002 ff9a 	bl	80040c8 <delay_ms>
        tmp = BIT_BYPASS_EN;
 8001194:	2202      	movs	r2, #2
        if (st.chip_cfg.active_low_int)
 8001196:	f894 3022 	ldrb.w	r3, [r4, #34]	; 0x22
        tmp = BIT_BYPASS_EN;
 800119a:	f88d 2007 	strb.w	r2, [sp, #7]
        if (st.chip_cfg.active_low_int)
 800119e:	b1b3      	cbz	r3, 80011ce <mpu_set_bypass.part.1.constprop.7+0x7a>
            tmp |= BIT_ACTL;
 80011a0:	2382      	movs	r3, #130	; 0x82
 80011a2:	22b2      	movs	r2, #178	; 0xb2
 80011a4:	f88d 3007 	strb.w	r3, [sp, #7]
        if (st.chip_cfg.latched_int)
 80011a8:	f894 3023 	ldrb.w	r3, [r4, #35]	; 0x23
 80011ac:	b10b      	cbz	r3, 80011b2 <mpu_set_bypass.part.1.constprop.7+0x5e>
            tmp |= BIT_LATCH_EN | BIT_ANY_RD_CLR;
 80011ae:	f88d 2007 	strb.w	r2, [sp, #7]
        if (i2c_write(st.hw->addr, st.reg->int_pin_cfg, 1, &tmp))
 80011b2:	e9d4 1200 	ldrd	r1, r2, [r4]
 80011b6:	f10d 0307 	add.w	r3, sp, #7
 80011ba:	7810      	ldrb	r0, [r2, #0]
 80011bc:	7dc9      	ldrb	r1, [r1, #23]
 80011be:	2201      	movs	r2, #1
 80011c0:	f002 ff62 	bl	8004088 <i2c_write>
 80011c4:	b928      	cbnz	r0, 80011d2 <mpu_set_bypass.part.1.constprop.7+0x7e>
    st.chip_cfg.bypass_mode = bypass_on;
 80011c6:	2301      	movs	r3, #1
 80011c8:	74a3      	strb	r3, [r4, #18]
}
 80011ca:	b002      	add	sp, #8
 80011cc:	bd10      	pop	{r4, pc}
        if (st.chip_cfg.active_low_int)
 80011ce:	2232      	movs	r2, #50	; 0x32
 80011d0:	e7ea      	b.n	80011a8 <mpu_set_bypass.part.1.constprop.7+0x54>
            return -1;
 80011d2:	f04f 30ff 	mov.w	r0, #4294967295
 80011d6:	e7f8      	b.n	80011ca <mpu_set_bypass.part.1.constprop.7+0x76>
 80011d8:	20000000 	.word	0x20000000

080011dc <mpu_reset_fifo>:
{
 80011dc:	b570      	push	{r4, r5, r6, lr}
    if (!(st.chip_cfg.sensors))
 80011de:	4c53      	ldr	r4, [pc, #332]	; (800132c <mpu_reset_fifo+0x150>)
{
 80011e0:	b082      	sub	sp, #8
    if (!(st.chip_cfg.sensors))
 80011e2:	7aa3      	ldrb	r3, [r4, #10]
 80011e4:	2b00      	cmp	r3, #0
 80011e6:	f000 809c 	beq.w	8001322 <mpu_reset_fifo+0x146>
    if (i2c_write(st.hw->addr, st.reg->int_enable, 1, &data))
 80011ea:	e9d4 2100 	ldrd	r2, r1, [r4]
    data = 0;
 80011ee:	2300      	movs	r3, #0
 80011f0:	ad02      	add	r5, sp, #8
 80011f2:	f805 3d01 	strb.w	r3, [r5, #-1]!
    if (i2c_write(st.hw->addr, st.reg->int_enable, 1, &data))
 80011f6:	7808      	ldrb	r0, [r1, #0]
 80011f8:	462b      	mov	r3, r5
 80011fa:	7c51      	ldrb	r1, [r2, #17]
 80011fc:	2201      	movs	r2, #1
 80011fe:	f002 ff43 	bl	8004088 <i2c_write>
 8001202:	2800      	cmp	r0, #0
 8001204:	f040 808d 	bne.w	8001322 <mpu_reset_fifo+0x146>
    if (i2c_write(st.hw->addr, st.reg->fifo_en, 1, &data))
 8001208:	e9d4 2300 	ldrd	r2, r3, [r4]
 800120c:	7951      	ldrb	r1, [r2, #5]
 800120e:	7818      	ldrb	r0, [r3, #0]
 8001210:	2201      	movs	r2, #1
 8001212:	462b      	mov	r3, r5
 8001214:	f002 ff38 	bl	8004088 <i2c_write>
 8001218:	2800      	cmp	r0, #0
 800121a:	f040 8082 	bne.w	8001322 <mpu_reset_fifo+0x146>
    if (i2c_write(st.hw->addr, st.reg->user_ctrl, 1, &data))
 800121e:	e9d4 2300 	ldrd	r2, r3, [r4]
 8001222:	7911      	ldrb	r1, [r2, #4]
 8001224:	7818      	ldrb	r0, [r3, #0]
 8001226:	2201      	movs	r2, #1
 8001228:	462b      	mov	r3, r5
 800122a:	f002 ff2d 	bl	8004088 <i2c_write>
 800122e:	2800      	cmp	r0, #0
 8001230:	d177      	bne.n	8001322 <mpu_reset_fifo+0x146>
 8001232:	e9d4 2100 	ldrd	r2, r1, [r4]
    if (st.chip_cfg.dmp_on) {
 8001236:	f894 3024 	ldrb.w	r3, [r4, #36]	; 0x24
 800123a:	7808      	ldrb	r0, [r1, #0]
 800123c:	7911      	ldrb	r1, [r2, #4]
 800123e:	2b00      	cmp	r3, #0
 8001240:	d13b      	bne.n	80012ba <mpu_reset_fifo+0xde>
        data = BIT_FIFO_RST;
 8001242:	2604      	movs	r6, #4
        if (i2c_write(st.hw->addr, st.reg->user_ctrl, 1, &data))
 8001244:	462b      	mov	r3, r5
 8001246:	2201      	movs	r2, #1
        data = BIT_FIFO_RST;
 8001248:	f88d 6007 	strb.w	r6, [sp, #7]
        if (i2c_write(st.hw->addr, st.reg->user_ctrl, 1, &data))
 800124c:	f002 ff1c 	bl	8004088 <i2c_write>
 8001250:	2800      	cmp	r0, #0
 8001252:	d166      	bne.n	8001322 <mpu_reset_fifo+0x146>
        if (st.chip_cfg.bypass_mode || !(st.chip_cfg.sensors & INV_XYZ_COMPASS))
 8001254:	7ca3      	ldrb	r3, [r4, #18]
 8001256:	2b00      	cmp	r3, #0
 8001258:	d161      	bne.n	800131e <mpu_reset_fifo+0x142>
 800125a:	7aa3      	ldrb	r3, [r4, #10]
            data = BIT_FIFO_EN;
 800125c:	f013 0f01 	tst.w	r3, #1
 8001260:	bf14      	ite	ne
 8001262:	2160      	movne	r1, #96	; 0x60
 8001264:	2140      	moveq	r1, #64	; 0x40
        if (i2c_write(st.hw->addr, st.reg->user_ctrl, 1, &data))
 8001266:	e9d4 3200 	ldrd	r3, r2, [r4]
 800126a:	f88d 1007 	strb.w	r1, [sp, #7]
 800126e:	7810      	ldrb	r0, [r2, #0]
 8001270:	7919      	ldrb	r1, [r3, #4]
 8001272:	2201      	movs	r2, #1
 8001274:	462b      	mov	r3, r5
 8001276:	f002 ff07 	bl	8004088 <i2c_write>
 800127a:	2800      	cmp	r0, #0
 800127c:	d151      	bne.n	8001322 <mpu_reset_fifo+0x146>
        if (st.chip_cfg.int_enable)
 800127e:	7c63      	ldrb	r3, [r4, #17]
        if (i2c_write(st.hw->addr, st.reg->int_enable, 1, &data))
 8001280:	6861      	ldr	r1, [r4, #4]
        if (st.chip_cfg.int_enable)
 8001282:	3300      	adds	r3, #0
 8001284:	bf18      	it	ne
 8001286:	2301      	movne	r3, #1
        if (i2c_write(st.hw->addr, st.reg->int_enable, 1, &data))
 8001288:	6822      	ldr	r2, [r4, #0]
        if (st.chip_cfg.int_enable)
 800128a:	f88d 3007 	strb.w	r3, [sp, #7]
        if (i2c_write(st.hw->addr, st.reg->int_enable, 1, &data))
 800128e:	7808      	ldrb	r0, [r1, #0]
 8001290:	462b      	mov	r3, r5
 8001292:	7c51      	ldrb	r1, [r2, #17]
 8001294:	2201      	movs	r2, #1
 8001296:	f002 fef7 	bl	8004088 <i2c_write>
 800129a:	2800      	cmp	r0, #0
 800129c:	d141      	bne.n	8001322 <mpu_reset_fifo+0x146>
        if (i2c_write(st.hw->addr, st.reg->fifo_en, 1, &st.chip_cfg.fifo_enable))
 800129e:	e9d4 2300 	ldrd	r2, r3, [r4]
 80012a2:	7818      	ldrb	r0, [r3, #0]
 80012a4:	7951      	ldrb	r1, [r2, #5]
 80012a6:	4b22      	ldr	r3, [pc, #136]	; (8001330 <mpu_reset_fifo+0x154>)
 80012a8:	2201      	movs	r2, #1
 80012aa:	f002 feed 	bl	8004088 <i2c_write>
 80012ae:	3000      	adds	r0, #0
 80012b0:	bf18      	it	ne
 80012b2:	2001      	movne	r0, #1
 80012b4:	4240      	negs	r0, r0
}
 80012b6:	b002      	add	sp, #8
 80012b8:	bd70      	pop	{r4, r5, r6, pc}
        data = BIT_FIFO_RST | BIT_DMP_RST;
 80012ba:	260c      	movs	r6, #12
        if (i2c_write(st.hw->addr, st.reg->user_ctrl, 1, &data))
 80012bc:	462b      	mov	r3, r5
 80012be:	2201      	movs	r2, #1
        data = BIT_FIFO_RST | BIT_DMP_RST;
 80012c0:	f88d 6007 	strb.w	r6, [sp, #7]
        if (i2c_write(st.hw->addr, st.reg->user_ctrl, 1, &data))
 80012c4:	f002 fee0 	bl	8004088 <i2c_write>
 80012c8:	bb58      	cbnz	r0, 8001322 <mpu_reset_fifo+0x146>
        if (st.chip_cfg.sensors & INV_XYZ_COMPASS)
 80012ca:	7aa3      	ldrb	r3, [r4, #10]
        data = BIT_DMP_EN | BIT_FIFO_EN;
 80012cc:	22c0      	movs	r2, #192	; 0xc0
        if (st.chip_cfg.sensors & INV_XYZ_COMPASS)
 80012ce:	07db      	lsls	r3, r3, #31
            data |= BIT_AUX_IF_EN;
 80012d0:	bf48      	it	mi
 80012d2:	23e0      	movmi	r3, #224	; 0xe0
        data = BIT_DMP_EN | BIT_FIFO_EN;
 80012d4:	f88d 2007 	strb.w	r2, [sp, #7]
            data |= BIT_AUX_IF_EN;
 80012d8:	bf48      	it	mi
 80012da:	f88d 3007 	strbmi.w	r3, [sp, #7]
        if (i2c_write(st.hw->addr, st.reg->user_ctrl, 1, &data))
 80012de:	e9d4 2300 	ldrd	r2, r3, [r4]
 80012e2:	7911      	ldrb	r1, [r2, #4]
 80012e4:	7818      	ldrb	r0, [r3, #0]
 80012e6:	2201      	movs	r2, #1
 80012e8:	462b      	mov	r3, r5
 80012ea:	f002 fecd 	bl	8004088 <i2c_write>
 80012ee:	b9c0      	cbnz	r0, 8001322 <mpu_reset_fifo+0x146>
        if (st.chip_cfg.int_enable)
 80012f0:	7c63      	ldrb	r3, [r4, #17]
        if (i2c_write(st.hw->addr, st.reg->int_enable, 1, &data))
 80012f2:	6861      	ldr	r1, [r4, #4]
            data = BIT_DMP_INT_EN;
 80012f4:	2b00      	cmp	r3, #0
 80012f6:	bf18      	it	ne
 80012f8:	2302      	movne	r3, #2
        if (i2c_write(st.hw->addr, st.reg->int_enable, 1, &data))
 80012fa:	6822      	ldr	r2, [r4, #0]
 80012fc:	f88d 3007 	strb.w	r3, [sp, #7]
 8001300:	7808      	ldrb	r0, [r1, #0]
 8001302:	462b      	mov	r3, r5
 8001304:	7c51      	ldrb	r1, [r2, #17]
 8001306:	2201      	movs	r2, #1
 8001308:	f002 febe 	bl	8004088 <i2c_write>
 800130c:	b948      	cbnz	r0, 8001322 <mpu_reset_fifo+0x146>
        if (i2c_write(st.hw->addr, st.reg->fifo_en, 1, &data))
 800130e:	e9d4 2100 	ldrd	r2, r1, [r4]
        data = 0;
 8001312:	f88d 0007 	strb.w	r0, [sp, #7]
        if (i2c_write(st.hw->addr, st.reg->fifo_en, 1, &data))
 8001316:	7808      	ldrb	r0, [r1, #0]
 8001318:	462b      	mov	r3, r5
 800131a:	7951      	ldrb	r1, [r2, #5]
 800131c:	e7c4      	b.n	80012a8 <mpu_reset_fifo+0xcc>
            data = BIT_FIFO_EN;
 800131e:	2140      	movs	r1, #64	; 0x40
 8001320:	e7a1      	b.n	8001266 <mpu_reset_fifo+0x8a>
        return -1;
 8001322:	f04f 30ff 	mov.w	r0, #4294967295
}
 8001326:	b002      	add	sp, #8
 8001328:	bd70      	pop	{r4, r5, r6, pc}
 800132a:	bf00      	nop
 800132c:	20000000 	.word	0x20000000
 8001330:	20000010 	.word	0x20000010

08001334 <mpu_lp_accel_mode>:
{
 8001334:	b570      	push	{r4, r5, r6, lr}
    if (rate > 40)
 8001336:	2828      	cmp	r0, #40	; 0x28
{
 8001338:	b082      	sub	sp, #8
    if (rate > 40)
 800133a:	f200 80ac 	bhi.w	8001496 <mpu_lp_accel_mode+0x162>
 800133e:	4c5b      	ldr	r4, [pc, #364]	; (80014ac <mpu_lp_accel_mode+0x178>)
 8001340:	4605      	mov	r5, r0
 8001342:	f894 3023 	ldrb.w	r3, [r4, #35]	; 0x23
    if (!rate) {
 8001346:	b9b8      	cbnz	r0, 8001378 <mpu_lp_accel_mode+0x44>
 *  @return     0 if successful.
 */
int mpu_set_int_latched(unsigned char enable)
{
    unsigned char tmp;
    if (st.chip_cfg.latched_int == enable)
 8001348:	2b00      	cmp	r3, #0
 800134a:	f040 8082 	bne.w	8001452 <mpu_lp_accel_mode+0x11e>
 800134e:	ae01      	add	r6, sp, #4
        tmp[0] = 0;
 8001350:	f44f 63e0 	mov.w	r3, #1792	; 0x700
        if (i2c_write(st.hw->addr, st.reg->pwr_mgmt_1, 2, tmp))
 8001354:	e9d4 1200 	ldrd	r1, r2, [r4]
        tmp[0] = 0;
 8001358:	f8ad 3004 	strh.w	r3, [sp, #4]
        if (i2c_write(st.hw->addr, st.reg->pwr_mgmt_1, 2, tmp))
 800135c:	7810      	ldrb	r0, [r2, #0]
 800135e:	4633      	mov	r3, r6
 8001360:	7d49      	ldrb	r1, [r1, #21]
 8001362:	2202      	movs	r2, #2
 8001364:	f002 fe90 	bl	8004088 <i2c_write>
 8001368:	4605      	mov	r5, r0
 800136a:	2800      	cmp	r0, #0
 800136c:	f040 8093 	bne.w	8001496 <mpu_lp_accel_mode+0x162>
        st.chip_cfg.lp_accel_mode = 0;
 8001370:	7520      	strb	r0, [r4, #20]
}
 8001372:	4628      	mov	r0, r5
 8001374:	b002      	add	sp, #8
 8001376:	bd70      	pop	{r4, r5, r6, pc}
    if (st.chip_cfg.latched_int == enable)
 8001378:	2b01      	cmp	r3, #1
 800137a:	d142      	bne.n	8001402 <mpu_lp_accel_mode+0xce>
 800137c:	ae01      	add	r6, sp, #4
    if (rate == 1)
 800137e:	2d01      	cmp	r5, #1
 8001380:	d05a      	beq.n	8001438 <mpu_lp_accel_mode+0x104>
    else if (rate == 2)
 8001382:	2d02      	cmp	r5, #2
 8001384:	f000 8081 	beq.w	800148a <mpu_lp_accel_mode+0x156>
    else if (rate <= 5)
 8001388:	2d05      	cmp	r5, #5
 800138a:	d95e      	bls.n	800144a <mpu_lp_accel_mode+0x116>
    else if (rate <= 10)
 800138c:	2d0a      	cmp	r5, #10
 800138e:	f200 8085 	bhi.w	800149c <mpu_lp_accel_mode+0x168>
        tmp[0] = INV_LPA_10HZ;
 8001392:	2305      	movs	r3, #5
 8001394:	f88d 3004 	strb.w	r3, [sp, #4]
    if (i2c_write(st.hw->addr, st.reg->lp_accel_odr, 1, tmp))
 8001398:	e9d4 2300 	ldrd	r2, r3, [r4]
 800139c:	7a51      	ldrb	r1, [r2, #9]
 800139e:	7818      	ldrb	r0, [r3, #0]
 80013a0:	2201      	movs	r2, #1
 80013a2:	4633      	mov	r3, r6
 80013a4:	f002 fe70 	bl	8004088 <i2c_write>
 80013a8:	2800      	cmp	r0, #0
 80013aa:	d174      	bne.n	8001496 <mpu_lp_accel_mode+0x162>
    if (i2c_write(st.hw->addr, st.reg->pwr_mgmt_1, 1, tmp))
 80013ac:	e9d4 1200 	ldrd	r1, r2, [r4]
    tmp[0] = BIT_LPA_CYCLE;
 80013b0:	2320      	movs	r3, #32
 80013b2:	f88d 3004 	strb.w	r3, [sp, #4]
    if (i2c_write(st.hw->addr, st.reg->pwr_mgmt_1, 1, tmp))
 80013b6:	7810      	ldrb	r0, [r2, #0]
 80013b8:	4633      	mov	r3, r6
 80013ba:	7d49      	ldrb	r1, [r1, #21]
 80013bc:	2201      	movs	r2, #1
 80013be:	f002 fe63 	bl	8004088 <i2c_write>
 80013c2:	4605      	mov	r5, r0
 80013c4:	2800      	cmp	r0, #0
 80013c6:	d166      	bne.n	8001496 <mpu_lp_accel_mode+0x162>
    st.chip_cfg.sensors = INV_XYZ_ACCEL;
 80013c8:	2108      	movs	r1, #8
    st.chip_cfg.lp_accel_mode = 1;
 80013ca:	2201      	movs	r2, #1
    if (st.chip_cfg.dmp_on)
 80013cc:	f894 3024 	ldrb.w	r3, [r4, #36]	; 0x24
    st.chip_cfg.clk_src = 0;
 80013d0:	7320      	strb	r0, [r4, #12]
    st.chip_cfg.sensors = INV_XYZ_ACCEL;
 80013d2:	72a1      	strb	r1, [r4, #10]
    st.chip_cfg.lp_accel_mode = 1;
 80013d4:	7522      	strb	r2, [r4, #20]
    if (st.chip_cfg.dmp_on)
 80013d6:	2b00      	cmp	r3, #0
 80013d8:	d1cb      	bne.n	8001372 <mpu_lp_accel_mode+0x3e>
        if (enable && st.chip_cfg.int_enable)
 80013da:	7c63      	ldrb	r3, [r4, #17]
        st.chip_cfg.fifo_enable = sensors & st.chip_cfg.sensors;
 80013dc:	7420      	strb	r0, [r4, #16]
        if (enable && st.chip_cfg.int_enable)
 80013de:	2b00      	cmp	r3, #0
 80013e0:	d1c7      	bne.n	8001372 <mpu_lp_accel_mode+0x3e>
            tmp = BIT_DATA_RDY_EN;
 80013e2:	eb0d 0301 	add.w	r3, sp, r1
 80013e6:	f803 2d05 	strb.w	r2, [r3, #-5]!
        if (i2c_write(st.hw->addr, st.reg->int_enable, 1, &tmp))
 80013ea:	e9d4 1000 	ldrd	r1, r0, [r4]
 80013ee:	7800      	ldrb	r0, [r0, #0]
 80013f0:	7c49      	ldrb	r1, [r1, #17]
 80013f2:	f002 fe49 	bl	8004088 <i2c_write>
 80013f6:	2800      	cmp	r0, #0
 80013f8:	d1bb      	bne.n	8001372 <mpu_lp_accel_mode+0x3e>
        st.chip_cfg.int_enable = tmp;
 80013fa:	f89d 3003 	ldrb.w	r3, [sp, #3]
 80013fe:	7463      	strb	r3, [r4, #17]
 8001400:	e7b7      	b.n	8001372 <mpu_lp_accel_mode+0x3e>
        return 0;

    if (enable)
        tmp = BIT_LATCH_EN | BIT_ANY_RD_CLR;
 8001402:	2230      	movs	r2, #48	; 0x30
    else
        tmp = 0;
    if (st.chip_cfg.bypass_mode)
 8001404:	7ca3      	ldrb	r3, [r4, #18]
        tmp = BIT_LATCH_EN | BIT_ANY_RD_CLR;
 8001406:	f88d 2004 	strb.w	r2, [sp, #4]
    if (st.chip_cfg.bypass_mode)
 800140a:	b9cb      	cbnz	r3, 8001440 <mpu_lp_accel_mode+0x10c>
 800140c:	22b0      	movs	r2, #176	; 0xb0
        tmp |= BIT_BYPASS_EN;
    if (st.chip_cfg.active_low_int)
 800140e:	f894 3022 	ldrb.w	r3, [r4, #34]	; 0x22
 8001412:	b10b      	cbz	r3, 8001418 <mpu_lp_accel_mode+0xe4>
        tmp |= BIT_ACTL;
 8001414:	f88d 2004 	strb.w	r2, [sp, #4]
    if (i2c_write(st.hw->addr, st.reg->int_pin_cfg, 1, &tmp))
 8001418:	ae01      	add	r6, sp, #4
 800141a:	e9d4 2300 	ldrd	r2, r3, [r4]
 800141e:	7dd1      	ldrb	r1, [r2, #23]
 8001420:	7818      	ldrb	r0, [r3, #0]
 8001422:	2201      	movs	r2, #1
 8001424:	4633      	mov	r3, r6
 8001426:	f002 fe2f 	bl	8004088 <i2c_write>
 800142a:	2800      	cmp	r0, #0
 800142c:	d1a7      	bne.n	800137e <mpu_lp_accel_mode+0x4a>
        return -1;
    st.chip_cfg.latched_int = enable;
 800142e:	2301      	movs	r3, #1
    if (rate == 1)
 8001430:	2d01      	cmp	r5, #1
    st.chip_cfg.latched_int = enable;
 8001432:	f884 3023 	strb.w	r3, [r4, #35]	; 0x23
    if (rate == 1)
 8001436:	d1a4      	bne.n	8001382 <mpu_lp_accel_mode+0x4e>
        tmp[0] = INV_LPA_1_25HZ;
 8001438:	2302      	movs	r3, #2
 800143a:	f88d 3004 	strb.w	r3, [sp, #4]
 800143e:	e7ab      	b.n	8001398 <mpu_lp_accel_mode+0x64>
        tmp |= BIT_BYPASS_EN;
 8001440:	2332      	movs	r3, #50	; 0x32
 8001442:	22b2      	movs	r2, #178	; 0xb2
 8001444:	f88d 3004 	strb.w	r3, [sp, #4]
 8001448:	e7e1      	b.n	800140e <mpu_lp_accel_mode+0xda>
        tmp[0] = INV_LPA_5HZ;
 800144a:	2304      	movs	r3, #4
 800144c:	f88d 3004 	strb.w	r3, [sp, #4]
 8001450:	e7a2      	b.n	8001398 <mpu_lp_accel_mode+0x64>
    if (st.chip_cfg.bypass_mode)
 8001452:	7ca3      	ldrb	r3, [r4, #18]
        tmp = 0;
 8001454:	f88d 0004 	strb.w	r0, [sp, #4]
    if (st.chip_cfg.bypass_mode)
 8001458:	b1db      	cbz	r3, 8001492 <mpu_lp_accel_mode+0x15e>
        tmp |= BIT_BYPASS_EN;
 800145a:	2302      	movs	r3, #2
 800145c:	2282      	movs	r2, #130	; 0x82
 800145e:	f88d 3004 	strb.w	r3, [sp, #4]
    if (st.chip_cfg.active_low_int)
 8001462:	f894 3022 	ldrb.w	r3, [r4, #34]	; 0x22
 8001466:	b10b      	cbz	r3, 800146c <mpu_lp_accel_mode+0x138>
        tmp |= BIT_ACTL;
 8001468:	f88d 2004 	strb.w	r2, [sp, #4]
    if (i2c_write(st.hw->addr, st.reg->int_pin_cfg, 1, &tmp))
 800146c:	ae01      	add	r6, sp, #4
 800146e:	e9d4 2300 	ldrd	r2, r3, [r4]
 8001472:	7dd1      	ldrb	r1, [r2, #23]
 8001474:	7818      	ldrb	r0, [r3, #0]
 8001476:	2201      	movs	r2, #1
 8001478:	4633      	mov	r3, r6
 800147a:	f002 fe05 	bl	8004088 <i2c_write>
 800147e:	2800      	cmp	r0, #0
 8001480:	f47f af66 	bne.w	8001350 <mpu_lp_accel_mode+0x1c>
    st.chip_cfg.latched_int = enable;
 8001484:	f884 0023 	strb.w	r0, [r4, #35]	; 0x23
 8001488:	e762      	b.n	8001350 <mpu_lp_accel_mode+0x1c>
        tmp[0] = INV_LPA_2_5HZ;
 800148a:	2303      	movs	r3, #3
 800148c:	f88d 3004 	strb.w	r3, [sp, #4]
 8001490:	e782      	b.n	8001398 <mpu_lp_accel_mode+0x64>
    if (st.chip_cfg.bypass_mode)
 8001492:	2280      	movs	r2, #128	; 0x80
 8001494:	e7e5      	b.n	8001462 <mpu_lp_accel_mode+0x12e>
        return -1;
 8001496:	f04f 35ff 	mov.w	r5, #4294967295
 800149a:	e76a      	b.n	8001372 <mpu_lp_accel_mode+0x3e>
    else if (rate <= 20)
 800149c:	2d14      	cmp	r5, #20
        tmp[0] = INV_LPA_20HZ;
 800149e:	bf94      	ite	ls
 80014a0:	2306      	movls	r3, #6
        tmp[0] = INV_LPA_40HZ;
 80014a2:	2307      	movhi	r3, #7
 80014a4:	f88d 3004 	strb.w	r3, [sp, #4]
 80014a8:	e776      	b.n	8001398 <mpu_lp_accel_mode+0x64>
 80014aa:	bf00      	nop
 80014ac:	20000000 	.word	0x20000000

080014b0 <mpu_set_sample_rate>:
{
 80014b0:	b570      	push	{r4, r5, r6, lr}
    if (!(st.chip_cfg.sensors))
 80014b2:	4c62      	ldr	r4, [pc, #392]	; (800163c <mpu_set_sample_rate+0x18c>)
{
 80014b4:	b082      	sub	sp, #8
    if (!(st.chip_cfg.sensors))
 80014b6:	7aa3      	ldrb	r3, [r4, #10]
 80014b8:	2b00      	cmp	r3, #0
 80014ba:	f000 80af 	beq.w	800161c <mpu_set_sample_rate+0x16c>
    if (st.chip_cfg.dmp_on)
 80014be:	f894 6024 	ldrb.w	r6, [r4, #36]	; 0x24
 80014c2:	2e00      	cmp	r6, #0
 80014c4:	f040 80aa 	bne.w	800161c <mpu_set_sample_rate+0x16c>
        if (st.chip_cfg.lp_accel_mode) {
 80014c8:	7d23      	ldrb	r3, [r4, #20]
 80014ca:	4605      	mov	r5, r0
 80014cc:	2b00      	cmp	r3, #0
 80014ce:	d15a      	bne.n	8001586 <mpu_set_sample_rate+0xd6>
        if (i2c_write(st.hw->addr, st.reg->rate_div, 1, &data))
 80014d0:	e9d4 1000 	ldrd	r1, r0, [r4]
 80014d4:	f5b5 7f7a 	cmp.w	r5, #1000	; 0x3e8
 80014d8:	462a      	mov	r2, r5
 80014da:	bf28      	it	cs
 80014dc:	f44f 727a 	movcs.w	r2, #1000	; 0x3e8
        data = 1000 / rate - 1;
 80014e0:	2a04      	cmp	r2, #4
 80014e2:	bf38      	it	cc
 80014e4:	2204      	movcc	r2, #4
 80014e6:	f44f 757a 	mov.w	r5, #1000	; 0x3e8
 80014ea:	fb95 f2f2 	sdiv	r2, r5, r2
 80014ee:	ab02      	add	r3, sp, #8
 80014f0:	3a01      	subs	r2, #1
 80014f2:	f803 2d05 	strb.w	r2, [r3, #-5]!
        if (i2c_write(st.hw->addr, st.reg->rate_div, 1, &data))
 80014f6:	7800      	ldrb	r0, [r0, #0]
 80014f8:	7849      	ldrb	r1, [r1, #1]
 80014fa:	2201      	movs	r2, #1
 80014fc:	f002 fdc4 	bl	8004088 <i2c_write>
 8001500:	4606      	mov	r6, r0
 8001502:	2800      	cmp	r0, #0
 8001504:	f040 808a 	bne.w	800161c <mpu_set_sample_rate+0x16c>
        st.chip_cfg.sample_rate = 1000 / (1 + data);
 8001508:	f89d 3003 	ldrb.w	r3, [sp, #3]
        mpu_set_compass_sample_rate(min(st.chip_cfg.compass_sample_rate, MAX_COMPASS_SAMPLE_RATE));
 800150c:	8d21      	ldrh	r1, [r4, #40]	; 0x28
        st.chip_cfg.sample_rate = 1000 / (1 + data);
 800150e:	3301      	adds	r3, #1
 8001510:	fb95 f3f3 	sdiv	r3, r5, r3
        mpu_set_compass_sample_rate(min(st.chip_cfg.compass_sample_rate, MAX_COMPASS_SAMPLE_RATE));
 8001514:	2964      	cmp	r1, #100	; 0x64
 8001516:	460a      	mov	r2, r1
        st.chip_cfg.sample_rate = 1000 / (1 + data);
 8001518:	81e3      	strh	r3, [r4, #14]
        mpu_set_compass_sample_rate(min(st.chip_cfg.compass_sample_rate, MAX_COMPASS_SAMPLE_RATE));
 800151a:	bf28      	it	cs
 800151c:	2264      	movcs	r2, #100	; 0x64
    if (!rate || rate > st.chip_cfg.sample_rate || rate > MAX_COMPASS_SAMPLE_RATE)
 800151e:	b1c1      	cbz	r1, 8001552 <mpu_set_sample_rate+0xa2>
 8001520:	4293      	cmp	r3, r2
 8001522:	d316      	bcc.n	8001552 <mpu_set_sample_rate+0xa2>
    if (i2c_write(st.hw->addr, st.reg->s4_ctrl, 1, &div))
 8001524:	e9d4 1000 	ldrd	r1, r0, [r4]
    div = st.chip_cfg.sample_rate / rate - 1;
 8001528:	fbb3 f2f2 	udiv	r2, r3, r2
 800152c:	ab02      	add	r3, sp, #8
 800152e:	3a01      	subs	r2, #1
 8001530:	f803 2d04 	strb.w	r2, [r3, #-4]!
    if (i2c_write(st.hw->addr, st.reg->s4_ctrl, 1, &div))
 8001534:	f891 1024 	ldrb.w	r1, [r1, #36]	; 0x24
 8001538:	7800      	ldrb	r0, [r0, #0]
 800153a:	2201      	movs	r2, #1
 800153c:	f002 fda4 	bl	8004088 <i2c_write>
 8001540:	2800      	cmp	r0, #0
 8001542:	d179      	bne.n	8001638 <mpu_set_sample_rate+0x188>
    st.chip_cfg.compass_sample_rate = st.chip_cfg.sample_rate / (div + 1);
 8001544:	f89d 2004 	ldrb.w	r2, [sp, #4]
 8001548:	89e3      	ldrh	r3, [r4, #14]
 800154a:	3201      	adds	r2, #1
 800154c:	fb93 f2f2 	sdiv	r2, r3, r2
 8001550:	8522      	strh	r2, [r4, #40]	; 0x28
    if (!(st.chip_cfg.sensors))
 8001552:	7aa2      	ldrb	r2, [r4, #10]
        mpu_set_lpf(st.chip_cfg.sample_rate >> 1);
 8001554:	085b      	lsrs	r3, r3, #1
    if (!(st.chip_cfg.sensors))
 8001556:	b19a      	cbz	r2, 8001580 <mpu_set_sample_rate+0xd0>
    if (lpf >= 188)
 8001558:	2bbb      	cmp	r3, #187	; 0xbb
 800155a:	d92b      	bls.n	80015b4 <mpu_set_sample_rate+0x104>
        data = INV_FILTER_188HZ;
 800155c:	2301      	movs	r3, #1
 800155e:	f88d 3004 	strb.w	r3, [sp, #4]
    if (st.chip_cfg.lpf == data)
 8001562:	7ae2      	ldrb	r2, [r4, #11]
 8001564:	429a      	cmp	r2, r3
 8001566:	d00b      	beq.n	8001580 <mpu_set_sample_rate+0xd0>
    if (i2c_write(st.hw->addr, st.reg->lpf, 1, &data))
 8001568:	e9d4 2300 	ldrd	r2, r3, [r4]
 800156c:	7891      	ldrb	r1, [r2, #2]
 800156e:	7818      	ldrb	r0, [r3, #0]
 8001570:	2201      	movs	r2, #1
 8001572:	ab01      	add	r3, sp, #4
 8001574:	f002 fd88 	bl	8004088 <i2c_write>
 8001578:	b910      	cbnz	r0, 8001580 <mpu_set_sample_rate+0xd0>
    st.chip_cfg.lpf = data;
 800157a:	f89d 3004 	ldrb.w	r3, [sp, #4]
 800157e:	72e3      	strb	r3, [r4, #11]
}
 8001580:	4630      	mov	r0, r6
 8001582:	b002      	add	sp, #8
 8001584:	bd70      	pop	{r4, r5, r6, pc}
            if (rate && (rate <= 40)) {
 8001586:	1e43      	subs	r3, r0, #1
 8001588:	2b27      	cmp	r3, #39	; 0x27
 800158a:	d91b      	bls.n	80015c4 <mpu_set_sample_rate+0x114>
    if (st.chip_cfg.latched_int == enable)
 800158c:	f894 3023 	ldrb.w	r3, [r4, #35]	; 0x23
 8001590:	bb0b      	cbnz	r3, 80015d6 <mpu_set_sample_rate+0x126>
 8001592:	ae01      	add	r6, sp, #4
        tmp[0] = 0;
 8001594:	f44f 63e0 	mov.w	r3, #1792	; 0x700
        if (i2c_write(st.hw->addr, st.reg->pwr_mgmt_1, 2, tmp))
 8001598:	e9d4 1200 	ldrd	r1, r2, [r4]
        tmp[0] = 0;
 800159c:	f8ad 3004 	strh.w	r3, [sp, #4]
        if (i2c_write(st.hw->addr, st.reg->pwr_mgmt_1, 2, tmp))
 80015a0:	7810      	ldrb	r0, [r2, #0]
 80015a2:	4633      	mov	r3, r6
 80015a4:	7d49      	ldrb	r1, [r1, #21]
 80015a6:	2202      	movs	r2, #2
 80015a8:	f002 fd6e 	bl	8004088 <i2c_write>
 80015ac:	2800      	cmp	r0, #0
 80015ae:	d18f      	bne.n	80014d0 <mpu_set_sample_rate+0x20>
        st.chip_cfg.lp_accel_mode = 0;
 80015b0:	7520      	strb	r0, [r4, #20]
 80015b2:	e78d      	b.n	80014d0 <mpu_set_sample_rate+0x20>
    else if (lpf >= 98)
 80015b4:	2b61      	cmp	r3, #97	; 0x61
 80015b6:	d80a      	bhi.n	80015ce <mpu_set_sample_rate+0x11e>
    else if (lpf >= 42)
 80015b8:	2b29      	cmp	r3, #41	; 0x29
 80015ba:	d927      	bls.n	800160c <mpu_set_sample_rate+0x15c>
        data = INV_FILTER_42HZ;
 80015bc:	2303      	movs	r3, #3
 80015be:	f88d 3004 	strb.w	r3, [sp, #4]
 80015c2:	e7ce      	b.n	8001562 <mpu_set_sample_rate+0xb2>
                mpu_lp_accel_mode(rate);
 80015c4:	f7ff feb6 	bl	8001334 <mpu_lp_accel_mode>
}
 80015c8:	4630      	mov	r0, r6
 80015ca:	b002      	add	sp, #8
 80015cc:	bd70      	pop	{r4, r5, r6, pc}
        data = INV_FILTER_98HZ;
 80015ce:	2302      	movs	r3, #2
 80015d0:	f88d 3004 	strb.w	r3, [sp, #4]
 80015d4:	e7c5      	b.n	8001562 <mpu_set_sample_rate+0xb2>
    if (st.chip_cfg.bypass_mode)
 80015d6:	7ca3      	ldrb	r3, [r4, #18]
        tmp = 0;
 80015d8:	f88d 6004 	strb.w	r6, [sp, #4]
    if (st.chip_cfg.bypass_mode)
 80015dc:	b32b      	cbz	r3, 800162a <mpu_set_sample_rate+0x17a>
        tmp |= BIT_BYPASS_EN;
 80015de:	2302      	movs	r3, #2
 80015e0:	2282      	movs	r2, #130	; 0x82
 80015e2:	f88d 3004 	strb.w	r3, [sp, #4]
    if (st.chip_cfg.active_low_int)
 80015e6:	f894 3022 	ldrb.w	r3, [r4, #34]	; 0x22
 80015ea:	b10b      	cbz	r3, 80015f0 <mpu_set_sample_rate+0x140>
        tmp |= BIT_ACTL;
 80015ec:	f88d 2004 	strb.w	r2, [sp, #4]
    if (i2c_write(st.hw->addr, st.reg->int_pin_cfg, 1, &tmp))
 80015f0:	ae01      	add	r6, sp, #4
 80015f2:	e9d4 2300 	ldrd	r2, r3, [r4]
 80015f6:	7dd1      	ldrb	r1, [r2, #23]
 80015f8:	7818      	ldrb	r0, [r3, #0]
 80015fa:	2201      	movs	r2, #1
 80015fc:	4633      	mov	r3, r6
 80015fe:	f002 fd43 	bl	8004088 <i2c_write>
 8001602:	2800      	cmp	r0, #0
 8001604:	d1c6      	bne.n	8001594 <mpu_set_sample_rate+0xe4>
    st.chip_cfg.latched_int = enable;
 8001606:	f884 0023 	strb.w	r0, [r4, #35]	; 0x23
 800160a:	e7c3      	b.n	8001594 <mpu_set_sample_rate+0xe4>
    else if (lpf >= 20)
 800160c:	2b13      	cmp	r3, #19
 800160e:	d808      	bhi.n	8001622 <mpu_set_sample_rate+0x172>
    else if (lpf >= 10)
 8001610:	2b09      	cmp	r3, #9
 8001612:	d90c      	bls.n	800162e <mpu_set_sample_rate+0x17e>
        data = INV_FILTER_10HZ;
 8001614:	2305      	movs	r3, #5
 8001616:	f88d 3004 	strb.w	r3, [sp, #4]
 800161a:	e7a2      	b.n	8001562 <mpu_set_sample_rate+0xb2>
        return -1;
 800161c:	f04f 36ff 	mov.w	r6, #4294967295
 8001620:	e7ae      	b.n	8001580 <mpu_set_sample_rate+0xd0>
        data = INV_FILTER_20HZ;
 8001622:	2304      	movs	r3, #4
 8001624:	f88d 3004 	strb.w	r3, [sp, #4]
 8001628:	e79b      	b.n	8001562 <mpu_set_sample_rate+0xb2>
    if (st.chip_cfg.bypass_mode)
 800162a:	2280      	movs	r2, #128	; 0x80
 800162c:	e7db      	b.n	80015e6 <mpu_set_sample_rate+0x136>
        data = INV_FILTER_5HZ;
 800162e:	2206      	movs	r2, #6
 8001630:	4613      	mov	r3, r2
 8001632:	f88d 2004 	strb.w	r2, [sp, #4]
 8001636:	e794      	b.n	8001562 <mpu_set_sample_rate+0xb2>
 8001638:	89e3      	ldrh	r3, [r4, #14]
 800163a:	e78a      	b.n	8001552 <mpu_set_sample_rate+0xa2>
 800163c:	20000000 	.word	0x20000000

08001640 <mpu_set_sensors>:
{
 8001640:	b5f0      	push	{r4, r5, r6, r7, lr}
 8001642:	4605      	mov	r5, r0
 8001644:	4c76      	ldr	r4, [pc, #472]	; (8001820 <mpu_set_sensors+0x1e0>)
 8001646:	b083      	sub	sp, #12
 8001648:	e9d4 3200 	ldrd	r3, r2, [r4]
 800164c:	7d59      	ldrb	r1, [r3, #21]
    if (sensors & INV_XYZ_GYRO)
 800164e:	f015 0370 	ands.w	r3, r5, #112	; 0x70
 8001652:	7810      	ldrb	r0, [r2, #0]
 8001654:	d07d      	beq.n	8001752 <mpu_set_sensors+0x112>
        data = INV_CLK_PLL;
 8001656:	2301      	movs	r3, #1
 8001658:	f88d 3006 	strb.w	r3, [sp, #6]
    if (i2c_write(st.hw->addr, st.reg->pwr_mgmt_1, 1, &data)) {
 800165c:	f10d 0606 	add.w	r6, sp, #6
 8001660:	4633      	mov	r3, r6
 8001662:	2201      	movs	r2, #1
 8001664:	f002 fd10 	bl	8004088 <i2c_write>
 8001668:	2800      	cmp	r0, #0
 800166a:	f040 80d3 	bne.w	8001814 <mpu_set_sensors+0x1d4>
    st.chip_cfg.clk_src = data & ~BIT_SLEEP;
 800166e:	f89d 3006 	ldrb.w	r3, [sp, #6]
    data = 0;
 8001672:	f88d 0006 	strb.w	r0, [sp, #6]
    st.chip_cfg.clk_src = data & ~BIT_SLEEP;
 8001676:	f023 0340 	bic.w	r3, r3, #64	; 0x40
 800167a:	7323      	strb	r3, [r4, #12]
    if (!(sensors & INV_X_GYRO))
 800167c:	066b      	lsls	r3, r5, #25
 800167e:	d578      	bpl.n	8001772 <mpu_set_sensors+0x132>
 8001680:	2338      	movs	r3, #56	; 0x38
 8001682:	2139      	movs	r1, #57	; 0x39
 8001684:	2201      	movs	r2, #1
 8001686:	f04f 0e3a 	mov.w	lr, #58	; 0x3a
 800168a:	f04f 0c3b 	mov.w	ip, #59	; 0x3b
 800168e:	2703      	movs	r7, #3
 8001690:	2002      	movs	r0, #2
    if (!(sensors & INV_Y_GYRO))
 8001692:	f015 0f20 	tst.w	r5, #32
 8001696:	d104      	bne.n	80016a2 <mpu_set_sensors+0x62>
        data |= BIT_STBY_YG;
 8001698:	4673      	mov	r3, lr
 800169a:	4661      	mov	r1, ip
 800169c:	463a      	mov	r2, r7
 800169e:	f88d 0006 	strb.w	r0, [sp, #6]
    if (!(sensors & INV_Z_GYRO))
 80016a2:	06e8      	lsls	r0, r5, #27
        data |= BIT_STBY_ZG;
 80016a4:	bf5c      	itt	pl
 80016a6:	460b      	movpl	r3, r1
 80016a8:	f88d 2006 	strbpl.w	r2, [sp, #6]
    if (!(sensors & INV_XYZ_ACCEL))
 80016ac:	0729      	lsls	r1, r5, #28
        data |= BIT_STBY_XYZA;
 80016ae:	bf58      	it	pl
 80016b0:	f88d 3006 	strbpl.w	r3, [sp, #6]
    if (i2c_write(st.hw->addr, st.reg->pwr_mgmt_2, 1, &data)) {
 80016b4:	e9d4 2300 	ldrd	r2, r3, [r4]
 80016b8:	7d91      	ldrb	r1, [r2, #22]
 80016ba:	7818      	ldrb	r0, [r3, #0]
 80016bc:	2201      	movs	r2, #1
 80016be:	4633      	mov	r3, r6
 80016c0:	f002 fce2 	bl	8004088 <i2c_write>
 80016c4:	4602      	mov	r2, r0
 80016c6:	2800      	cmp	r0, #0
 80016c8:	f040 80a4 	bne.w	8001814 <mpu_set_sensors+0x1d4>
 80016cc:	e9d4 3100 	ldrd	r3, r1, [r4]
 80016d0:	7808      	ldrb	r0, [r1, #0]
    if (sensors && (sensors != INV_XYZ_ACCEL))
 80016d2:	2d00      	cmp	r5, #0
 80016d4:	d05d      	beq.n	8001792 <mpu_set_sensors+0x152>
 80016d6:	2d08      	cmp	r5, #8
 80016d8:	d071      	beq.n	80017be <mpu_set_sensors+0x17e>
    if (st.chip_cfg.latched_int == enable)
 80016da:	f894 1023 	ldrb.w	r1, [r4, #35]	; 0x23
 80016de:	2900      	cmp	r1, #0
 80016e0:	d17b      	bne.n	80017da <mpu_set_sensors+0x19a>
 80016e2:	f10d 0707 	add.w	r7, sp, #7
    if (i2c_read(st.hw->addr, st.reg->user_ctrl, 1, &user_ctrl))
 80016e6:	7919      	ldrb	r1, [r3, #4]
 80016e8:	2201      	movs	r2, #1
 80016ea:	463b      	mov	r3, r7
 80016ec:	f002 fcdc 	bl	80040a8 <i2c_read>
 80016f0:	2800      	cmp	r0, #0
 80016f2:	d16d      	bne.n	80017d0 <mpu_set_sensors+0x190>
    if (sensors & INV_XYZ_COMPASS) {
 80016f4:	07ea      	lsls	r2, r5, #31
 80016f6:	f89d 3007 	ldrb.w	r3, [sp, #7]
 80016fa:	d554      	bpl.n	80017a6 <mpu_set_sensors+0x166>
        data = AKM_SINGLE_MEASUREMENT;
 80016fc:	2111      	movs	r1, #17
    if (st.chip_cfg.dmp_on)
 80016fe:	f894 2024 	ldrb.w	r2, [r4, #36]	; 0x24
        user_ctrl |= BIT_AUX_IF_EN;
 8001702:	f043 0320 	orr.w	r3, r3, #32
 8001706:	f88d 1006 	strb.w	r1, [sp, #6]
    if (st.chip_cfg.dmp_on)
 800170a:	2a00      	cmp	r2, #0
 800170c:	d054      	beq.n	80017b8 <mpu_set_sensors+0x178>
        user_ctrl |= BIT_DMP_EN;
 800170e:	f043 0380 	orr.w	r3, r3, #128	; 0x80
 8001712:	f88d 3007 	strb.w	r3, [sp, #7]
    if (i2c_write(st.hw->addr, st.reg->s1_do, 1, &data))
 8001716:	e9d4 1200 	ldrd	r1, r2, [r4]
 800171a:	4633      	mov	r3, r6
 800171c:	7810      	ldrb	r0, [r2, #0]
 800171e:	f891 1026 	ldrb.w	r1, [r1, #38]	; 0x26
 8001722:	2201      	movs	r2, #1
 8001724:	f002 fcb0 	bl	8004088 <i2c_write>
 8001728:	2800      	cmp	r0, #0
 800172a:	d151      	bne.n	80017d0 <mpu_set_sensors+0x190>
    if (i2c_write(st.hw->addr, st.reg->user_ctrl, 1, &user_ctrl))
 800172c:	e9d4 1200 	ldrd	r1, r2, [r4]
 8001730:	463b      	mov	r3, r7
 8001732:	7810      	ldrb	r0, [r2, #0]
 8001734:	7909      	ldrb	r1, [r1, #4]
 8001736:	2201      	movs	r2, #1
 8001738:	f002 fca6 	bl	8004088 <i2c_write>
 800173c:	4606      	mov	r6, r0
 800173e:	2800      	cmp	r0, #0
 8001740:	d146      	bne.n	80017d0 <mpu_set_sensors+0x190>
    delay_ms(50);
 8001742:	2032      	movs	r0, #50	; 0x32
    st.chip_cfg.sensors = sensors;
 8001744:	72a5      	strb	r5, [r4, #10]
    st.chip_cfg.lp_accel_mode = 0;
 8001746:	7526      	strb	r6, [r4, #20]
    delay_ms(50);
 8001748:	f002 fcbe 	bl	80040c8 <delay_ms>
}
 800174c:	4630      	mov	r0, r6
 800174e:	b003      	add	sp, #12
 8001750:	bdf0      	pop	{r4, r5, r6, r7, pc}
    else if (sensors)
 8001752:	b9dd      	cbnz	r5, 800178c <mpu_set_sensors+0x14c>
        data = BIT_SLEEP;
 8001754:	2340      	movs	r3, #64	; 0x40
 8001756:	ae02      	add	r6, sp, #8
 8001758:	f806 3d02 	strb.w	r3, [r6, #-2]!
    if (i2c_write(st.hw->addr, st.reg->pwr_mgmt_1, 1, &data)) {
 800175c:	4633      	mov	r3, r6
 800175e:	2201      	movs	r2, #1
 8001760:	f002 fc92 	bl	8004088 <i2c_write>
 8001764:	2800      	cmp	r0, #0
 8001766:	d155      	bne.n	8001814 <mpu_set_sensors+0x1d4>
    st.chip_cfg.clk_src = data & ~BIT_SLEEP;
 8001768:	f89d 3006 	ldrb.w	r3, [sp, #6]
 800176c:	f023 0340 	bic.w	r3, r3, #64	; 0x40
 8001770:	7323      	strb	r3, [r4, #12]
        data |= BIT_STBY_XG;
 8001772:	2204      	movs	r2, #4
 8001774:	233c      	movs	r3, #60	; 0x3c
 8001776:	f88d 2006 	strb.w	r2, [sp, #6]
 800177a:	213d      	movs	r1, #61	; 0x3d
 800177c:	2205      	movs	r2, #5
 800177e:	f04f 0e3e 	mov.w	lr, #62	; 0x3e
 8001782:	f04f 0c3f 	mov.w	ip, #63	; 0x3f
 8001786:	2707      	movs	r7, #7
 8001788:	2006      	movs	r0, #6
 800178a:	e782      	b.n	8001692 <mpu_set_sensors+0x52>
        data = 0;
 800178c:	f88d 3006 	strb.w	r3, [sp, #6]
 8001790:	e764      	b.n	800165c <mpu_set_sensors+0x1c>
    if (i2c_read(st.hw->addr, st.reg->user_ctrl, 1, &user_ctrl))
 8001792:	f10d 0707 	add.w	r7, sp, #7
 8001796:	7919      	ldrb	r1, [r3, #4]
 8001798:	2201      	movs	r2, #1
 800179a:	463b      	mov	r3, r7
 800179c:	f002 fc84 	bl	80040a8 <i2c_read>
 80017a0:	b9b0      	cbnz	r0, 80017d0 <mpu_set_sensors+0x190>
 80017a2:	f89d 3007 	ldrb.w	r3, [sp, #7]
        data = AKM_POWER_DOWN;
 80017a6:	2110      	movs	r1, #16
    if (st.chip_cfg.dmp_on)
 80017a8:	f894 2024 	ldrb.w	r2, [r4, #36]	; 0x24
        user_ctrl &= ~BIT_AUX_IF_EN;
 80017ac:	f003 03df 	and.w	r3, r3, #223	; 0xdf
 80017b0:	f88d 1006 	strb.w	r1, [sp, #6]
    if (st.chip_cfg.dmp_on)
 80017b4:	2a00      	cmp	r2, #0
 80017b6:	d1aa      	bne.n	800170e <mpu_set_sensors+0xce>
        user_ctrl &= ~BIT_DMP_EN;
 80017b8:	f003 037f 	and.w	r3, r3, #127	; 0x7f
 80017bc:	e7a9      	b.n	8001712 <mpu_set_sensors+0xd2>
    if (i2c_read(st.hw->addr, st.reg->user_ctrl, 1, &user_ctrl))
 80017be:	f10d 0707 	add.w	r7, sp, #7
 80017c2:	7919      	ldrb	r1, [r3, #4]
 80017c4:	2201      	movs	r2, #1
 80017c6:	463b      	mov	r3, r7
 80017c8:	f002 fc6e 	bl	80040a8 <i2c_read>
 80017cc:	2800      	cmp	r0, #0
 80017ce:	d0e8      	beq.n	80017a2 <mpu_set_sensors+0x162>
        return -1;
 80017d0:	f04f 36ff 	mov.w	r6, #4294967295
}
 80017d4:	4630      	mov	r0, r6
 80017d6:	b003      	add	sp, #12
 80017d8:	bdf0      	pop	{r4, r5, r6, r7, pc}
    if (st.chip_cfg.bypass_mode)
 80017da:	7ca1      	ldrb	r1, [r4, #18]
        tmp = 0;
 80017dc:	f88d 2007 	strb.w	r2, [sp, #7]
    if (st.chip_cfg.bypass_mode)
 80017e0:	b1b1      	cbz	r1, 8001810 <mpu_set_sensors+0x1d0>
        tmp |= BIT_BYPASS_EN;
 80017e2:	2202      	movs	r2, #2
 80017e4:	2182      	movs	r1, #130	; 0x82
 80017e6:	f88d 2007 	strb.w	r2, [sp, #7]
    if (st.chip_cfg.active_low_int)
 80017ea:	f894 2022 	ldrb.w	r2, [r4, #34]	; 0x22
 80017ee:	b10a      	cbz	r2, 80017f4 <mpu_set_sensors+0x1b4>
        tmp |= BIT_ACTL;
 80017f0:	f88d 1007 	strb.w	r1, [sp, #7]
    if (i2c_write(st.hw->addr, st.reg->int_pin_cfg, 1, &tmp))
 80017f4:	f10d 0707 	add.w	r7, sp, #7
 80017f8:	7dd9      	ldrb	r1, [r3, #23]
 80017fa:	2201      	movs	r2, #1
 80017fc:	463b      	mov	r3, r7
 80017fe:	f002 fc43 	bl	8004088 <i2c_write>
 8001802:	b908      	cbnz	r0, 8001808 <mpu_set_sensors+0x1c8>
    st.chip_cfg.latched_int = enable;
 8001804:	f884 0023 	strb.w	r0, [r4, #35]	; 0x23
 8001808:	e9d4 3200 	ldrd	r3, r2, [r4]
 800180c:	7810      	ldrb	r0, [r2, #0]
 800180e:	e76a      	b.n	80016e6 <mpu_set_sensors+0xa6>
    if (st.chip_cfg.bypass_mode)
 8001810:	2180      	movs	r1, #128	; 0x80
 8001812:	e7ea      	b.n	80017ea <mpu_set_sensors+0x1aa>
        st.chip_cfg.sensors = 0;
 8001814:	2300      	movs	r3, #0
        return -1;
 8001816:	f04f 36ff 	mov.w	r6, #4294967295
        st.chip_cfg.sensors = 0;
 800181a:	72a3      	strb	r3, [r4, #10]
        return -1;
 800181c:	e796      	b.n	800174c <mpu_set_sensors+0x10c>
 800181e:	bf00      	nop
 8001820:	20000000 	.word	0x20000000

08001824 <mpu_init>:
    data[0] = BIT_RESET;
 8001824:	2380      	movs	r3, #128	; 0x80
{
 8001826:	b5f0      	push	{r4, r5, r6, r7, lr}
 8001828:	b085      	sub	sp, #20
    data[0] = BIT_RESET;
 800182a:	ad04      	add	r5, sp, #16
    if (i2c_write(st.hw->addr, st.reg->pwr_mgmt_1, 1, data))
 800182c:	4c71      	ldr	r4, [pc, #452]	; (80019f4 <mpu_init+0x1d0>)
    data[0] = BIT_RESET;
 800182e:	f805 3d08 	strb.w	r3, [r5, #-8]!
    if (i2c_write(st.hw->addr, st.reg->pwr_mgmt_1, 1, data))
 8001832:	e9d4 2100 	ldrd	r2, r1, [r4]
 8001836:	462b      	mov	r3, r5
 8001838:	7808      	ldrb	r0, [r1, #0]
 800183a:	7d51      	ldrb	r1, [r2, #21]
 800183c:	2201      	movs	r2, #1
 800183e:	f002 fc23 	bl	8004088 <i2c_write>
 8001842:	2800      	cmp	r0, #0
 8001844:	f040 81a9 	bne.w	8001b9a <mpu_init+0x376>
 8001848:	4606      	mov	r6, r0
    delay_ms(100);
 800184a:	2064      	movs	r0, #100	; 0x64
 800184c:	f002 fc3c 	bl	80040c8 <delay_ms>
    if (i2c_write(st.hw->addr, st.reg->pwr_mgmt_1, 1, data))
 8001850:	e9d4 3200 	ldrd	r3, r2, [r4]
    data[0] = 0x00;
 8001854:	f88d 6008 	strb.w	r6, [sp, #8]
    if (i2c_write(st.hw->addr, st.reg->pwr_mgmt_1, 1, data))
 8001858:	7810      	ldrb	r0, [r2, #0]
 800185a:	7d59      	ldrb	r1, [r3, #21]
 800185c:	2201      	movs	r2, #1
 800185e:	462b      	mov	r3, r5
 8001860:	f002 fc12 	bl	8004088 <i2c_write>
 8001864:	2800      	cmp	r0, #0
 8001866:	f040 8198 	bne.w	8001b9a <mpu_init+0x376>
    if (i2c_write(st.hw->addr, st.reg->accel_cfg2, 1, data))
 800186a:	e9d4 2100 	ldrd	r2, r1, [r4]
    data[0] = BIT_FIFO_SIZE_1024 | 0x8;
 800186e:	2348      	movs	r3, #72	; 0x48
   st.chip_cfg.accel_half = 0;
 8001870:	74e0      	strb	r0, [r4, #19]
    data[0] = BIT_FIFO_SIZE_1024 | 0x8;
 8001872:	f88d 3008 	strb.w	r3, [sp, #8]
    if (i2c_write(st.hw->addr, st.reg->accel_cfg2, 1, data))
 8001876:	7808      	ldrb	r0, [r1, #0]
 8001878:	462b      	mov	r3, r5
 800187a:	7a11      	ldrb	r1, [r2, #8]
 800187c:	2201      	movs	r2, #1
 800187e:	f002 fc03 	bl	8004088 <i2c_write>
 8001882:	2800      	cmp	r0, #0
 8001884:	f040 8189 	bne.w	8001b9a <mpu_init+0x376>
    st.chip_cfg.sample_rate = 0xFFFF;
 8001888:	f64f 72ff 	movw	r2, #65535	; 0xffff
    st.chip_cfg.clk_src = INV_CLK_PLL;
 800188c:	2701      	movs	r7, #1
    st.chip_cfg.gyro_fsr = 0xFF;
 800188e:	f04f 36ff 	mov.w	r6, #4294967295
    st.chip_cfg.fifo_enable = 0xFF;
 8001892:	f04f 0eff 	mov.w	lr, #255	; 0xff
        data = INV_FSR_2000DPS << 3;
 8001896:	f04f 0c18 	mov.w	ip, #24
    st.chip_cfg.fifo_enable = 0xFF;
 800189a:	7422      	strb	r2, [r4, #16]
    st.chip_cfg.compass_sample_rate = 0xFFFF;
 800189c:	8522      	strh	r2, [r4, #40]	; 0x28
        data = INV_FSR_2000DPS << 3;
 800189e:	ad04      	add	r5, sp, #16
    if (i2c_write(st.hw->addr, st.reg->gyro_cfg, 1, &data))
 80018a0:	6862      	ldr	r2, [r4, #4]
 80018a2:	6821      	ldr	r1, [r4, #0]
        data = INV_FSR_2000DPS << 3;
 80018a4:	f805 cd0c 	strb.w	ip, [r5, #-12]!
    st.chip_cfg.lp_accel_mode = 0;
 80018a8:	82a0      	strh	r0, [r4, #20]
    memset(&st.chip_cfg.cache, 0, sizeof(st.chip_cfg.cache));
 80018aa:	f8c4 0016 	str.w	r0, [r4, #22]
    st.chip_cfg.dmp_on = 0;
 80018ae:	6260      	str	r0, [r4, #36]	; 0x24
    st.chip_cfg.gyro_fsr = 0xFF;
 80018b0:	60a6      	str	r6, [r4, #8]
    st.chip_cfg.sample_rate = 0xFFFF;
 80018b2:	81e6      	strh	r6, [r4, #14]
    st.chip_cfg.bypass_mode = 0xFF;
 80018b4:	f884 e012 	strb.w	lr, [r4, #18]
    st.chip_cfg.clk_src = INV_CLK_PLL;
 80018b8:	7327      	strb	r7, [r4, #12]
    st.chip_cfg.active_low_int = 1;
 80018ba:	8467      	strh	r7, [r4, #34]	; 0x22
    memset(&st.chip_cfg.cache, 0, sizeof(st.chip_cfg.cache));
 80018bc:	f8c4 001a 	str.w	r0, [r4, #26]
 80018c0:	f8c4 001e 	str.w	r0, [r4, #30]
    if (i2c_write(st.hw->addr, st.reg->gyro_cfg, 1, &data))
 80018c4:	7810      	ldrb	r0, [r2, #0]
 80018c6:	7989      	ldrb	r1, [r1, #6]
 80018c8:	462b      	mov	r3, r5
 80018ca:	463a      	mov	r2, r7
 80018cc:	f002 fbdc 	bl	8004088 <i2c_write>
 80018d0:	2800      	cmp	r0, #0
 80018d2:	f040 808b 	bne.w	80019ec <mpu_init+0x1c8>
    st.chip_cfg.gyro_fsr = data >> 3;
 80018d6:	f89d 3004 	ldrb.w	r3, [sp, #4]
    if (!(st.chip_cfg.sensors))
 80018da:	7aa2      	ldrb	r2, [r4, #10]
    st.chip_cfg.gyro_fsr = data >> 3;
 80018dc:	08db      	lsrs	r3, r3, #3
 80018de:	7223      	strb	r3, [r4, #8]
    if (!(st.chip_cfg.sensors))
 80018e0:	2a00      	cmp	r2, #0
 80018e2:	f000 815a 	beq.w	8001b9a <mpu_init+0x376>
    if (st.chip_cfg.accel_fsr == (data >> 3))
 80018e6:	7a63      	ldrb	r3, [r4, #9]
        data = INV_FSR_2G << 3;
 80018e8:	f88d 0004 	strb.w	r0, [sp, #4]
    if (st.chip_cfg.accel_fsr == (data >> 3))
 80018ec:	b193      	cbz	r3, 8001914 <mpu_init+0xf0>
    if (i2c_write(st.hw->addr, st.reg->accel_cfg, 1, &data))
 80018ee:	e9d4 1300 	ldrd	r1, r3, [r4]
 80018f2:	463a      	mov	r2, r7
 80018f4:	7818      	ldrb	r0, [r3, #0]
 80018f6:	79c9      	ldrb	r1, [r1, #7]
 80018f8:	462b      	mov	r3, r5
 80018fa:	f002 fbc5 	bl	8004088 <i2c_write>
 80018fe:	2800      	cmp	r0, #0
 8001900:	f040 814b 	bne.w	8001b9a <mpu_init+0x376>
    st.chip_cfg.accel_fsr = data >> 3;
 8001904:	f89d 3004 	ldrb.w	r3, [sp, #4]
    if (!(st.chip_cfg.sensors))
 8001908:	7aa2      	ldrb	r2, [r4, #10]
    st.chip_cfg.accel_fsr = data >> 3;
 800190a:	08db      	lsrs	r3, r3, #3
 800190c:	7263      	strb	r3, [r4, #9]
    if (!(st.chip_cfg.sensors))
 800190e:	2a00      	cmp	r2, #0
 8001910:	f000 8143 	beq.w	8001b9a <mpu_init+0x376>
        data = INV_FILTER_42HZ;
 8001914:	2203      	movs	r2, #3
    if (st.chip_cfg.lpf == data)
 8001916:	7ae3      	ldrb	r3, [r4, #11]
        data = INV_FILTER_42HZ;
 8001918:	f88d 2004 	strb.w	r2, [sp, #4]
    if (st.chip_cfg.lpf == data)
 800191c:	4293      	cmp	r3, r2
 800191e:	d00d      	beq.n	800193c <mpu_init+0x118>
    if (i2c_write(st.hw->addr, st.reg->lpf, 1, &data))
 8001920:	e9d4 2300 	ldrd	r2, r3, [r4]
 8001924:	7891      	ldrb	r1, [r2, #2]
 8001926:	7818      	ldrb	r0, [r3, #0]
 8001928:	2201      	movs	r2, #1
 800192a:	462b      	mov	r3, r5
 800192c:	f002 fbac 	bl	8004088 <i2c_write>
 8001930:	2800      	cmp	r0, #0
 8001932:	f040 8132 	bne.w	8001b9a <mpu_init+0x376>
    st.chip_cfg.lpf = data;
 8001936:	f89d 3004 	ldrb.w	r3, [sp, #4]
 800193a:	72e3      	strb	r3, [r4, #11]
    if (mpu_set_sample_rate(1000))
 800193c:	f44f 707a 	mov.w	r0, #1000	; 0x3e8
 8001940:	f7ff fdb6 	bl	80014b0 <mpu_set_sample_rate>
 8001944:	2800      	cmp	r0, #0
 8001946:	f040 8128 	bne.w	8001b9a <mpu_init+0x376>
    if (st.chip_cfg.dmp_on)
 800194a:	f894 3024 	ldrb.w	r3, [r4, #36]	; 0x24
 800194e:	b9c3      	cbnz	r3, 8001982 <mpu_init+0x15e>
        if (!(st.chip_cfg.sensors))
 8001950:	7aa2      	ldrb	r2, [r4, #10]
 8001952:	2a00      	cmp	r2, #0
 8001954:	f000 8121 	beq.w	8001b9a <mpu_init+0x376>
        if (sensors || st.chip_cfg.lp_accel_mode)
 8001958:	7d22      	ldrb	r2, [r4, #20]
        st.chip_cfg.fifo_enable = sensors & st.chip_cfg.sensors;
 800195a:	7423      	strb	r3, [r4, #16]
        if (sensors || st.chip_cfg.lp_accel_mode)
 800195c:	2a00      	cmp	r2, #0
 800195e:	f000 8125 	beq.w	8001bac <mpu_init+0x388>
        if (enable && st.chip_cfg.int_enable)
 8001962:	7c63      	ldrb	r3, [r4, #17]
 8001964:	b96b      	cbnz	r3, 8001982 <mpu_init+0x15e>
        if (i2c_write(st.hw->addr, st.reg->int_enable, 1, &tmp))
 8001966:	e9d4 1300 	ldrd	r1, r3, [r4]
            tmp = BIT_DATA_RDY_EN;
 800196a:	2201      	movs	r2, #1
 800196c:	f88d 2004 	strb.w	r2, [sp, #4]
        if (i2c_write(st.hw->addr, st.reg->int_enable, 1, &tmp))
 8001970:	7818      	ldrb	r0, [r3, #0]
 8001972:	7c49      	ldrb	r1, [r1, #17]
 8001974:	462b      	mov	r3, r5
 8001976:	f002 fb87 	bl	8004088 <i2c_write>
 800197a:	b910      	cbnz	r0, 8001982 <mpu_init+0x15e>
        st.chip_cfg.int_enable = tmp;
 800197c:	f89d 3004 	ldrb.w	r3, [sp, #4]
 8001980:	7463      	strb	r3, [r4, #17]
    if (st.chip_cfg.bypass_mode == bypass_on)
 8001982:	7ca3      	ldrb	r3, [r4, #18]
 8001984:	2b01      	cmp	r3, #1
 8001986:	f040 8105 	bne.w	8001b94 <mpu_init+0x370>
{
 800198a:	260c      	movs	r6, #12
    mpu_set_bypass(1);

    /* Find compass. Possible addresses range from 0x0C to 0x0F. */
    for (akm_addr = 0x0C; akm_addr <= 0x0F; akm_addr++) {
        int result;
        result = i2c_read(akm_addr, AKM_REG_WHOAMI, 1, data);
 800198c:	462b      	mov	r3, r5
 800198e:	2201      	movs	r2, #1
 8001990:	2100      	movs	r1, #0
 8001992:	4630      	mov	r0, r6
 8001994:	f002 fb88 	bl	80040a8 <i2c_read>
    for (akm_addr = 0x0C; akm_addr <= 0x0F; akm_addr++) {
 8001998:	1c73      	adds	r3, r6, #1
        if (!result && (data[0] == AKM_WHOAMI))
 800199a:	b918      	cbnz	r0, 80019a4 <mpu_init+0x180>
 800199c:	f89d 2004 	ldrb.w	r2, [sp, #4]
 80019a0:	2a48      	cmp	r2, #72	; 0x48
 80019a2:	d02b      	beq.n	80019fc <mpu_init+0x1d8>
    for (akm_addr = 0x0C; akm_addr <= 0x0F; akm_addr++) {
 80019a4:	b2de      	uxtb	r6, r3
 80019a6:	2e10      	cmp	r6, #16
 80019a8:	d1f0      	bne.n	800198c <mpu_init+0x168>
    if (!rate || rate > st.chip_cfg.sample_rate || rate > MAX_COMPASS_SAMPLE_RATE)
 80019aa:	89e3      	ldrh	r3, [r4, #14]
 80019ac:	2b09      	cmp	r3, #9
 80019ae:	f240 80f4 	bls.w	8001b9a <mpu_init+0x376>
    div = st.chip_cfg.sample_rate / rate - 1;
 80019b2:	4911      	ldr	r1, [pc, #68]	; (80019f8 <mpu_init+0x1d4>)
    if (i2c_write(st.hw->addr, st.reg->s4_ctrl, 1, &div))
 80019b4:	6822      	ldr	r2, [r4, #0]
    div = st.chip_cfg.sample_rate / rate - 1;
 80019b6:	fba1 1303 	umull	r1, r3, r1, r3
 80019ba:	08db      	lsrs	r3, r3, #3
 80019bc:	3b01      	subs	r3, #1
    if (i2c_write(st.hw->addr, st.reg->s4_ctrl, 1, &div))
 80019be:	6860      	ldr	r0, [r4, #4]
    div = st.chip_cfg.sample_rate / rate - 1;
 80019c0:	f88d 3004 	strb.w	r3, [sp, #4]
    if (i2c_write(st.hw->addr, st.reg->s4_ctrl, 1, &div))
 80019c4:	f892 1024 	ldrb.w	r1, [r2, #36]	; 0x24
 80019c8:	462b      	mov	r3, r5
 80019ca:	7800      	ldrb	r0, [r0, #0]
 80019cc:	2201      	movs	r2, #1
 80019ce:	f002 fb5b 	bl	8004088 <i2c_write>
 80019d2:	4606      	mov	r6, r0
 80019d4:	2800      	cmp	r0, #0
 80019d6:	f040 80e0 	bne.w	8001b9a <mpu_init+0x376>
    st.chip_cfg.compass_sample_rate = st.chip_cfg.sample_rate / (div + 1);
 80019da:	f89d 2004 	ldrb.w	r2, [sp, #4]
 80019de:	89e3      	ldrh	r3, [r4, #14]
 80019e0:	3201      	adds	r2, #1
 80019e2:	fb93 f3f2 	sdiv	r3, r3, r2
 80019e6:	8523      	strh	r3, [r4, #40]	; 0x28
    mpu_set_sensors(0);
 80019e8:	f7ff fe2a 	bl	8001640 <mpu_set_sensors>
}
 80019ec:	4630      	mov	r0, r6
 80019ee:	b005      	add	sp, #20
 80019f0:	bdf0      	pop	{r4, r5, r6, r7, pc}
 80019f2:	bf00      	nop
 80019f4:	20000000 	.word	0x20000000
 80019f8:	cccccccd 	.word	0xcccccccd
        return -1;
    }

    st.chip_cfg.compass_addr = akm_addr;

    data[0] = AKM_POWER_DOWN;
 80019fc:	2710      	movs	r7, #16
    if (i2c_write(st.chip_cfg.compass_addr, AKM_REG_CNTL, 1, data))
 80019fe:	4630      	mov	r0, r6
 8001a00:	462b      	mov	r3, r5
 8001a02:	2201      	movs	r2, #1
 8001a04:	210a      	movs	r1, #10
    st.chip_cfg.compass_addr = akm_addr;
 8001a06:	f884 602a 	strb.w	r6, [r4, #42]	; 0x2a
    data[0] = AKM_POWER_DOWN;
 8001a0a:	f88d 7004 	strb.w	r7, [sp, #4]
    if (i2c_write(st.chip_cfg.compass_addr, AKM_REG_CNTL, 1, data))
 8001a0e:	f002 fb3b 	bl	8004088 <i2c_write>
 8001a12:	2800      	cmp	r0, #0
 8001a14:	d1c9      	bne.n	80019aa <mpu_init+0x186>
        return -1;
    delay_ms(1);

    data[0] = AKM_FUSE_ROM_ACCESS;
 8001a16:	261f      	movs	r6, #31
    delay_ms(1);
 8001a18:	2001      	movs	r0, #1
 8001a1a:	f002 fb55 	bl	80040c8 <delay_ms>
    if (i2c_write(st.chip_cfg.compass_addr, AKM_REG_CNTL, 1, data))
 8001a1e:	462b      	mov	r3, r5
 8001a20:	2201      	movs	r2, #1
 8001a22:	210a      	movs	r1, #10
 8001a24:	f894 002a 	ldrb.w	r0, [r4, #42]	; 0x2a
    data[0] = AKM_FUSE_ROM_ACCESS;
 8001a28:	f88d 6004 	strb.w	r6, [sp, #4]
    if (i2c_write(st.chip_cfg.compass_addr, AKM_REG_CNTL, 1, data))
 8001a2c:	f002 fb2c 	bl	8004088 <i2c_write>
 8001a30:	2800      	cmp	r0, #0
 8001a32:	d1ba      	bne.n	80019aa <mpu_init+0x186>
        return -1;
    delay_ms(1);
 8001a34:	2001      	movs	r0, #1
 8001a36:	f002 fb47 	bl	80040c8 <delay_ms>

    /* Get sensitivity adjustment data from fuse ROM. */
    if (i2c_read(st.chip_cfg.compass_addr, AKM_REG_ASAX, 3, data))
 8001a3a:	462b      	mov	r3, r5
 8001a3c:	2203      	movs	r2, #3
 8001a3e:	4639      	mov	r1, r7
 8001a40:	f894 002a 	ldrb.w	r0, [r4, #42]	; 0x2a
 8001a44:	f002 fb30 	bl	80040a8 <i2c_read>
 8001a48:	2800      	cmp	r0, #0
 8001a4a:	d1ae      	bne.n	80019aa <mpu_init+0x186>
        return -1;
    st.chip_cfg.mag_sens_adj[0] = (long)data[0] + 128;
 8001a4c:	f89d 2004 	ldrb.w	r2, [sp, #4]
    st.chip_cfg.mag_sens_adj[1] = (long)data[1] + 128;
 8001a50:	f89d 0005 	ldrb.w	r0, [sp, #5]
    st.chip_cfg.mag_sens_adj[2] = (long)data[2] + 128;
 8001a54:	f89d 6006 	ldrb.w	r6, [sp, #6]
    st.chip_cfg.mag_sens_adj[0] = (long)data[0] + 128;
 8001a58:	3280      	adds	r2, #128	; 0x80
    st.chip_cfg.mag_sens_adj[1] = (long)data[1] + 128;
 8001a5a:	3080      	adds	r0, #128	; 0x80
    st.chip_cfg.mag_sens_adj[2] = (long)data[2] + 128;
 8001a5c:	3680      	adds	r6, #128	; 0x80
    st.chip_cfg.mag_sens_adj[0] = (long)data[0] + 128;
 8001a5e:	85a2      	strh	r2, [r4, #44]	; 0x2c
    st.chip_cfg.mag_sens_adj[1] = (long)data[1] + 128;
 8001a60:	85e0      	strh	r0, [r4, #46]	; 0x2e

    data[0] = AKM_POWER_DOWN;
    if (i2c_write(st.chip_cfg.compass_addr, AKM_REG_CNTL, 1, data))
 8001a62:	462b      	mov	r3, r5
 8001a64:	2201      	movs	r2, #1
 8001a66:	210a      	movs	r1, #10
 8001a68:	f894 002a 	ldrb.w	r0, [r4, #42]	; 0x2a
    st.chip_cfg.mag_sens_adj[2] = (long)data[2] + 128;
 8001a6c:	8626      	strh	r6, [r4, #48]	; 0x30
    data[0] = AKM_POWER_DOWN;
 8001a6e:	f88d 7004 	strb.w	r7, [sp, #4]
    if (i2c_write(st.chip_cfg.compass_addr, AKM_REG_CNTL, 1, data))
 8001a72:	f002 fb09 	bl	8004088 <i2c_write>
 8001a76:	4606      	mov	r6, r0
 8001a78:	2800      	cmp	r0, #0
 8001a7a:	d196      	bne.n	80019aa <mpu_init+0x186>
        return -1;
    delay_ms(1);
 8001a7c:	2001      	movs	r0, #1
 8001a7e:	f002 fb23 	bl	80040c8 <delay_ms>
    if (st.chip_cfg.bypass_mode == bypass_on)
 8001a82:	7ca3      	ldrb	r3, [r4, #18]
 8001a84:	2b00      	cmp	r3, #0
 8001a86:	f040 808d 	bne.w	8001ba4 <mpu_init+0x380>

    mpu_set_bypass(0);

    /* Set up master mode, master clock, and ES bit. */
    data[0] = 0x40;
    if (i2c_write(st.hw->addr, st.reg->i2c_mst, 1, data))
 8001a8a:	e9d4 2300 	ldrd	r2, r3, [r4]
    data[0] = 0x40;
 8001a8e:	2140      	movs	r1, #64	; 0x40
 8001a90:	f88d 1004 	strb.w	r1, [sp, #4]
    if (i2c_write(st.hw->addr, st.reg->i2c_mst, 1, data))
 8001a94:	7e91      	ldrb	r1, [r2, #26]
 8001a96:	7818      	ldrb	r0, [r3, #0]
 8001a98:	2201      	movs	r2, #1
 8001a9a:	462b      	mov	r3, r5
 8001a9c:	f002 faf4 	bl	8004088 <i2c_write>
 8001aa0:	2800      	cmp	r0, #0
 8001aa2:	d182      	bne.n	80019aa <mpu_init+0x186>
        return -1;

    /* Slave 0 reads from AKM data registers. */
    data[0] = BIT_I2C_READ | st.chip_cfg.compass_addr;
 8001aa4:	f894 302a 	ldrb.w	r3, [r4, #42]	; 0x2a
    if (i2c_write(st.hw->addr, st.reg->s0_addr, 1, data))
 8001aa8:	6862      	ldr	r2, [r4, #4]
    data[0] = BIT_I2C_READ | st.chip_cfg.compass_addr;
 8001aaa:	f063 037f 	orn	r3, r3, #127	; 0x7f
    if (i2c_write(st.hw->addr, st.reg->s0_addr, 1, data))
 8001aae:	6821      	ldr	r1, [r4, #0]
    data[0] = BIT_I2C_READ | st.chip_cfg.compass_addr;
 8001ab0:	f88d 3004 	strb.w	r3, [sp, #4]
    if (i2c_write(st.hw->addr, st.reg->s0_addr, 1, data))
 8001ab4:	7810      	ldrb	r0, [r2, #0]
 8001ab6:	7f89      	ldrb	r1, [r1, #30]
 8001ab8:	462b      	mov	r3, r5
 8001aba:	2201      	movs	r2, #1
 8001abc:	f002 fae4 	bl	8004088 <i2c_write>
 8001ac0:	2800      	cmp	r0, #0
 8001ac2:	f47f af72 	bne.w	80019aa <mpu_init+0x186>
        return -1;

    /* Compass reads start at this register. */
    data[0] = AKM_REG_ST1;
    if (i2c_write(st.hw->addr, st.reg->s0_reg, 1, data))
 8001ac6:	e9d4 2300 	ldrd	r2, r3, [r4]
    data[0] = AKM_REG_ST1;
 8001aca:	2102      	movs	r1, #2
 8001acc:	f88d 1004 	strb.w	r1, [sp, #4]
    if (i2c_write(st.hw->addr, st.reg->s0_reg, 1, data))
 8001ad0:	7fd1      	ldrb	r1, [r2, #31]
 8001ad2:	7818      	ldrb	r0, [r3, #0]
 8001ad4:	2201      	movs	r2, #1
 8001ad6:	462b      	mov	r3, r5
 8001ad8:	f002 fad6 	bl	8004088 <i2c_write>
 8001adc:	2800      	cmp	r0, #0
 8001ade:	f47f af64 	bne.w	80019aa <mpu_init+0x186>
        return -1;

    /* Enable slave 0, 8-byte reads. */
    data[0] = BIT_SLAVE_EN | 8;
    if (i2c_write(st.hw->addr, st.reg->s0_ctrl, 1, data))
 8001ae2:	e9d4 2300 	ldrd	r2, r3, [r4]
    data[0] = BIT_SLAVE_EN | 8;
 8001ae6:	2188      	movs	r1, #136	; 0x88
 8001ae8:	f88d 1004 	strb.w	r1, [sp, #4]
    if (i2c_write(st.hw->addr, st.reg->s0_ctrl, 1, data))
 8001aec:	f892 1020 	ldrb.w	r1, [r2, #32]
 8001af0:	7818      	ldrb	r0, [r3, #0]
 8001af2:	2201      	movs	r2, #1
 8001af4:	462b      	mov	r3, r5
 8001af6:	f002 fac7 	bl	8004088 <i2c_write>
 8001afa:	2800      	cmp	r0, #0
 8001afc:	f47f af55 	bne.w	80019aa <mpu_init+0x186>
        return -1;

    /* Slave 1 changes AKM measurement mode. */
    data[0] = st.chip_cfg.compass_addr;
    if (i2c_write(st.hw->addr, st.reg->s1_addr, 1, data))
 8001b00:	e9d4 2300 	ldrd	r2, r3, [r4]
    data[0] = st.chip_cfg.compass_addr;
 8001b04:	f894 102a 	ldrb.w	r1, [r4, #42]	; 0x2a
 8001b08:	f88d 1004 	strb.w	r1, [sp, #4]
    if (i2c_write(st.hw->addr, st.reg->s1_addr, 1, data))
 8001b0c:	f892 1021 	ldrb.w	r1, [r2, #33]	; 0x21
 8001b10:	7818      	ldrb	r0, [r3, #0]
 8001b12:	2201      	movs	r2, #1
 8001b14:	462b      	mov	r3, r5
 8001b16:	f002 fab7 	bl	8004088 <i2c_write>
 8001b1a:	2800      	cmp	r0, #0
 8001b1c:	f47f af45 	bne.w	80019aa <mpu_init+0x186>
        return -1;

    /* AKM measurement mode register. */
    data[0] = AKM_REG_CNTL;
    if (i2c_write(st.hw->addr, st.reg->s1_reg, 1, data))
 8001b20:	e9d4 2300 	ldrd	r2, r3, [r4]
    data[0] = AKM_REG_CNTL;
 8001b24:	210a      	movs	r1, #10
 8001b26:	f88d 1004 	strb.w	r1, [sp, #4]
    if (i2c_write(st.hw->addr, st.reg->s1_reg, 1, data))
 8001b2a:	f892 1022 	ldrb.w	r1, [r2, #34]	; 0x22
 8001b2e:	7818      	ldrb	r0, [r3, #0]
 8001b30:	2201      	movs	r2, #1
 8001b32:	462b      	mov	r3, r5
 8001b34:	f002 faa8 	bl	8004088 <i2c_write>
 8001b38:	2800      	cmp	r0, #0
 8001b3a:	f47f af36 	bne.w	80019aa <mpu_init+0x186>
        return -1;

    /* Enable slave 1, 1-byte writes. */
    data[0] = BIT_SLAVE_EN | 1;
    if (i2c_write(st.hw->addr, st.reg->s1_ctrl, 1, data))
 8001b3e:	e9d4 2300 	ldrd	r2, r3, [r4]
    data[0] = BIT_SLAVE_EN | 1;
 8001b42:	2181      	movs	r1, #129	; 0x81
 8001b44:	f88d 1004 	strb.w	r1, [sp, #4]
    if (i2c_write(st.hw->addr, st.reg->s1_ctrl, 1, data))
 8001b48:	f892 1023 	ldrb.w	r1, [r2, #35]	; 0x23
 8001b4c:	7818      	ldrb	r0, [r3, #0]
 8001b4e:	2201      	movs	r2, #1
 8001b50:	462b      	mov	r3, r5
 8001b52:	f002 fa99 	bl	8004088 <i2c_write>
 8001b56:	2800      	cmp	r0, #0
 8001b58:	f47f af27 	bne.w	80019aa <mpu_init+0x186>
        return -1;

    /* Set slave 1 data. */
    data[0] = AKM_SINGLE_MEASUREMENT;
    if (i2c_write(st.hw->addr, st.reg->s1_do, 1, data))
 8001b5c:	e9d4 2300 	ldrd	r2, r3, [r4]
    data[0] = AKM_SINGLE_MEASUREMENT;
 8001b60:	2111      	movs	r1, #17
 8001b62:	f88d 1004 	strb.w	r1, [sp, #4]
    if (i2c_write(st.hw->addr, st.reg->s1_do, 1, data))
 8001b66:	f892 1026 	ldrb.w	r1, [r2, #38]	; 0x26
 8001b6a:	7818      	ldrb	r0, [r3, #0]
 8001b6c:	2201      	movs	r2, #1
 8001b6e:	462b      	mov	r3, r5
 8001b70:	f002 fa8a 	bl	8004088 <i2c_write>
 8001b74:	2800      	cmp	r0, #0
 8001b76:	f47f af18 	bne.w	80019aa <mpu_init+0x186>
        return -1;

    /* Trigger slave 0 and slave 1 actions at each sample. */
    data[0] = 0x03;
    if (i2c_write(st.hw->addr, st.reg->i2c_delay_ctrl, 1, data))
 8001b7a:	e9d4 2300 	ldrd	r2, r3, [r4]
    data[0] = 0x03;
 8001b7e:	2103      	movs	r1, #3
 8001b80:	f88d 1004 	strb.w	r1, [sp, #4]
    if (i2c_write(st.hw->addr, st.reg->i2c_delay_ctrl, 1, data))
 8001b84:	f892 1027 	ldrb.w	r1, [r2, #39]	; 0x27
 8001b88:	7818      	ldrb	r0, [r3, #0]
 8001b8a:	2201      	movs	r2, #1
 8001b8c:	462b      	mov	r3, r5
 8001b8e:	f002 fa7b 	bl	8004088 <i2c_write>
 8001b92:	e70a      	b.n	80019aa <mpu_init+0x186>
 8001b94:	f7ff fade 	bl	8001154 <mpu_set_bypass.part.1.constprop.7>
 8001b98:	e6f7      	b.n	800198a <mpu_init+0x166>
        return -1;
 8001b9a:	f04f 36ff 	mov.w	r6, #4294967295
}
 8001b9e:	4630      	mov	r0, r6
 8001ba0:	b005      	add	sp, #20
 8001ba2:	bdf0      	pop	{r4, r5, r6, r7, pc}
 8001ba4:	4630      	mov	r0, r6
 8001ba6:	f7ff fa63 	bl	8001070 <mpu_set_bypass.part.1>
 8001baa:	e76e      	b.n	8001a8a <mpu_init+0x266>
            tmp = 0x00;
 8001bac:	f88d 2004 	strb.w	r2, [sp, #4]
        if (i2c_write(st.hw->addr, st.reg->int_enable, 1, &tmp))
 8001bb0:	e9d4 1300 	ldrd	r1, r3, [r4]
 8001bb4:	2201      	movs	r2, #1
 8001bb6:	7818      	ldrb	r0, [r3, #0]
 8001bb8:	7c49      	ldrb	r1, [r1, #17]
 8001bba:	462b      	mov	r3, r5
 8001bbc:	f002 fa64 	bl	8004088 <i2c_write>
 8001bc0:	2800      	cmp	r0, #0
 8001bc2:	f43f aedb 	beq.w	800197c <mpu_init+0x158>
 8001bc6:	e6dc      	b.n	8001982 <mpu_init+0x15e>

08001bc8 <mpu_read_fifo_stream>:
{
 8001bc8:	e92d 41f0 	stmdb	sp!, {r4, r5, r6, r7, r8, lr}
    if (!st.chip_cfg.dmp_on)
 8001bcc:	4d24      	ldr	r5, [pc, #144]	; (8001c60 <mpu_read_fifo_stream+0x98>)
{
 8001bce:	b082      	sub	sp, #8
    if (!st.chip_cfg.dmp_on)
 8001bd0:	f895 3024 	ldrb.w	r3, [r5, #36]	; 0x24
 8001bd4:	2b00      	cmp	r3, #0
 8001bd6:	d038      	beq.n	8001c4a <mpu_read_fifo_stream+0x82>
    if (!st.chip_cfg.sensors)
 8001bd8:	7aab      	ldrb	r3, [r5, #10]
 8001bda:	2b00      	cmp	r3, #0
 8001bdc:	d035      	beq.n	8001c4a <mpu_read_fifo_stream+0x82>
 8001bde:	4617      	mov	r7, r2
    if (i2c_read(st.hw->addr, st.reg->fifo_count_h, 2, tmp))
 8001be0:	e9d5 2300 	ldrd	r2, r3, [r5]
 8001be4:	4688      	mov	r8, r1
 8001be6:	4606      	mov	r6, r0
 8001be8:	7b11      	ldrb	r1, [r2, #12]
 8001bea:	7818      	ldrb	r0, [r3, #0]
 8001bec:	2202      	movs	r2, #2
 8001bee:	ab01      	add	r3, sp, #4
 8001bf0:	f002 fa5a 	bl	80040a8 <i2c_read>
 8001bf4:	bb48      	cbnz	r0, 8001c4a <mpu_read_fifo_stream+0x82>
    fifo_count = (tmp[0] << 8) | tmp[1];
 8001bf6:	f89d 3004 	ldrb.w	r3, [sp, #4]
 8001bfa:	f89d 4005 	ldrb.w	r4, [sp, #5]
 8001bfe:	ea44 2403 	orr.w	r4, r4, r3, lsl #8
    if (fifo_count < length) {
 8001c02:	42b4      	cmp	r4, r6
 8001c04:	d320      	bcc.n	8001c48 <mpu_read_fifo_stream+0x80>
 8001c06:	e9d5 2300 	ldrd	r2, r3, [r5]
    if (fifo_count > (st.hw->max_fifo >> 1)) {
 8001c0a:	8859      	ldrh	r1, [r3, #2]
 8001c0c:	7818      	ldrb	r0, [r3, #0]
 8001c0e:	ebb4 0f51 	cmp.w	r4, r1, lsr #1
 8001c12:	d90c      	bls.n	8001c2e <mpu_read_fifo_stream+0x66>
        if (i2c_read(st.hw->addr, st.reg->int_status, 1, tmp))
 8001c14:	7cd1      	ldrb	r1, [r2, #19]
 8001c16:	ab01      	add	r3, sp, #4
 8001c18:	2201      	movs	r2, #1
 8001c1a:	f002 fa45 	bl	80040a8 <i2c_read>
 8001c1e:	b9a0      	cbnz	r0, 8001c4a <mpu_read_fifo_stream+0x82>
        if (tmp[0] & BIT_FIFO_OVERFLOW) {
 8001c20:	f89d 3004 	ldrb.w	r3, [sp, #4]
 8001c24:	06db      	lsls	r3, r3, #27
 8001c26:	d415      	bmi.n	8001c54 <mpu_read_fifo_stream+0x8c>
 8001c28:	e9d5 2300 	ldrd	r2, r3, [r5]
 8001c2c:	7818      	ldrb	r0, [r3, #0]
    if (i2c_read(st.hw->addr, st.reg->fifo_r_w, length, data))
 8001c2e:	7b51      	ldrb	r1, [r2, #13]
 8001c30:	4643      	mov	r3, r8
 8001c32:	b2f2      	uxtb	r2, r6
 8001c34:	f002 fa38 	bl	80040a8 <i2c_read>
 8001c38:	b938      	cbnz	r0, 8001c4a <mpu_read_fifo_stream+0x82>
    more[0] = fifo_count / length - 1;
 8001c3a:	fbb4 f4f6 	udiv	r4, r4, r6
 8001c3e:	3c01      	subs	r4, #1
 8001c40:	703c      	strb	r4, [r7, #0]
}
 8001c42:	b002      	add	sp, #8
 8001c44:	e8bd 81f0 	ldmia.w	sp!, {r4, r5, r6, r7, r8, pc}
        more[0] = 0;
 8001c48:	7038      	strb	r0, [r7, #0]
        return -1;
 8001c4a:	f04f 30ff 	mov.w	r0, #4294967295
}
 8001c4e:	b002      	add	sp, #8
 8001c50:	e8bd 81f0 	ldmia.w	sp!, {r4, r5, r6, r7, r8, pc}
            mpu_reset_fifo();
 8001c54:	f7ff fac2 	bl	80011dc <mpu_reset_fifo>
            return -2;
 8001c58:	f06f 0001 	mvn.w	r0, #1
 8001c5c:	e7f1      	b.n	8001c42 <mpu_read_fifo_stream+0x7a>
 8001c5e:	bf00      	nop
 8001c60:	20000000 	.word	0x20000000

08001c64 <mpu_write_mem>:
    if (!data)
 8001c64:	b35a      	cbz	r2, 8001cbe <mpu_write_mem+0x5a>
{
 8001c66:	b5f0      	push	{r4, r5, r6, r7, lr}
    if (!st.chip_cfg.sensors)
 8001c68:	4c16      	ldr	r4, [pc, #88]	; (8001cc4 <mpu_write_mem+0x60>)
{
 8001c6a:	b083      	sub	sp, #12
    if (!st.chip_cfg.sensors)
 8001c6c:	7aa3      	ldrb	r3, [r4, #10]
 8001c6e:	b313      	cbz	r3, 8001cb6 <mpu_write_mem+0x52>
    if (tmp[1] + length > st.hw->bank_size)
 8001c70:	6867      	ldr	r7, [r4, #4]
    tmp[1] = (unsigned char)(mem_addr & 0xFF);
 8001c72:	b2c3      	uxtb	r3, r0
    if (tmp[1] + length > st.hw->bank_size)
 8001c74:	897d      	ldrh	r5, [r7, #10]
 8001c76:	185e      	adds	r6, r3, r1
    tmp[0] = (unsigned char)(mem_addr >> 8);
 8001c78:	0a00      	lsrs	r0, r0, #8
    if (tmp[1] + length > st.hw->bank_size)
 8001c7a:	42ae      	cmp	r6, r5
    tmp[1] = (unsigned char)(mem_addr & 0xFF);
 8001c7c:	f88d 3005 	strb.w	r3, [sp, #5]
    tmp[0] = (unsigned char)(mem_addr >> 8);
 8001c80:	f88d 0004 	strb.w	r0, [sp, #4]
    if (tmp[1] + length > st.hw->bank_size)
 8001c84:	dc17      	bgt.n	8001cb6 <mpu_write_mem+0x52>
    if (i2c_write(st.hw->addr, st.reg->bank_sel, 2, tmp))
 8001c86:	6823      	ldr	r3, [r4, #0]
 8001c88:	4615      	mov	r5, r2
 8001c8a:	460e      	mov	r6, r1
 8001c8c:	7838      	ldrb	r0, [r7, #0]
 8001c8e:	7ed9      	ldrb	r1, [r3, #27]
 8001c90:	2202      	movs	r2, #2
 8001c92:	ab01      	add	r3, sp, #4
 8001c94:	f002 f9f8 	bl	8004088 <i2c_write>
 8001c98:	b968      	cbnz	r0, 8001cb6 <mpu_write_mem+0x52>
    if (i2c_write(st.hw->addr, st.reg->mem_r_w, length, data))
 8001c9a:	e9d4 1000 	ldrd	r1, r0, [r4]
 8001c9e:	462b      	mov	r3, r5
 8001ca0:	b2f2      	uxtb	r2, r6
 8001ca2:	7e09      	ldrb	r1, [r1, #24]
 8001ca4:	7800      	ldrb	r0, [r0, #0]
 8001ca6:	f002 f9ef 	bl	8004088 <i2c_write>
 8001caa:	3000      	adds	r0, #0
 8001cac:	bf18      	it	ne
 8001cae:	2001      	movne	r0, #1
 8001cb0:	4240      	negs	r0, r0
}
 8001cb2:	b003      	add	sp, #12
 8001cb4:	bdf0      	pop	{r4, r5, r6, r7, pc}
        return -1;
 8001cb6:	f04f 30ff 	mov.w	r0, #4294967295
}
 8001cba:	b003      	add	sp, #12
 8001cbc:	bdf0      	pop	{r4, r5, r6, r7, pc}
        return -1;
 8001cbe:	f04f 30ff 	mov.w	r0, #4294967295
}
 8001cc2:	4770      	bx	lr
 8001cc4:	20000000 	.word	0x20000000

08001cc8 <mpu_load_firmware>:
{
 8001cc8:	e92d 4ff0 	stmdb	sp!, {r4, r5, r6, r7, r8, r9, sl, fp, lr}
    if (st.chip_cfg.dmp_loaded)
 8001ccc:	4d4f      	ldr	r5, [pc, #316]	; (8001e0c <mpu_load_firmware+0x144>)
{
 8001cce:	b08b      	sub	sp, #44	; 0x2c
    if (st.chip_cfg.dmp_loaded)
 8001cd0:	f895 4025 	ldrb.w	r4, [r5, #37]	; 0x25
 8001cd4:	2c00      	cmp	r4, #0
 8001cd6:	d172      	bne.n	8001dbe <mpu_load_firmware+0xf6>
    if (!firmware)
 8001cd8:	2900      	cmp	r1, #0
 8001cda:	d070      	beq.n	8001dbe <mpu_load_firmware+0xf6>
 8001cdc:	e9cd 2302 	strd	r2, r3, [sp, #8]
 8001ce0:	9101      	str	r1, [sp, #4]
 8001ce2:	4681      	mov	r9, r0
    for (ii = 0; ii < length; ii += this_write) {
 8001ce4:	2800      	cmp	r0, #0
 8001ce6:	f000 808c 	beq.w	8001e02 <mpu_load_firmware+0x13a>
        this_write = min(LOAD_CHUNK, length - ii);
 8001cea:	2810      	cmp	r0, #16
 8001cec:	4606      	mov	r6, r0
 8001cee:	bfa8      	it	ge
 8001cf0:	2610      	movge	r6, #16
    if (!st.chip_cfg.sensors)
 8001cf2:	7aab      	ldrb	r3, [r5, #10]
        this_write = min(LOAD_CHUNK, length - ii);
 8001cf4:	fa1f fb86 	uxth.w	fp, r6
    if (!st.chip_cfg.sensors)
 8001cf8:	2b00      	cmp	r3, #0
 8001cfa:	d060      	beq.n	8001dbe <mpu_load_firmware+0xf6>
    if (tmp[1] + length > st.hw->bank_size)
 8001cfc:	6869      	ldr	r1, [r5, #4]
    tmp[0] = (unsigned char)(mem_addr >> 8);
 8001cfe:	f8ad 4014 	strh.w	r4, [sp, #20]
    if (tmp[1] + length > st.hw->bank_size)
 8001d02:	894b      	ldrh	r3, [r1, #10]
 8001d04:	42b3      	cmp	r3, r6
 8001d06:	db5a      	blt.n	8001dbe <mpu_load_firmware+0xf6>
 8001d08:	9f01      	ldr	r7, [sp, #4]
 8001d0a:	f10d 0a14 	add.w	sl, sp, #20
 8001d0e:	e035      	b.n	8001d7c <mpu_load_firmware+0xb4>
    if (i2c_write(st.hw->addr, st.reg->bank_sel, 2, tmp))
 8001d10:	682b      	ldr	r3, [r5, #0]
 8001d12:	7808      	ldrb	r0, [r1, #0]
 8001d14:	2202      	movs	r2, #2
 8001d16:	7ed9      	ldrb	r1, [r3, #27]
 8001d18:	4653      	mov	r3, sl
 8001d1a:	f002 f9b5 	bl	8004088 <i2c_write>
 8001d1e:	2800      	cmp	r0, #0
 8001d20:	d14d      	bne.n	8001dbe <mpu_load_firmware+0xf6>
    if (i2c_read(st.hw->addr, st.reg->mem_r_w, length, data))
 8001d22:	e9d5 1300 	ldrd	r1, r3, [r5]
 8001d26:	4642      	mov	r2, r8
 8001d28:	7818      	ldrb	r0, [r3, #0]
 8001d2a:	7e09      	ldrb	r1, [r1, #24]
 8001d2c:	ab06      	add	r3, sp, #24
 8001d2e:	f002 f9bb 	bl	80040a8 <i2c_read>
 8001d32:	2800      	cmp	r0, #0
 8001d34:	d143      	bne.n	8001dbe <mpu_load_firmware+0xf6>
        if (memcmp(firmware+ii, cur, this_write))
 8001d36:	4632      	mov	r2, r6
 8001d38:	4638      	mov	r0, r7
 8001d3a:	a906      	add	r1, sp, #24
 8001d3c:	f006 fe52 	bl	80089e4 <memcmp>
 8001d40:	2800      	cmp	r0, #0
 8001d42:	d141      	bne.n	8001dc8 <mpu_load_firmware+0x100>
    for (ii = 0; ii < length; ii += this_write) {
 8001d44:	445c      	add	r4, fp
 8001d46:	b2a4      	uxth	r4, r4
 8001d48:	45a1      	cmp	r9, r4
 8001d4a:	d942      	bls.n	8001dd2 <mpu_load_firmware+0x10a>
        this_write = min(LOAD_CHUNK, length - ii);
 8001d4c:	eba9 0604 	sub.w	r6, r9, r4
 8001d50:	2e10      	cmp	r6, #16
 8001d52:	bfa8      	it	ge
 8001d54:	2610      	movge	r6, #16
    if (!data)
 8001d56:	9b01      	ldr	r3, [sp, #4]
        this_write = min(LOAD_CHUNK, length - ii);
 8001d58:	fa1f fb86 	uxth.w	fp, r6
    if (!data)
 8001d5c:	191f      	adds	r7, r3, r4
 8001d5e:	d02e      	beq.n	8001dbe <mpu_load_firmware+0xf6>
    if (!st.chip_cfg.sensors)
 8001d60:	7aab      	ldrb	r3, [r5, #10]
 8001d62:	b363      	cbz	r3, 8001dbe <mpu_load_firmware+0xf6>
    tmp[0] = (unsigned char)(mem_addr >> 8);
 8001d64:	0a22      	lsrs	r2, r4, #8
    tmp[1] = (unsigned char)(mem_addr & 0xFF);
 8001d66:	b2e3      	uxtb	r3, r4
    if (tmp[1] + length > st.hw->bank_size)
 8001d68:	6869      	ldr	r1, [r5, #4]
    tmp[0] = (unsigned char)(mem_addr >> 8);
 8001d6a:	f88d 2014 	strb.w	r2, [sp, #20]
    tmp[1] = (unsigned char)(mem_addr & 0xFF);
 8001d6e:	f88d 3015 	strb.w	r3, [sp, #21]
    if (tmp[1] + length > st.hw->bank_size)
 8001d72:	8948      	ldrh	r0, [r1, #10]
 8001d74:	b2b2      	uxth	r2, r6
 8001d76:	4413      	add	r3, r2
 8001d78:	4283      	cmp	r3, r0
 8001d7a:	dc20      	bgt.n	8001dbe <mpu_load_firmware+0xf6>
    if (i2c_write(st.hw->addr, st.reg->bank_sel, 2, tmp))
 8001d7c:	682b      	ldr	r3, [r5, #0]
 8001d7e:	7808      	ldrb	r0, [r1, #0]
 8001d80:	2202      	movs	r2, #2
 8001d82:	7ed9      	ldrb	r1, [r3, #27]
 8001d84:	4653      	mov	r3, sl
 8001d86:	f002 f97f 	bl	8004088 <i2c_write>
 8001d8a:	b9c0      	cbnz	r0, 8001dbe <mpu_load_firmware+0xf6>
    if (i2c_write(st.hw->addr, st.reg->mem_r_w, length, data))
 8001d8c:	e9d5 2300 	ldrd	r2, r3, [r5]
 8001d90:	fa5f f886 	uxtb.w	r8, r6
 8001d94:	7e11      	ldrb	r1, [r2, #24]
 8001d96:	7818      	ldrb	r0, [r3, #0]
 8001d98:	4642      	mov	r2, r8
 8001d9a:	463b      	mov	r3, r7
 8001d9c:	f002 f974 	bl	8004088 <i2c_write>
 8001da0:	b968      	cbnz	r0, 8001dbe <mpu_load_firmware+0xf6>
    if (!st.chip_cfg.sensors)
 8001da2:	7aab      	ldrb	r3, [r5, #10]
 8001da4:	b15b      	cbz	r3, 8001dbe <mpu_load_firmware+0xf6>
    tmp[0] = (unsigned char)(mem_addr >> 8);
 8001da6:	0a22      	lsrs	r2, r4, #8
    tmp[1] = (unsigned char)(mem_addr & 0xFF);
 8001da8:	b2e3      	uxtb	r3, r4
    if (tmp[1] + length > st.hw->bank_size)
 8001daa:	6869      	ldr	r1, [r5, #4]
    tmp[1] = (unsigned char)(mem_addr & 0xFF);
 8001dac:	f88d 3015 	strb.w	r3, [sp, #21]
    tmp[0] = (unsigned char)(mem_addr >> 8);
 8001db0:	f88d 2014 	strb.w	r2, [sp, #20]
 8001db4:	b2b6      	uxth	r6, r6
    if (tmp[1] + length > st.hw->bank_size)
 8001db6:	894a      	ldrh	r2, [r1, #10]
 8001db8:	4433      	add	r3, r6
 8001dba:	4293      	cmp	r3, r2
 8001dbc:	dda8      	ble.n	8001d10 <mpu_load_firmware+0x48>
            return -1;
 8001dbe:	f04f 30ff 	mov.w	r0, #4294967295
}
 8001dc2:	b00b      	add	sp, #44	; 0x2c
 8001dc4:	e8bd 8ff0 	ldmia.w	sp!, {r4, r5, r6, r7, r8, r9, sl, fp, pc}
            return -2;
 8001dc8:	f06f 0001 	mvn.w	r0, #1
}
 8001dcc:	b00b      	add	sp, #44	; 0x2c
 8001dce:	e8bd 8ff0 	ldmia.w	sp!, {r4, r5, r6, r7, r8, r9, sl, fp, pc}
 8001dd2:	9802      	ldr	r0, [sp, #8]
    tmp[0] = start_addr >> 8;
 8001dd4:	0a03      	lsrs	r3, r0, #8
 8001dd6:	f88d 3014 	strb.w	r3, [sp, #20]
    tmp[1] = start_addr & 0xFF;
 8001dda:	f88d 0015 	strb.w	r0, [sp, #21]
    if (i2c_write(st.hw->addr, st.reg->prgm_start_h, 2, tmp))
 8001dde:	e9d5 1200 	ldrd	r1, r2, [r5]
 8001de2:	4653      	mov	r3, sl
 8001de4:	7810      	ldrb	r0, [r2, #0]
 8001de6:	7f49      	ldrb	r1, [r1, #29]
 8001de8:	2202      	movs	r2, #2
 8001dea:	f002 f94d 	bl	8004088 <i2c_write>
 8001dee:	2800      	cmp	r0, #0
 8001df0:	d1e5      	bne.n	8001dbe <mpu_load_firmware+0xf6>
    st.chip_cfg.dmp_loaded = 1;
 8001df2:	2301      	movs	r3, #1
    st.chip_cfg.dmp_sample_rate = sample_rate;
 8001df4:	9a03      	ldr	r2, [sp, #12]
    st.chip_cfg.dmp_loaded = 1;
 8001df6:	f885 3025 	strb.w	r3, [r5, #37]	; 0x25
    st.chip_cfg.dmp_sample_rate = sample_rate;
 8001dfa:	84ea      	strh	r2, [r5, #38]	; 0x26
}
 8001dfc:	b00b      	add	sp, #44	; 0x2c
 8001dfe:	e8bd 8ff0 	ldmia.w	sp!, {r4, r5, r6, r7, r8, r9, sl, fp, pc}
 8001e02:	f10d 0a14 	add.w	sl, sp, #20
 8001e06:	4610      	mov	r0, r2
 8001e08:	e7e4      	b.n	8001dd4 <mpu_load_firmware+0x10c>
 8001e0a:	bf00      	nop
 8001e0c:	20000000 	.word	0x20000000

08001e10 <mpu_set_dmp_state>:
{
 8001e10:	b570      	push	{r4, r5, r6, lr}
    if (st.chip_cfg.dmp_on == enable)
 8001e12:	4c6a      	ldr	r4, [pc, #424]	; (8001fbc <mpu_set_dmp_state+0x1ac>)
{
 8001e14:	b082      	sub	sp, #8
    if (st.chip_cfg.dmp_on == enable)
 8001e16:	f894 2024 	ldrb.w	r2, [r4, #36]	; 0x24
 8001e1a:	4282      	cmp	r2, r0
 8001e1c:	d066      	beq.n	8001eec <mpu_set_dmp_state+0xdc>
 8001e1e:	4603      	mov	r3, r0
    if (enable) {
 8001e20:	2800      	cmp	r0, #0
 8001e22:	d03c      	beq.n	8001e9e <mpu_set_dmp_state+0x8e>
        if (!st.chip_cfg.dmp_loaded)
 8001e24:	f894 3025 	ldrb.w	r3, [r4, #37]	; 0x25
 8001e28:	2b00      	cmp	r3, #0
 8001e2a:	f000 80c4 	beq.w	8001fb6 <mpu_set_dmp_state+0x1a6>
    if (st.chip_cfg.dmp_on) {
 8001e2e:	2a00      	cmp	r2, #0
 8001e30:	d05f      	beq.n	8001ef2 <mpu_set_dmp_state+0xe2>
        if (i2c_write(st.hw->addr, st.reg->int_enable, 1, &tmp))
 8001e32:	e9d4 1200 	ldrd	r1, r2, [r4]
            tmp = 0x00;
 8001e36:	2300      	movs	r3, #0
 8001e38:	ad02      	add	r5, sp, #8
 8001e3a:	f805 3d01 	strb.w	r3, [r5, #-1]!
        if (i2c_write(st.hw->addr, st.reg->int_enable, 1, &tmp))
 8001e3e:	7810      	ldrb	r0, [r2, #0]
 8001e40:	462b      	mov	r3, r5
 8001e42:	7c49      	ldrb	r1, [r1, #17]
 8001e44:	2201      	movs	r2, #1
 8001e46:	f002 f91f 	bl	8004088 <i2c_write>
 8001e4a:	b910      	cbnz	r0, 8001e52 <mpu_set_dmp_state+0x42>
        st.chip_cfg.int_enable = tmp;
 8001e4c:	f89d 3007 	ldrb.w	r3, [sp, #7]
 8001e50:	7463      	strb	r3, [r4, #17]
    if (st.chip_cfg.bypass_mode == bypass_on)
 8001e52:	7ca3      	ldrb	r3, [r4, #18]
 8001e54:	2b00      	cmp	r3, #0
 8001e56:	d170      	bne.n	8001f3a <mpu_set_dmp_state+0x12a>
        mpu_set_sample_rate(st.chip_cfg.dmp_sample_rate);
 8001e58:	8ce0      	ldrh	r0, [r4, #38]	; 0x26
 8001e5a:	f7ff fb29 	bl	80014b0 <mpu_set_sample_rate>
        tmp = 0;
 8001e5e:	2100      	movs	r1, #0
 8001e60:	ab02      	add	r3, sp, #8
        i2c_write(st.hw->addr, 0x23, 1, &tmp);
 8001e62:	6862      	ldr	r2, [r4, #4]
        tmp = 0;
 8001e64:	f803 1d02 	strb.w	r1, [r3, #-2]!
        i2c_write(st.hw->addr, 0x23, 1, &tmp);
 8001e68:	7810      	ldrb	r0, [r2, #0]
 8001e6a:	2123      	movs	r1, #35	; 0x23
 8001e6c:	2201      	movs	r2, #1
 8001e6e:	f002 f90b 	bl	8004088 <i2c_write>
        if (i2c_write(st.hw->addr, st.reg->int_enable, 1, &tmp))
 8001e72:	e9d4 1000 	ldrd	r1, r0, [r4]
            tmp = BIT_DMP_INT_EN;
 8001e76:	2302      	movs	r3, #2
        st.chip_cfg.dmp_on = 1;
 8001e78:	2201      	movs	r2, #1
            tmp = BIT_DMP_INT_EN;
 8001e7a:	f88d 3007 	strb.w	r3, [sp, #7]
        st.chip_cfg.dmp_on = 1;
 8001e7e:	f884 2024 	strb.w	r2, [r4, #36]	; 0x24
        if (i2c_write(st.hw->addr, st.reg->int_enable, 1, &tmp))
 8001e82:	462b      	mov	r3, r5
 8001e84:	7c49      	ldrb	r1, [r1, #17]
 8001e86:	7800      	ldrb	r0, [r0, #0]
 8001e88:	f002 f8fe 	bl	8004088 <i2c_write>
 8001e8c:	b910      	cbnz	r0, 8001e94 <mpu_set_dmp_state+0x84>
        st.chip_cfg.int_enable = tmp;
 8001e8e:	f89d 3007 	ldrb.w	r3, [sp, #7]
 8001e92:	7463      	strb	r3, [r4, #17]
        mpu_reset_fifo();
 8001e94:	f7ff f9a2 	bl	80011dc <mpu_reset_fifo>
    return 0;
 8001e98:	2000      	movs	r0, #0
}
 8001e9a:	b002      	add	sp, #8
 8001e9c:	bd70      	pop	{r4, r5, r6, pc}
 8001e9e:	6861      	ldr	r1, [r4, #4]
 8001ea0:	7808      	ldrb	r0, [r1, #0]
    if (st.chip_cfg.dmp_on) {
 8001ea2:	2a00      	cmp	r2, #0
 8001ea4:	d138      	bne.n	8001f18 <mpu_set_dmp_state+0x108>
        if (!st.chip_cfg.sensors)
 8001ea6:	7aa3      	ldrb	r3, [r4, #10]
 8001ea8:	f10d 0507 	add.w	r5, sp, #7
 8001eac:	b173      	cbz	r3, 8001ecc <mpu_set_dmp_state+0xbc>
            tmp = 0x00;
 8001eae:	ad02      	add	r5, sp, #8
        if (i2c_write(st.hw->addr, st.reg->int_enable, 1, &tmp))
 8001eb0:	6821      	ldr	r1, [r4, #0]
            tmp = 0x00;
 8001eb2:	f805 2d01 	strb.w	r2, [r5, #-1]!
        if (i2c_write(st.hw->addr, st.reg->int_enable, 1, &tmp))
 8001eb6:	462b      	mov	r3, r5
 8001eb8:	7c49      	ldrb	r1, [r1, #17]
 8001eba:	2201      	movs	r2, #1
 8001ebc:	f002 f8e4 	bl	8004088 <i2c_write>
 8001ec0:	b910      	cbnz	r0, 8001ec8 <mpu_set_dmp_state+0xb8>
        st.chip_cfg.int_enable = tmp;
 8001ec2:	f89d 3007 	ldrb.w	r3, [sp, #7]
 8001ec6:	7463      	strb	r3, [r4, #17]
 8001ec8:	6863      	ldr	r3, [r4, #4]
 8001eca:	7818      	ldrb	r0, [r3, #0]
        st.chip_cfg.dmp_on = 0;
 8001ecc:	2600      	movs	r6, #0
        tmp = st.chip_cfg.fifo_enable;
 8001ece:	7c21      	ldrb	r1, [r4, #16]
        i2c_write(st.hw->addr, 0x23, 1, &tmp);
 8001ed0:	462b      	mov	r3, r5
 8001ed2:	2201      	movs	r2, #1
        tmp = st.chip_cfg.fifo_enable;
 8001ed4:	f88d 1007 	strb.w	r1, [sp, #7]
        i2c_write(st.hw->addr, 0x23, 1, &tmp);
 8001ed8:	2123      	movs	r1, #35	; 0x23
 8001eda:	f002 f8d5 	bl	8004088 <i2c_write>
        st.chip_cfg.dmp_on = 0;
 8001ede:	f884 6024 	strb.w	r6, [r4, #36]	; 0x24
        mpu_reset_fifo();
 8001ee2:	f7ff f97b 	bl	80011dc <mpu_reset_fifo>
 8001ee6:	4630      	mov	r0, r6
}
 8001ee8:	b002      	add	sp, #8
 8001eea:	bd70      	pop	{r4, r5, r6, pc}
        return 0;
 8001eec:	2000      	movs	r0, #0
}
 8001eee:	b002      	add	sp, #8
 8001ef0:	bd70      	pop	{r4, r5, r6, pc}
        if (!st.chip_cfg.sensors)
 8001ef2:	7aa3      	ldrb	r3, [r4, #10]
 8001ef4:	f10d 0507 	add.w	r5, sp, #7
 8001ef8:	2b00      	cmp	r3, #0
 8001efa:	d0aa      	beq.n	8001e52 <mpu_set_dmp_state+0x42>
        if (i2c_write(st.hw->addr, st.reg->int_enable, 1, &tmp))
 8001efc:	e9d4 1000 	ldrd	r1, r0, [r4]
            tmp = 0x00;
 8001f00:	ad02      	add	r5, sp, #8
 8001f02:	f805 2d01 	strb.w	r2, [r5, #-1]!
        if (i2c_write(st.hw->addr, st.reg->int_enable, 1, &tmp))
 8001f06:	462b      	mov	r3, r5
 8001f08:	7c49      	ldrb	r1, [r1, #17]
 8001f0a:	7800      	ldrb	r0, [r0, #0]
 8001f0c:	2201      	movs	r2, #1
 8001f0e:	f002 f8bb 	bl	8004088 <i2c_write>
 8001f12:	2800      	cmp	r0, #0
 8001f14:	d09a      	beq.n	8001e4c <mpu_set_dmp_state+0x3c>
 8001f16:	e79c      	b.n	8001e52 <mpu_set_dmp_state+0x42>
            tmp = 0x00;
 8001f18:	ad02      	add	r5, sp, #8
        if (i2c_write(st.hw->addr, st.reg->int_enable, 1, &tmp))
 8001f1a:	6822      	ldr	r2, [r4, #0]
            tmp = 0x00;
 8001f1c:	f805 3d01 	strb.w	r3, [r5, #-1]!
        if (i2c_write(st.hw->addr, st.reg->int_enable, 1, &tmp))
 8001f20:	7c51      	ldrb	r1, [r2, #17]
 8001f22:	462b      	mov	r3, r5
 8001f24:	2201      	movs	r2, #1
 8001f26:	f002 f8af 	bl	8004088 <i2c_write>
 8001f2a:	2800      	cmp	r0, #0
 8001f2c:	d1cc      	bne.n	8001ec8 <mpu_set_dmp_state+0xb8>
        st.chip_cfg.int_enable = tmp;
 8001f2e:	f89d 2007 	ldrb.w	r2, [sp, #7]
 8001f32:	6863      	ldr	r3, [r4, #4]
 8001f34:	7462      	strb	r2, [r4, #17]
 8001f36:	7818      	ldrb	r0, [r3, #0]
 8001f38:	e7c8      	b.n	8001ecc <mpu_set_dmp_state+0xbc>
        if (i2c_read(st.hw->addr, st.reg->user_ctrl, 1, &tmp))
 8001f3a:	e9d4 2300 	ldrd	r2, r3, [r4]
 8001f3e:	7911      	ldrb	r1, [r2, #4]
 8001f40:	7818      	ldrb	r0, [r3, #0]
 8001f42:	2201      	movs	r2, #1
 8001f44:	462b      	mov	r3, r5
 8001f46:	f002 f8af 	bl	80040a8 <i2c_read>
 8001f4a:	2800      	cmp	r0, #0
 8001f4c:	d184      	bne.n	8001e58 <mpu_set_dmp_state+0x48>
        if (st.chip_cfg.sensors & INV_XYZ_COMPASS)
 8001f4e:	7aa2      	ldrb	r2, [r4, #10]
 8001f50:	f89d 3007 	ldrb.w	r3, [sp, #7]
 8001f54:	07d2      	lsls	r2, r2, #31
            tmp |= BIT_AUX_IF_EN;
 8001f56:	bf4c      	ite	mi
 8001f58:	f043 0320 	orrmi.w	r3, r3, #32
            tmp &= ~BIT_AUX_IF_EN;
 8001f5c:	f003 03df 	andpl.w	r3, r3, #223	; 0xdf
 8001f60:	f88d 3007 	strb.w	r3, [sp, #7]
        if (i2c_write(st.hw->addr, st.reg->user_ctrl, 1, &tmp))
 8001f64:	e9d4 1200 	ldrd	r1, r2, [r4]
 8001f68:	462b      	mov	r3, r5
 8001f6a:	7810      	ldrb	r0, [r2, #0]
 8001f6c:	7909      	ldrb	r1, [r1, #4]
 8001f6e:	2201      	movs	r2, #1
 8001f70:	f002 f88a 	bl	8004088 <i2c_write>
 8001f74:	2800      	cmp	r0, #0
 8001f76:	f47f af6f 	bne.w	8001e58 <mpu_set_dmp_state+0x48>
        delay_ms(3);
 8001f7a:	2003      	movs	r0, #3
 8001f7c:	f002 f8a4 	bl	80040c8 <delay_ms>
        if (st.chip_cfg.active_low_int)
 8001f80:	f894 3022 	ldrb.w	r3, [r4, #34]	; 0x22
 8001f84:	b1ab      	cbz	r3, 8001fb2 <mpu_set_dmp_state+0x1a2>
 8001f86:	21b0      	movs	r1, #176	; 0xb0
            tmp = BIT_ACTL;
 8001f88:	2380      	movs	r3, #128	; 0x80
        if (st.chip_cfg.latched_int)
 8001f8a:	f894 2023 	ldrb.w	r2, [r4, #35]	; 0x23
 8001f8e:	f88d 3007 	strb.w	r3, [sp, #7]
 8001f92:	b10a      	cbz	r2, 8001f98 <mpu_set_dmp_state+0x188>
            tmp |= BIT_LATCH_EN | BIT_ANY_RD_CLR;
 8001f94:	f88d 1007 	strb.w	r1, [sp, #7]
        if (i2c_write(st.hw->addr, st.reg->int_pin_cfg, 1, &tmp))
 8001f98:	e9d4 2300 	ldrd	r2, r3, [r4]
 8001f9c:	7dd1      	ldrb	r1, [r2, #23]
 8001f9e:	7818      	ldrb	r0, [r3, #0]
 8001fa0:	2201      	movs	r2, #1
 8001fa2:	462b      	mov	r3, r5
 8001fa4:	f002 f870 	bl	8004088 <i2c_write>
 8001fa8:	2800      	cmp	r0, #0
 8001faa:	f47f af55 	bne.w	8001e58 <mpu_set_dmp_state+0x48>
    st.chip_cfg.bypass_mode = bypass_on;
 8001fae:	74a0      	strb	r0, [r4, #18]
 8001fb0:	e752      	b.n	8001e58 <mpu_set_dmp_state+0x48>
        if (st.chip_cfg.active_low_int)
 8001fb2:	2130      	movs	r1, #48	; 0x30
 8001fb4:	e7e9      	b.n	8001f8a <mpu_set_dmp_state+0x17a>
            return -1;
 8001fb6:	f04f 30ff 	mov.w	r0, #4294967295
 8001fba:	e76e      	b.n	8001e9a <mpu_set_dmp_state+0x8a>
 8001fbc:	20000000 	.word	0x20000000

08001fc0 <mpu_get_compass_reg>:
 *  @param[out] data        Raw data in hardware units.
 *  @param[out] timestamp   Timestamp in milliseconds. Null if not needed.
 *  @return     0 if successful.
 */
int mpu_get_compass_reg(short *data, unsigned long *timestamp)
{
 8001fc0:	b5f0      	push	{r4, r5, r6, r7, lr}
#ifdef AK89xx_SECONDARY
    unsigned char tmp[9];

    if (!(st.chip_cfg.sensors & INV_XYZ_COMPASS))
 8001fc2:	4e2b      	ldr	r6, [pc, #172]	; (8002070 <mpu_get_compass_reg+0xb0>)
{
 8001fc4:	b085      	sub	sp, #20
    if (!(st.chip_cfg.sensors & INV_XYZ_COMPASS))
 8001fc6:	7ab3      	ldrb	r3, [r6, #10]
 8001fc8:	07db      	lsls	r3, r3, #31
 8001fca:	d548      	bpl.n	800205e <mpu_get_compass_reg+0x9e>
        return -1;
    tmp[8] = AKM_SINGLE_MEASUREMENT;
    if (i2c_write(st.chip_cfg.compass_addr, AKM_REG_CNTL, 1, tmp+8))
        return -1;
#else
    if (i2c_read(st.hw->addr, st.reg->raw_compass, 8, tmp))
 8001fcc:	e9d6 2300 	ldrd	r2, r3, [r6]
 8001fd0:	460d      	mov	r5, r1
 8001fd2:	4604      	mov	r4, r0
 8001fd4:	f892 1028 	ldrb.w	r1, [r2, #40]	; 0x28
 8001fd8:	7818      	ldrb	r0, [r3, #0]
 8001fda:	2208      	movs	r2, #8
 8001fdc:	ab01      	add	r3, sp, #4
 8001fde:	f002 f863 	bl	80040a8 <i2c_read>
 8001fe2:	4607      	mov	r7, r0
 8001fe4:	2800      	cmp	r0, #0
 8001fe6:	d13a      	bne.n	800205e <mpu_get_compass_reg+0x9e>
        return -2;
    if ((tmp[7] & AKM_OVERFLOW) || (tmp[7] & AKM_DATA_ERROR))
        return -3;
#elif defined AK8963_SECONDARY
    /* AK8963 doesn't have the data read error bit. */
    if (!(tmp[0] & AKM_DATA_READY) || (tmp[0] & AKM_DATA_OVERRUN))
 8001fe8:	f89d 3004 	ldrb.w	r3, [sp, #4]
 8001fec:	f003 0303 	and.w	r3, r3, #3
 8001ff0:	2b01      	cmp	r3, #1
 8001ff2:	d137      	bne.n	8002064 <mpu_get_compass_reg+0xa4>
        return -2;
    if (tmp[7] & AKM_OVERFLOW)
 8001ff4:	f99d 300b 	ldrsb.w	r3, [sp, #11]
 8001ff8:	2b00      	cmp	r3, #0
 8001ffa:	db36      	blt.n	800206a <mpu_get_compass_reg+0xaa>
        return -3;
#endif
    data[0] = (tmp[2] << 8) | tmp[1];
 8001ffc:	f89d 3006 	ldrb.w	r3, [sp, #6]
 8002000:	f89d 1005 	ldrb.w	r1, [sp, #5]
    data[1] = (tmp[4] << 8) | tmp[3];
    data[2] = (tmp[6] << 8) | tmp[5];
 8002004:	f89d 000a 	ldrb.w	r0, [sp, #10]
    data[0] = (tmp[2] << 8) | tmp[1];
 8002008:	ea41 2103 	orr.w	r1, r1, r3, lsl #8
    data[1] = (tmp[4] << 8) | tmp[3];
 800200c:	f89d c008 	ldrb.w	ip, [sp, #8]
 8002010:	f89d 2007 	ldrb.w	r2, [sp, #7]
    data[2] = (tmp[6] << 8) | tmp[5];
 8002014:	f89d 3009 	ldrb.w	r3, [sp, #9]
    data[1] = (tmp[4] << 8) | tmp[3];
 8002018:	ea42 220c 	orr.w	r2, r2, ip, lsl #8
    data[2] = (tmp[6] << 8) | tmp[5];
 800201c:	ea43 2300 	orr.w	r3, r3, r0, lsl #8
    data[0] = (tmp[2] << 8) | tmp[1];
 8002020:	b209      	sxth	r1, r1
    data[1] = (tmp[4] << 8) | tmp[3];
 8002022:	b212      	sxth	r2, r2
    data[2] = (tmp[6] << 8) | tmp[5];
 8002024:	b21b      	sxth	r3, r3
    data[0] = (tmp[2] << 8) | tmp[1];
 8002026:	8021      	strh	r1, [r4, #0]
    data[1] = (tmp[4] << 8) | tmp[3];
 8002028:	8062      	strh	r2, [r4, #2]
    data[2] = (tmp[6] << 8) | tmp[5];
 800202a:	80a3      	strh	r3, [r4, #4]

    data[0] = ((long)data[0] * st.chip_cfg.mag_sens_adj[0]) >> 8;
 800202c:	f9b6 002c 	ldrsh.w	r0, [r6, #44]	; 0x2c
 8002030:	fb01 f100 	mul.w	r1, r1, r0
 8002034:	1209      	asrs	r1, r1, #8
 8002036:	8021      	strh	r1, [r4, #0]
    data[1] = ((long)data[1] * st.chip_cfg.mag_sens_adj[1]) >> 8;
 8002038:	f9b6 102e 	ldrsh.w	r1, [r6, #46]	; 0x2e
 800203c:	fb02 f201 	mul.w	r2, r2, r1
 8002040:	1212      	asrs	r2, r2, #8
 8002042:	8062      	strh	r2, [r4, #2]
    data[2] = ((long)data[2] * st.chip_cfg.mag_sens_adj[2]) >> 8;
 8002044:	f9b6 2030 	ldrsh.w	r2, [r6, #48]	; 0x30
 8002048:	fb03 f302 	mul.w	r3, r3, r2
 800204c:	121b      	asrs	r3, r3, #8
 800204e:	80a3      	strh	r3, [r4, #4]

    if (timestamp)
 8002050:	b115      	cbz	r5, 8002058 <mpu_get_compass_reg+0x98>
        get_ms(timestamp);
 8002052:	4628      	mov	r0, r5
 8002054:	f002 f83a 	bl	80040cc <get_ms>
    return 0;
#else
    return -1;
#endif
}
 8002058:	4638      	mov	r0, r7
 800205a:	b005      	add	sp, #20
 800205c:	bdf0      	pop	{r4, r5, r6, r7, pc}
        return -1;
 800205e:	f04f 37ff 	mov.w	r7, #4294967295
 8002062:	e7f9      	b.n	8002058 <mpu_get_compass_reg+0x98>
        return -2;
 8002064:	f06f 0701 	mvn.w	r7, #1
 8002068:	e7f6      	b.n	8002058 <mpu_get_compass_reg+0x98>
        return -3;
 800206a:	f06f 0702 	mvn.w	r7, #2
 800206e:	e7f3      	b.n	8002058 <mpu_get_compass_reg+0x98>
 8002070:	20000000 	.word	0x20000000

08002074 <dmp_enable_feature>:
 *  mutually exclusive.
 *  @param[in]  mask    Mask of features to enable.
 *  @return     0 if successful.
 */
int dmp_enable_feature(unsigned short mask)
{
 8002074:	e92d 43f0 	stmdb	sp!, {r4, r5, r6, r7, r8, r9, lr}

    /* TODO: All of these settings can probably be integrated into the default
     * DMP image.
     */
    /* Set integration scale factor. */
    tmp[0] = (unsigned char)((GYRO_SF >> 24) & 0xFF);
 8002078:	4b59      	ldr	r3, [pc, #356]	; (80021e0 <dmp_enable_feature+0x16c>)
{
 800207a:	b087      	sub	sp, #28
    tmp[0] = (unsigned char)((GYRO_SF >> 24) & 0xFF);
 800207c:	ad06      	add	r5, sp, #24
 800207e:	f845 3d0c 	str.w	r3, [r5, #-12]!
{
 8002082:	4604      	mov	r4, r0
    tmp[1] = (unsigned char)((GYRO_SF >> 16) & 0xFF);
    tmp[2] = (unsigned char)((GYRO_SF >> 8) & 0xFF);
    tmp[3] = (unsigned char)(GYRO_SF & 0xFF);
    mpu_write_mem(D_0_104, 4, tmp);
 8002084:	462a      	mov	r2, r5
 8002086:	2104      	movs	r1, #4
 8002088:	2068      	movs	r0, #104	; 0x68
 800208a:	f7ff fdeb 	bl	8001c64 <mpu_write_mem>

    /* Send sensor data to the FIFO. */
    tmp[0] = 0xA3;
 800208e:	23a3      	movs	r3, #163	; 0xa3
    if (mask & DMP_FEATURE_SEND_RAW_ACCEL) {
 8002090:	f014 0840 	ands.w	r8, r4, #64	; 0x40
    tmp[0] = 0xA3;
 8002094:	f88d 300c 	strb.w	r3, [sp, #12]
    if (mask & DMP_FEATURE_SEND_RAW_ACCEL) {
 8002098:	f000 809b 	beq.w	80021d2 <dmp_enable_feature+0x15e>
        tmp[1] = 0xC0;
 800209c:	21c0      	movs	r1, #192	; 0xc0
        tmp[2] = 0xC8;
 800209e:	22c8      	movs	r2, #200	; 0xc8
        tmp[3] = 0xC2;
 80020a0:	23c2      	movs	r3, #194	; 0xc2
        tmp[1] = 0xC0;
 80020a2:	f88d 100d 	strb.w	r1, [sp, #13]
        tmp[2] = 0xC8;
 80020a6:	f88d 200e 	strb.w	r2, [sp, #14]
        tmp[3] = 0xC2;
 80020aa:	f88d 300f 	strb.w	r3, [sp, #15]
    } else {
        tmp[1] = 0xA3;
        tmp[2] = 0xA3;
        tmp[3] = 0xA3;
    }
    if (mask & DMP_FEATURE_SEND_ANY_GYRO) {
 80020ae:	f414 77c0 	ands.w	r7, r4, #384	; 0x180
        tmp[4] = 0xC4;
        tmp[5] = 0xCC;
 80020b2:	bf15      	itete	ne
 80020b4:	23c6      	movne	r3, #198	; 0xc6
        tmp[6] = 0xC6;
    } else {
        tmp[4] = 0xA3;
        tmp[5] = 0xA3;
 80020b6:	23a3      	moveq	r3, #163	; 0xa3
        tmp[4] = 0xC4;
 80020b8:	f64c 42c4 	movwne	r2, #52420	; 0xccc4
        tmp[4] = 0xA3;
 80020bc:	f24a 32a3 	movweq	r2, #41891	; 0xa3a3
        tmp[5] = 0xA3;
 80020c0:	f88d 3012 	strb.w	r3, [sp, #18]
        tmp[6] = 0xA3;
    }
    tmp[7] = 0xA3;
 80020c4:	23a3      	movs	r3, #163	; 0xa3
        tmp[4] = 0xA3;
 80020c6:	f8ad 2010 	strh.w	r2, [sp, #16]
    tmp[8] = 0xA3;
    tmp[9] = 0xA3;
    mpu_write_mem(CFG_15,10,tmp);
 80020ca:	210a      	movs	r1, #10
 80020cc:	462a      	mov	r2, r5
 80020ce:	f640 20a7 	movw	r0, #2727	; 0xaa7
    tmp[7] = 0xA3;
 80020d2:	f88d 3013 	strb.w	r3, [sp, #19]
    tmp[8] = 0xA3;
 80020d6:	f88d 3014 	strb.w	r3, [sp, #20]
    tmp[9] = 0xA3;
 80020da:	f88d 3015 	strb.w	r3, [sp, #21]
    mpu_write_mem(CFG_15,10,tmp);
 80020de:	f7ff fdc1 	bl	8001c64 <mpu_write_mem>

    /* Send gesture data to the FIFO. */
    if (mask & (DMP_FEATURE_TAP | DMP_FEATURE_ANDROID_ORIENT))
        tmp[0] = DINA20;
    else
        tmp[0] = 0xD8;
 80020e2:	f014 0903 	ands.w	r9, r4, #3
 80020e6:	bf14      	ite	ne
 80020e8:	2320      	movne	r3, #32
 80020ea:	23d8      	moveq	r3, #216	; 0xd8
    mpu_write_mem(CFG_27,1,tmp);
 80020ec:	462a      	mov	r2, r5
 80020ee:	2101      	movs	r1, #1
 80020f0:	f640 20b6 	movw	r0, #2742	; 0xab6
 80020f4:	f88d 300c 	strb.w	r3, [sp, #12]
 80020f8:	f7ff fdb4 	bl	8001c64 <mpu_write_mem>
{
    if (enable) {
        unsigned char regs[9] = {0xb8, 0xaa, 0xb3, 0x8d, 0xb4, 0x98, 0x0d, 0x35, 0x5d};
        return mpu_write_mem(CFG_MOTION_BIAS, 9, regs);
    } else {
        unsigned char regs[9] = {0xb8, 0xaa, 0xaa, 0xaa, 0xb0, 0x88, 0xc3, 0xc5, 0xc7};
 80020fc:	466b      	mov	r3, sp
        return mpu_write_mem(CFG_MOTION_BIAS, 9, regs);
 80020fe:	466e      	mov	r6, sp
    if (mask & DMP_FEATURE_GYRO_CAL)
 8002100:	06a0      	lsls	r0, r4, #26
        unsigned char regs[9] = {0xb8, 0xaa, 0xb3, 0x8d, 0xb4, 0x98, 0x0d, 0x35, 0x5d};
 8002102:	bf4c      	ite	mi
 8002104:	4a37      	ldrmi	r2, [pc, #220]	; (80021e4 <dmp_enable_feature+0x170>)
        unsigned char regs[9] = {0xb8, 0xaa, 0xaa, 0xaa, 0xb0, 0x88, 0xc3, 0xc5, 0xc7};
 8002106:	4a38      	ldrpl	r2, [pc, #224]	; (80021e8 <dmp_enable_feature+0x174>)
 8002108:	ca07      	ldmia	r2, {r0, r1, r2}
 800210a:	c303      	stmia	r3!, {r0, r1}
        return mpu_write_mem(CFG_MOTION_BIAS, 9, regs);
 800210c:	2109      	movs	r1, #9
        unsigned char regs[9] = {0xb8, 0xaa, 0xaa, 0xaa, 0xb0, 0x88, 0xc3, 0xc5, 0xc7};
 800210e:	701a      	strb	r2, [r3, #0]
        return mpu_write_mem(CFG_MOTION_BIAS, 9, regs);
 8002110:	f44f 6097 	mov.w	r0, #1208	; 0x4b8
 8002114:	4632      	mov	r2, r6
 8002116:	f7ff fda5 	bl	8001c64 <mpu_write_mem>
    if (mask & DMP_FEATURE_SEND_ANY_GYRO) {
 800211a:	b157      	cbz	r7, 8002132 <dmp_enable_feature+0xbe>
        if (mask & DMP_FEATURE_SEND_CAL_GYRO) {
 800211c:	05e1      	lsls	r1, r4, #23
            tmp[0] = 0xB2;
 800211e:	bf4c      	ite	mi
 8002120:	4b32      	ldrmi	r3, [pc, #200]	; (80021ec <dmp_enable_feature+0x178>)
            tmp[0] = DINAC0;
 8002122:	4b33      	ldrpl	r3, [pc, #204]	; (80021f0 <dmp_enable_feature+0x17c>)
        mpu_write_mem(CFG_GYRO_RAW_DATA, 4, tmp);
 8002124:	462a      	mov	r2, r5
 8002126:	2104      	movs	r1, #4
 8002128:	f640 20a2 	movw	r0, #2722	; 0xaa2
            tmp[0] = DINAC0;
 800212c:	9303      	str	r3, [sp, #12]
        mpu_write_mem(CFG_GYRO_RAW_DATA, 4, tmp);
 800212e:	f7ff fd99 	bl	8001c64 <mpu_write_mem>
    if (mask & DMP_FEATURE_LP_QUAT)
 8002132:	0762      	lsls	r2, r4, #29
        regs[1] = DINBC2;
        regs[2] = DINBC4;
        regs[3] = DINBC6;
    }
    else
        memset(regs, 0x8B, 4);
 8002134:	bf54      	ite	pl
 8002136:	f04f 338b 	movpl.w	r3, #2341178251	; 0x8b8b8b8b
        regs[0] = DINBC0;
 800213a:	4b2e      	ldrmi	r3, [pc, #184]	; (80021f4 <dmp_enable_feature+0x180>)

    mpu_write_mem(CFG_LP_QUAT, 4, regs);
 800213c:	4632      	mov	r2, r6
 800213e:	2104      	movs	r1, #4
 8002140:	f640 2098 	movw	r0, #2712	; 0xa98
        memset(regs, 0x8B, 4);
 8002144:	9300      	str	r3, [sp, #0]
    mpu_write_mem(CFG_LP_QUAT, 4, regs);
 8002146:	f7ff fd8d 	bl	8001c64 <mpu_write_mem>

    return mpu_reset_fifo();
 800214a:	f7ff f847 	bl	80011dc <mpu_reset_fifo>
    if (mask & DMP_FEATURE_6X_LP_QUAT)
 800214e:	06e3      	lsls	r3, r4, #27
        regs[0] = DINA20;
        regs[1] = DINA28;
        regs[2] = DINA30;
        regs[3] = DINA38;
    } else
        memset(regs, 0xA3, 4);
 8002150:	bf54      	ite	pl
 8002152:	f04f 33a3 	movpl.w	r3, #2745410467	; 0xa3a3a3a3
        regs[0] = DINA20;
 8002156:	4b28      	ldrmi	r3, [pc, #160]	; (80021f8 <dmp_enable_feature+0x184>)

    mpu_write_mem(CFG_8, 4, regs);
 8002158:	4632      	mov	r2, r6
 800215a:	2104      	movs	r1, #4
 800215c:	f640 209e 	movw	r0, #2718	; 0xa9e
    dmp.feature_mask = mask | DMP_FEATURE_PEDOMETER;
 8002160:	4d26      	ldr	r5, [pc, #152]	; (80021fc <dmp_enable_feature+0x188>)
        memset(regs, 0xA3, 4);
 8002162:	9300      	str	r3, [sp, #0]
    mpu_write_mem(CFG_8, 4, regs);
 8002164:	f7ff fd7e 	bl	8001c64 <mpu_write_mem>

    return mpu_reset_fifo();
 8002168:	f7ff f838 	bl	80011dc <mpu_reset_fifo>
    dmp.feature_mask = mask | DMP_FEATURE_PEDOMETER;
 800216c:	f044 0308 	orr.w	r3, r4, #8
 8002170:	816b      	strh	r3, [r5, #10]
    mpu_reset_fifo();
 8002172:	f7ff f833 	bl	80011dc <mpu_reset_fifo>
    if (mask & DMP_FEATURE_SEND_RAW_ACCEL)
 8002176:	f1b8 0f00 	cmp.w	r8, #0
 800217a:	d11c      	bne.n	80021b6 <dmp_enable_feature+0x142>
    dmp.packet_length = 0;
 800217c:	2304      	movs	r3, #4
 800217e:	2114      	movs	r1, #20
 8002180:	2210      	movs	r2, #16
 8002182:	f04f 0e0a 	mov.w	lr, #10
 8002186:	f04f 0c1a 	mov.w	ip, #26
 800218a:	2616      	movs	r6, #22
 800218c:	2006      	movs	r0, #6
 800218e:	f885 800e 	strb.w	r8, [r5, #14]
    if (mask & DMP_FEATURE_SEND_ANY_GYRO)
 8002192:	b11f      	cbz	r7, 800219c <dmp_enable_feature+0x128>
        dmp.packet_length += 6;
 8002194:	4673      	mov	r3, lr
 8002196:	4661      	mov	r1, ip
 8002198:	4632      	mov	r2, r6
 800219a:	73a8      	strb	r0, [r5, #14]
    if (mask & (DMP_FEATURE_LP_QUAT | DMP_FEATURE_6X_LP_QUAT))
 800219c:	f014 0f14 	tst.w	r4, #20
        dmp.packet_length += 16;
 80021a0:	bf1c      	itt	ne
 80021a2:	460b      	movne	r3, r1
 80021a4:	73aa      	strbne	r2, [r5, #14]
    if (mask & (DMP_FEATURE_TAP | DMP_FEATURE_ANDROID_ORIENT))
 80021a6:	f1b9 0f00 	cmp.w	r9, #0
 80021aa:	d000      	beq.n	80021ae <dmp_enable_feature+0x13a>
        dmp.packet_length += 4;
 80021ac:	73ab      	strb	r3, [r5, #14]
}
 80021ae:	2000      	movs	r0, #0
 80021b0:	b007      	add	sp, #28
 80021b2:	e8bd 83f0 	ldmia.w	sp!, {r4, r5, r6, r7, r8, r9, pc}
        dmp.packet_length += 6;
 80021b6:	f04f 0806 	mov.w	r8, #6
 80021ba:	230a      	movs	r3, #10
 80021bc:	211a      	movs	r1, #26
 80021be:	2216      	movs	r2, #22
 80021c0:	f04f 0e10 	mov.w	lr, #16
 80021c4:	f04f 0c20 	mov.w	ip, #32
 80021c8:	261c      	movs	r6, #28
 80021ca:	200c      	movs	r0, #12
 80021cc:	f885 800e 	strb.w	r8, [r5, #14]
 80021d0:	e7df      	b.n	8002192 <dmp_enable_feature+0x11e>
        tmp[1] = 0xA3;
 80021d2:	f88d 300d 	strb.w	r3, [sp, #13]
        tmp[2] = 0xA3;
 80021d6:	f88d 300e 	strb.w	r3, [sp, #14]
        tmp[3] = 0xA3;
 80021da:	f88d 300f 	strb.w	r3, [sp, #15]
 80021de:	e766      	b.n	80020ae <dmp_enable_feature+0x3a>
 80021e0:	09e3ca02 	.word	0x09e3ca02
 80021e4:	0800b6c4 	.word	0x0800b6c4
 80021e8:	0800b6d0 	.word	0x0800b6d0
 80021ec:	9bb68bb2 	.word	0x9bb68bb2
 80021f0:	90b480b0 	.word	0x90b480b0
 80021f4:	c6c4c2c0 	.word	0xc6c4c2c0
 80021f8:	38302820 	.word	0x38302820
 80021fc:	200003a4 	.word	0x200003a4

08002200 <dmp_read_fifo>:
 *  @param[out] more        Number of remaining packets.
 *  @return     0 if successful.
 */
int dmp_read_fifo(short *gyro, short *accel, long *quat,
    unsigned long *timestamp, short *sensors, unsigned char *more)
{
 8002200:	e92d 4ff0 	stmdb	sp!, {r4, r5, r6, r7, r8, r9, sl, fp, lr}
    unsigned char ii = 0;

    /* TODO: sensors[0] only changes when dmp_enable_feature is called. We can
     * cache this value and save some cycles.
     */
    sensors[0] = 0;
 8002204:	2500      	movs	r5, #0
{
 8002206:	b095      	sub	sp, #84	; 0x54
 8002208:	9c1e      	ldr	r4, [sp, #120]	; 0x78

    /* Get a packet. */
    if (mpu_read_fifo_stream(dmp.packet_length, fifo_data, more))
 800220a:	f8df 81c4 	ldr.w	r8, [pc, #452]	; 80023d0 <dmp_read_fifo+0x1d0>
{
 800220e:	4681      	mov	r9, r0
 8002210:	460f      	mov	r7, r1
 8002212:	4616      	mov	r6, r2
    sensors[0] = 0;
 8002214:	8025      	strh	r5, [r4, #0]
    if (mpu_read_fifo_stream(dmp.packet_length, fifo_data, more))
 8002216:	f898 000e 	ldrb.w	r0, [r8, #14]
 800221a:	9a1f      	ldr	r2, [sp, #124]	; 0x7c
 800221c:	a90c      	add	r1, sp, #48	; 0x30
{
 800221e:	9305      	str	r3, [sp, #20]
    if (mpu_read_fifo_stream(dmp.packet_length, fifo_data, more))
 8002220:	f7ff fcd2 	bl	8001bc8 <mpu_read_fifo_stream>
 8002224:	2800      	cmp	r0, #0
 8002226:	f040 80c9 	bne.w	80023bc <dmp_read_fifo+0x1bc>
        return -1;

    /* Parse DMP packet. */
    if (dmp.feature_mask & (DMP_FEATURE_LP_QUAT | DMP_FEATURE_6X_LP_QUAT)) {
 800222a:	f8b8 300a 	ldrh.w	r3, [r8, #10]
 800222e:	4605      	mov	r5, r0
 8002230:	f013 0f14 	tst.w	r3, #20
 8002234:	f040 8086 	bne.w	8002344 <dmp_read_fifo+0x144>
 8002238:	2208      	movs	r2, #8
 800223a:	2105      	movs	r1, #5
 800223c:	9206      	str	r2, [sp, #24]
 800223e:	2204      	movs	r2, #4
 8002240:	e9cd 2103 	strd	r2, r1, [sp, #12]
 8002244:	2203      	movs	r2, #3
 8002246:	9001      	str	r0, [sp, #4]
 8002248:	f04f 0a0b 	mov.w	sl, #11
 800224c:	f04f 0c0a 	mov.w	ip, #10
 8002250:	f04f 0b09 	mov.w	fp, #9
 8002254:	f04f 0807 	mov.w	r8, #7
 8002258:	f04f 0e06 	mov.w	lr, #6
 800225c:	2102      	movs	r1, #2
 800225e:	2001      	movs	r0, #1
 8002260:	9202      	str	r2, [sp, #8]
        }
        sensors[0] |= INV_WXYZ_QUAT;
#endif
    }

    if (dmp.feature_mask & DMP_FEATURE_SEND_RAW_ACCEL) {
 8002262:	065a      	lsls	r2, r3, #25
 8002264:	d53a      	bpl.n	80022dc <dmp_read_fifo+0xdc>
        accel[0] = ((short)fifo_data[ii+0] << 8) | fifo_data[ii+1];
 8002266:	9a01      	ldr	r2, [sp, #4]
 8002268:	ae14      	add	r6, sp, #80	; 0x50
 800226a:	4416      	add	r6, r2
        accel[1] = ((short)fifo_data[ii+2] << 8) | fifo_data[ii+3];
 800226c:	9a02      	ldr	r2, [sp, #8]
        accel[0] = ((short)fifo_data[ii+0] << 8) | fifo_data[ii+1];
 800226e:	9607      	str	r6, [sp, #28]
 8002270:	ae14      	add	r6, sp, #80	; 0x50
        accel[1] = ((short)fifo_data[ii+2] << 8) | fifo_data[ii+3];
 8002272:	1871      	adds	r1, r6, r1
 8002274:	4432      	add	r2, r6
 8002276:	9109      	str	r1, [sp, #36]	; 0x24
 8002278:	920a      	str	r2, [sp, #40]	; 0x28
        accel[2] = ((short)fifo_data[ii+4] << 8) | fifo_data[ii+5];
 800227a:	9904      	ldr	r1, [sp, #16]
 800227c:	9a03      	ldr	r2, [sp, #12]
        accel[0] = ((short)fifo_data[ii+0] << 8) | fifo_data[ii+1];
 800227e:	1830      	adds	r0, r6, r0
        accel[2] = ((short)fifo_data[ii+4] << 8) | fifo_data[ii+5];
 8002280:	4432      	add	r2, r6
 8002282:	4431      	add	r1, r6
        accel[0] = ((short)fifo_data[ii+0] << 8) | fifo_data[ii+1];
 8002284:	9e07      	ldr	r6, [sp, #28]
 8002286:	9008      	str	r0, [sp, #32]
        ii += 6;
        sensors[0] |= INV_XYZ_ACCEL;
 8002288:	f8cd b008 	str.w	fp, [sp, #8]
        accel[0] = ((short)fifo_data[ii+0] << 8) | fifo_data[ii+1];
 800228c:	f816 bc20 	ldrb.w	fp, [r6, #-32]
 8002290:	9e08      	ldr	r6, [sp, #32]
        sensors[0] |= INV_XYZ_ACCEL;
 8002292:	4640      	mov	r0, r8
        accel[0] = ((short)fifo_data[ii+0] << 8) | fifo_data[ii+1];
 8002294:	f816 8c20 	ldrb.w	r8, [r6, #-32]
        accel[1] = ((short)fifo_data[ii+2] << 8) | fifo_data[ii+3];
 8002298:	9e09      	ldr	r6, [sp, #36]	; 0x24
        sensors[0] |= INV_XYZ_ACCEL;
 800229a:	e9cd ca03 	strd	ip, sl, [sp, #12]
        accel[1] = ((short)fifo_data[ii+2] << 8) | fifo_data[ii+3];
 800229e:	f816 ac20 	ldrb.w	sl, [r6, #-32]
 80022a2:	9e0a      	ldr	r6, [sp, #40]	; 0x28
        sensors[0] |= INV_XYZ_ACCEL;
 80022a4:	f8cd e004 	str.w	lr, [sp, #4]
        accel[1] = ((short)fifo_data[ii+2] << 8) | fifo_data[ii+3];
 80022a8:	f816 ec20 	ldrb.w	lr, [r6, #-32]
        accel[2] = ((short)fifo_data[ii+4] << 8) | fifo_data[ii+5];
 80022ac:	f812 6c20 	ldrb.w	r6, [r2, #-32]
 80022b0:	910b      	str	r1, [sp, #44]	; 0x2c
 80022b2:	4632      	mov	r2, r6
 80022b4:	9e0b      	ldr	r6, [sp, #44]	; 0x2c
        accel[0] = ((short)fifo_data[ii+0] << 8) | fifo_data[ii+1];
 80022b6:	ea48 280b 	orr.w	r8, r8, fp, lsl #8
        accel[2] = ((short)fifo_data[ii+4] << 8) | fifo_data[ii+5];
 80022ba:	f816 cc20 	ldrb.w	ip, [r6, #-32]
        accel[1] = ((short)fifo_data[ii+2] << 8) | fifo_data[ii+3];
 80022be:	ea4e 2e0a 	orr.w	lr, lr, sl, lsl #8
        accel[2] = ((short)fifo_data[ii+4] << 8) | fifo_data[ii+5];
 80022c2:	ea4c 2c02 	orr.w	ip, ip, r2, lsl #8
        accel[0] = ((short)fifo_data[ii+0] << 8) | fifo_data[ii+1];
 80022c6:	f8a7 8000 	strh.w	r8, [r7]
        accel[1] = ((short)fifo_data[ii+2] << 8) | fifo_data[ii+3];
 80022ca:	f8a7 e002 	strh.w	lr, [r7, #2]
        accel[2] = ((short)fifo_data[ii+4] << 8) | fifo_data[ii+5];
 80022ce:	f8a7 c004 	strh.w	ip, [r7, #4]
        sensors[0] |= INV_XYZ_ACCEL;
 80022d2:	8827      	ldrh	r7, [r4, #0]
 80022d4:	9906      	ldr	r1, [sp, #24]
 80022d6:	f047 0708 	orr.w	r7, r7, #8
 80022da:	8027      	strh	r7, [r4, #0]
    }

    if (dmp.feature_mask & DMP_FEATURE_SEND_ANY_GYRO) {
 80022dc:	f413 7fc0 	tst.w	r3, #384	; 0x180
 80022e0:	d029      	beq.n	8002336 <dmp_read_fifo+0x136>
        gyro[0] = ((short)fifo_data[ii+0] << 8) | fifo_data[ii+1];
 80022e2:	9e01      	ldr	r6, [sp, #4]
        gyro[1] = ((short)fifo_data[ii+2] << 8) | fifo_data[ii+3];
 80022e4:	9a02      	ldr	r2, [sp, #8]
        gyro[0] = ((short)fifo_data[ii+0] << 8) | fifo_data[ii+1];
 80022e6:	ab14      	add	r3, sp, #80	; 0x50
 80022e8:	441e      	add	r6, r3
        gyro[1] = ((short)fifo_data[ii+2] << 8) | fifo_data[ii+3];
 80022ea:	eb03 0c01 	add.w	ip, r3, r1
        gyro[0] = ((short)fifo_data[ii+0] << 8) | fifo_data[ii+1];
 80022ee:	4418      	add	r0, r3
        gyro[1] = ((short)fifo_data[ii+2] << 8) | fifo_data[ii+3];
 80022f0:	441a      	add	r2, r3
        gyro[2] = ((short)fifo_data[ii+4] << 8) | fifo_data[ii+5];
 80022f2:	9b03      	ldr	r3, [sp, #12]
 80022f4:	a914      	add	r1, sp, #80	; 0x50
 80022f6:	440b      	add	r3, r1
 80022f8:	461f      	mov	r7, r3
 80022fa:	9b04      	ldr	r3, [sp, #16]
        gyro[0] = ((short)fifo_data[ii+0] << 8) | fifo_data[ii+1];
 80022fc:	f810 0c20 	ldrb.w	r0, [r0, #-32]
        gyro[2] = ((short)fifo_data[ii+4] << 8) | fifo_data[ii+5];
 8002300:	440b      	add	r3, r1
        gyro[1] = ((short)fifo_data[ii+2] << 8) | fifo_data[ii+3];
 8002302:	f81c cc20 	ldrb.w	ip, [ip, #-32]
        gyro[0] = ((short)fifo_data[ii+0] << 8) | fifo_data[ii+1];
 8002306:	f816 1c20 	ldrb.w	r1, [r6, #-32]
        gyro[1] = ((short)fifo_data[ii+2] << 8) | fifo_data[ii+3];
 800230a:	f812 2c20 	ldrb.w	r2, [r2, #-32]
        gyro[2] = ((short)fifo_data[ii+4] << 8) | fifo_data[ii+5];
 800230e:	f817 6c20 	ldrb.w	r6, [r7, #-32]
 8002312:	f813 3c20 	ldrb.w	r3, [r3, #-32]
        gyro[0] = ((short)fifo_data[ii+0] << 8) | fifo_data[ii+1];
 8002316:	ea40 2101 	orr.w	r1, r0, r1, lsl #8
        gyro[2] = ((short)fifo_data[ii+4] << 8) | fifo_data[ii+5];
 800231a:	ea43 2306 	orr.w	r3, r3, r6, lsl #8
        gyro[1] = ((short)fifo_data[ii+2] << 8) | fifo_data[ii+3];
 800231e:	ea42 220c 	orr.w	r2, r2, ip, lsl #8
        gyro[0] = ((short)fifo_data[ii+0] << 8) | fifo_data[ii+1];
 8002322:	f8a9 1000 	strh.w	r1, [r9]
        gyro[1] = ((short)fifo_data[ii+2] << 8) | fifo_data[ii+3];
 8002326:	f8a9 2002 	strh.w	r2, [r9, #2]
        gyro[2] = ((short)fifo_data[ii+4] << 8) | fifo_data[ii+5];
 800232a:	f8a9 3004 	strh.w	r3, [r9, #4]
        ii += 6;
        sensors[0] |= INV_XYZ_GYRO;
 800232e:	8823      	ldrh	r3, [r4, #0]
 8002330:	f043 0370 	orr.w	r3, r3, #112	; 0x70
 8002334:	8023      	strh	r3, [r4, #0]
    }

    get_ms(timestamp);
 8002336:	9805      	ldr	r0, [sp, #20]
 8002338:	f001 fec8 	bl	80040cc <get_ms>
    return 0;
}
 800233c:	4628      	mov	r0, r5
 800233e:	b015      	add	sp, #84	; 0x54
 8002340:	e8bd 8ff0 	ldmia.w	sp!, {r4, r5, r6, r7, r8, r9, sl, fp, pc}
 8002344:	e9dd 210c 	ldrd	r2, r1, [sp, #48]	; 0x30
 8002348:	ba09      	rev	r1, r1
        quat_q14[1] = quat[1] >> 16;
 800234a:	ea4f 4c21 	mov.w	ip, r1, asr #16
        quat_mag_sq = quat_q14[0] * quat_q14[0] + quat_q14[1] * quat_q14[1] +
 800234e:	fb0c f00c 	mul.w	r0, ip, ip
 8002352:	fa92 fe82 	rev.w	lr, r2
        quat_q14[0] = quat[0] >> 16;
 8002356:	ea4f 4c2e 	mov.w	ip, lr, asr #16
        quat_mag_sq = quat_q14[0] * quat_q14[0] + quat_q14[1] * quat_q14[1] +
 800235a:	fb0c 0c0c 	mla	ip, ip, ip, r0
 800235e:	980e      	ldr	r0, [sp, #56]	; 0x38
        quat[1] = ((long)fifo_data[4] << 24) | ((long)fifo_data[5] << 16) |
 8002360:	6071      	str	r1, [r6, #4]
 8002362:	ba00      	rev	r0, r0
        quat_q14[2] = quat[2] >> 16;
 8002364:	1402      	asrs	r2, r0, #16
        quat_mag_sq = quat_q14[0] * quat_q14[0] + quat_q14[1] * quat_q14[1] +
 8002366:	fb02 cc02 	mla	ip, r2, r2, ip
 800236a:	990f      	ldr	r1, [sp, #60]	; 0x3c
        quat[0] = ((long)fifo_data[0] << 24) | ((long)fifo_data[1] << 16) |
 800236c:	f8c6 e000 	str.w	lr, [r6]
 8002370:	ba09      	rev	r1, r1
        quat_q14[3] = quat[3] >> 16;
 8002372:	140a      	asrs	r2, r1, #16
        quat_mag_sq = quat_q14[0] * quat_q14[0] + quat_q14[1] * quat_q14[1] +
 8002374:	fb02 c202 	mla	r2, r2, r2, ip
        if ((quat_mag_sq < QUAT_MAG_SQ_MIN) ||
 8002378:	f102 4271 	add.w	r2, r2, #4043309056	; 0xf1000000
 800237c:	f1b2 7f00 	cmp.w	r2, #33554432	; 0x2000000
        quat[3] = ((long)fifo_data[12] << 24) | ((long)fifo_data[13] << 16) |
 8002380:	e9c6 0102 	strd	r0, r1, [r6, #8]
        if ((quat_mag_sq < QUAT_MAG_SQ_MIN) ||
 8002384:	d81d      	bhi.n	80023c2 <dmp_read_fifo+0x1c2>
        sensors[0] |= INV_WXYZ_QUAT;
 8002386:	8822      	ldrh	r2, [r4, #0]
 8002388:	2015      	movs	r0, #21
 800238a:	f442 7280 	orr.w	r2, r2, #256	; 0x100
 800238e:	8022      	strh	r2, [r4, #0]
 8002390:	2218      	movs	r2, #24
 8002392:	9206      	str	r2, [sp, #24]
 8002394:	2214      	movs	r2, #20
 8002396:	e9cd 2003 	strd	r2, r0, [sp, #12]
 800239a:	2213      	movs	r2, #19
 800239c:	9202      	str	r2, [sp, #8]
 800239e:	2210      	movs	r2, #16
 80023a0:	f04f 0a1b 	mov.w	sl, #27
 80023a4:	f04f 0c1a 	mov.w	ip, #26
 80023a8:	f04f 0b19 	mov.w	fp, #25
 80023ac:	f04f 0817 	mov.w	r8, #23
 80023b0:	f04f 0e16 	mov.w	lr, #22
 80023b4:	2112      	movs	r1, #18
 80023b6:	2011      	movs	r0, #17
 80023b8:	9201      	str	r2, [sp, #4]
 80023ba:	e752      	b.n	8002262 <dmp_read_fifo+0x62>
        return -1;
 80023bc:	f04f 35ff 	mov.w	r5, #4294967295
 80023c0:	e7bc      	b.n	800233c <dmp_read_fifo+0x13c>
            mpu_reset_fifo();
 80023c2:	f7fe ff0b 	bl	80011dc <mpu_reset_fifo>
            sensors[0] = 0;
 80023c6:	8025      	strh	r5, [r4, #0]
            return -1;
 80023c8:	f04f 35ff 	mov.w	r5, #4294967295
 80023cc:	e7b6      	b.n	800233c <dmp_read_fifo+0x13c>
 80023ce:	bf00      	nop
 80023d0:	200003a4 	.word	0x200003a4

080023d4 <DMP_Init>:

int DMP_Init(void){
 80023d4:	b530      	push	{r4, r5, lr}
 80023d6:	b087      	sub	sp, #28

	struct int_param_s interrupt_config;//empty

	if (mpu_init(&interrupt_config)){
 80023d8:	4668      	mov	r0, sp
 80023da:	f7ff fa23 	bl	8001824 <mpu_init>
 80023de:	b110      	cbz	r0, 80023e6 <DMP_Init+0x12>
		return 1;
 80023e0:	2001      	movs	r0, #1
	if (mpu_set_dmp_state(1)){
		return 8;
	}

	return 0;
}
 80023e2:	b007      	add	sp, #28
 80023e4:	bd30      	pop	{r4, r5, pc}
	if (mpu_set_sensors(INV_XYZ_GYRO | INV_XYZ_ACCEL | INV_XYZ_COMPASS)){
 80023e6:	2079      	movs	r0, #121	; 0x79
 80023e8:	f7ff f92a 	bl	8001640 <mpu_set_sensors>
 80023ec:	2800      	cmp	r0, #0
 80023ee:	d16d      	bne.n	80024cc <DMP_Init+0xf8>
    return mpu_load_firmware(DMP_CODE_SIZE, dmp_memory, sStartAddress,
 80023f0:	23c8      	movs	r3, #200	; 0xc8
 80023f2:	f44f 6280 	mov.w	r2, #1024	; 0x400
 80023f6:	493b      	ldr	r1, [pc, #236]	; (80024e4 <DMP_Init+0x110>)
 80023f8:	f640 30f6 	movw	r0, #3062	; 0xbf6
 80023fc:	f7ff fc64 	bl	8001cc8 <mpu_load_firmware>
	if(dmp_load_motion_driver_firmware()){
 8002400:	2800      	cmp	r0, #0
 8002402:	d166      	bne.n	80024d2 <DMP_Init+0xfe>
    gyro_regs[0] = gyro_axes[orient & 3];
 8002404:	f64c 514c 	movw	r1, #52556	; 0xcd4c
    gyro_regs[1] = gyro_axes[(orient >> 3) & 3];
 8002408:	206c      	movs	r0, #108	; 0x6c
    accel_regs[0] = accel_axes[orient & 3];
 800240a:	f64c 140c 	movw	r4, #51468	; 0xc90c
    accel_regs[1] = accel_axes[(orient >> 3) & 3];
 800240e:	232c      	movs	r3, #44	; 0x2c
    gyro_regs[0] = gyro_axes[orient & 3];
 8002410:	f8ad 1004 	strh.w	r1, [sp, #4]
    gyro_regs[1] = gyro_axes[(orient >> 3) & 3];
 8002414:	f88d 0006 	strb.w	r0, [sp, #6]
    if (mpu_write_mem(FCFG_1, 3, gyro_regs))
 8002418:	aa01      	add	r2, sp, #4
 800241a:	2103      	movs	r1, #3
 800241c:	f240 4026 	movw	r0, #1062	; 0x426
    accel_regs[0] = accel_axes[orient & 3];
 8002420:	f8ad 400c 	strh.w	r4, [sp, #12]
    accel_regs[1] = accel_axes[(orient >> 3) & 3];
 8002424:	f88d 300e 	strb.w	r3, [sp, #14]
    if (mpu_write_mem(FCFG_1, 3, gyro_regs))
 8002428:	f7ff fc1c 	bl	8001c64 <mpu_write_mem>
 800242c:	2800      	cmp	r0, #0
 800242e:	d154      	bne.n	80024da <DMP_Init+0x106>
    if (mpu_write_mem(FCFG_2, 3, accel_regs))
 8002430:	ac03      	add	r4, sp, #12
 8002432:	4622      	mov	r2, r4
 8002434:	2103      	movs	r1, #3
 8002436:	f240 402a 	movw	r0, #1066	; 0x42a
 800243a:	f7ff fc13 	bl	8001c64 <mpu_write_mem>
 800243e:	2800      	cmp	r0, #0
 8002440:	d14b      	bne.n	80024da <DMP_Init+0x106>
    memcpy(gyro_regs, gyro_sign, 3);
 8002442:	f245 6236 	movw	r2, #22070	; 0x5636
 8002446:	2176      	movs	r1, #118	; 0x76
    memcpy(accel_regs, accel_sign, 3);
 8002448:	f244 6026 	movw	r0, #17958	; 0x4626
 800244c:	2366      	movs	r3, #102	; 0x66
    memcpy(gyro_regs, gyro_sign, 3);
 800244e:	f8ad 2004 	strh.w	r2, [sp, #4]
 8002452:	f88d 1006 	strb.w	r1, [sp, #6]
    memcpy(accel_regs, accel_sign, 3);
 8002456:	f8ad 000c 	strh.w	r0, [sp, #12]
    if (mpu_write_mem(FCFG_3, 3, gyro_regs))
 800245a:	aa01      	add	r2, sp, #4
 800245c:	2103      	movs	r1, #3
 800245e:	f44f 6088 	mov.w	r0, #1088	; 0x440
    memcpy(accel_regs, accel_sign, 3);
 8002462:	f88d 300e 	strb.w	r3, [sp, #14]
    if (mpu_write_mem(FCFG_3, 3, gyro_regs))
 8002466:	f7ff fbfd 	bl	8001c64 <mpu_write_mem>
 800246a:	bbb0      	cbnz	r0, 80024da <DMP_Init+0x106>
    if (mpu_write_mem(FCFG_7, 3, accel_regs))
 800246c:	4622      	mov	r2, r4
 800246e:	2103      	movs	r1, #3
 8002470:	f240 4031 	movw	r0, #1073	; 0x431
 8002474:	f7ff fbf6 	bl	8001c64 <mpu_write_mem>
 8002478:	bb78      	cbnz	r0, 80024da <DMP_Init+0x106>
    dmp.orient = orient;
 800247a:	2388      	movs	r3, #136	; 0x88
 800247c:	4d1a      	ldr	r5, [pc, #104]	; (80024e8 <DMP_Init+0x114>)
	if(dmp_enable_feature(dmp_features)){
 800247e:	f44f 70b8 	mov.w	r0, #368	; 0x170
    dmp.orient = orient;
 8002482:	812b      	strh	r3, [r5, #8]
	if(dmp_enable_feature(dmp_features)){
 8002484:	f7ff fdf6 	bl	8002074 <dmp_enable_feature>
 8002488:	bb28      	cbnz	r0, 80024d6 <DMP_Init+0x102>
    tmp[0] = (unsigned char)((div >> 8) & 0xFF);
 800248a:	f44f 7280 	mov.w	r2, #256	; 0x100
    const unsigned char regs_end[12] = {DINAFE, DINAF2, DINAAB,
 800248e:	4b17      	ldr	r3, [pc, #92]	; (80024ec <DMP_Init+0x118>)
    tmp[0] = (unsigned char)((div >> 8) & 0xFF);
 8002490:	f8ad 2004 	strh.w	r2, [sp, #4]
    const unsigned char regs_end[12] = {DINAFE, DINAF2, DINAAB,
 8002494:	e893 0007 	ldmia.w	r3, {r0, r1, r2}
 8002498:	e884 0007 	stmia.w	r4, {r0, r1, r2}
    if (mpu_write_mem(D_0_22, 2, tmp))
 800249c:	aa01      	add	r2, sp, #4
 800249e:	2102      	movs	r1, #2
 80024a0:	f240 2016 	movw	r0, #534	; 0x216
 80024a4:	f7ff fbde 	bl	8001c64 <mpu_write_mem>
 80024a8:	b9c8      	cbnz	r0, 80024de <DMP_Init+0x10a>
    if (mpu_write_mem(CFG_6, 12, (unsigned char*)regs_end))
 80024aa:	4622      	mov	r2, r4
 80024ac:	210c      	movs	r1, #12
 80024ae:	f640 20c1 	movw	r0, #2753	; 0xac1
 80024b2:	f7ff fbd7 	bl	8001c64 <mpu_write_mem>
 80024b6:	b990      	cbnz	r0, 80024de <DMP_Init+0x10a>
    dmp.fifo_rate = rate;
 80024b8:	2364      	movs	r3, #100	; 0x64
	if (mpu_set_dmp_state(1)){
 80024ba:	2001      	movs	r0, #1
    dmp.fifo_rate = rate;
 80024bc:	81ab      	strh	r3, [r5, #12]
	if (mpu_set_dmp_state(1)){
 80024be:	f7ff fca7 	bl	8001e10 <mpu_set_dmp_state>
		return 8;
 80024c2:	2800      	cmp	r0, #0
 80024c4:	bf14      	ite	ne
 80024c6:	2008      	movne	r0, #8
 80024c8:	2000      	moveq	r0, #0
 80024ca:	e78a      	b.n	80023e2 <DMP_Init+0xe>
		return 2;
 80024cc:	2002      	movs	r0, #2
}
 80024ce:	b007      	add	sp, #28
 80024d0:	bd30      	pop	{r4, r5, pc}
		return 4;//ERROR
 80024d2:	2004      	movs	r0, #4
 80024d4:	e785      	b.n	80023e2 <DMP_Init+0xe>
		return 6;
 80024d6:	2006      	movs	r0, #6
 80024d8:	e783      	b.n	80023e2 <DMP_Init+0xe>
		return 5;
 80024da:	2005      	movs	r0, #5
 80024dc:	e781      	b.n	80023e2 <DMP_Init+0xe>
		return 7;
 80024de:	2007      	movs	r0, #7
 80024e0:	e77f      	b.n	80023e2 <DMP_Init+0xe>
 80024e2:	bf00      	nop
 80024e4:	0800b788 	.word	0x0800b788
 80024e8:	200003a4 	.word	0x200003a4
 80024ec:	0800b6b8 	.word	0x0800b6b8

080024f0 <SystemClock_Config>:
/**
  * @brief System Clock Configuration
  * @retval None
  */
void SystemClock_Config(void)
{
 80024f0:	b530      	push	{r4, r5, lr}
  RCC_ClkInitTypeDef RCC_ClkInitStruct = {0};
  RCC_PeriphCLKInitTypeDef PeriphClkInit = {0};

  /** Initializes the CPU, AHB and APB busses clocks 
  */
  RCC_OscInitStruct.OscillatorType = RCC_OSCILLATORTYPE_HSE;
 80024f2:	2201      	movs	r2, #1
  RCC_OscInitTypeDef RCC_OscInitStruct = {0};
 80024f4:	2400      	movs	r4, #0
  RCC_OscInitStruct.HSEState = RCC_HSE_ON;
 80024f6:	f44f 3380 	mov.w	r3, #65536	; 0x10000
  RCC_OscInitStruct.HSEPredivValue = RCC_HSE_PREDIV_DIV1;
  RCC_OscInitStruct.HSIState = RCC_HSI_ON;
  RCC_OscInitStruct.PLL.PLLState = RCC_PLL_ON;
 80024fa:	2502      	movs	r5, #2
  RCC_OscInitStruct.PLL.PLLSource = RCC_PLLSOURCE_HSE;
  RCC_OscInitStruct.PLL.PLLMUL = RCC_PLL_MUL9;
 80024fc:	f44f 11e0 	mov.w	r1, #1835008	; 0x1c0000
{
 8002500:	b095      	sub	sp, #84	; 0x54
  if (HAL_RCC_OscConfig(&RCC_OscInitStruct) != HAL_OK)
 8002502:	a80a      	add	r0, sp, #40	; 0x28
  RCC_OscInitStruct.OscillatorType = RCC_OSCILLATORTYPE_HSE;
 8002504:	920a      	str	r2, [sp, #40]	; 0x28
  RCC_OscInitStruct.HSIState = RCC_HSI_ON;
 8002506:	920e      	str	r2, [sp, #56]	; 0x38
  RCC_OscInitStruct.HSEState = RCC_HSE_ON;
 8002508:	930b      	str	r3, [sp, #44]	; 0x2c
  RCC_OscInitStruct.PLL.PLLSource = RCC_PLLSOURCE_HSE;
 800250a:	9312      	str	r3, [sp, #72]	; 0x48
  RCC_OscInitStruct.PLL.PLLMUL = RCC_PLL_MUL9;
 800250c:	9113      	str	r1, [sp, #76]	; 0x4c
  RCC_OscInitTypeDef RCC_OscInitStruct = {0};
 800250e:	940c      	str	r4, [sp, #48]	; 0x30
  RCC_ClkInitTypeDef RCC_ClkInitStruct = {0};
 8002510:	9405      	str	r4, [sp, #20]
  RCC_PeriphCLKInitTypeDef PeriphClkInit = {0};
 8002512:	9401      	str	r4, [sp, #4]
  RCC_OscInitTypeDef RCC_OscInitStruct = {0};
 8002514:	940d      	str	r4, [sp, #52]	; 0x34
 8002516:	e9cd 440f 	strd	r4, r4, [sp, #60]	; 0x3c
  RCC_ClkInitTypeDef RCC_ClkInitStruct = {0};
 800251a:	e9cd 4406 	strd	r4, r4, [sp, #24]
 800251e:	e9cd 4408 	strd	r4, r4, [sp, #32]
  RCC_PeriphCLKInitTypeDef PeriphClkInit = {0};
 8002522:	e9cd 4402 	strd	r4, r4, [sp, #8]
 8002526:	9404      	str	r4, [sp, #16]
  RCC_OscInitStruct.PLL.PLLState = RCC_PLL_ON;
 8002528:	9511      	str	r5, [sp, #68]	; 0x44
  if (HAL_RCC_OscConfig(&RCC_OscInitStruct) != HAL_OK)
 800252a:	f003 fe1d 	bl	8006168 <HAL_RCC_OscConfig>
  {
    Error_Handler();
  }
  /** Initializes the CPU, AHB and APB busses clocks 
  */
  RCC_ClkInitStruct.ClockType = RCC_CLOCKTYPE_HCLK|RCC_CLOCKTYPE_SYSCLK
 800252e:	220f      	movs	r2, #15
                              |RCC_CLOCKTYPE_PCLK1|RCC_CLOCKTYPE_PCLK2;
  RCC_ClkInitStruct.SYSCLKSource = RCC_SYSCLKSOURCE_PLLCLK;
  RCC_ClkInitStruct.AHBCLKDivider = RCC_SYSCLK_DIV1;
  RCC_ClkInitStruct.APB1CLKDivider = RCC_HCLK_DIV2;
 8002530:	f44f 6380 	mov.w	r3, #1024	; 0x400
  RCC_ClkInitStruct.APB2CLKDivider = RCC_HCLK_DIV1;

  if (HAL_RCC_ClockConfig(&RCC_ClkInitStruct, FLASH_LATENCY_2) != HAL_OK)
 8002534:	4629      	mov	r1, r5
 8002536:	a805      	add	r0, sp, #20
  RCC_ClkInitStruct.ClockType = RCC_CLOCKTYPE_HCLK|RCC_CLOCKTYPE_SYSCLK
 8002538:	9205      	str	r2, [sp, #20]
  RCC_ClkInitStruct.APB1CLKDivider = RCC_HCLK_DIV2;
 800253a:	9308      	str	r3, [sp, #32]
  RCC_ClkInitStruct.SYSCLKSource = RCC_SYSCLKSOURCE_PLLCLK;
 800253c:	9506      	str	r5, [sp, #24]
  RCC_ClkInitStruct.AHBCLKDivider = RCC_SYSCLK_DIV1;
 800253e:	9407      	str	r4, [sp, #28]
  RCC_ClkInitStruct.APB2CLKDivider = RCC_HCLK_DIV1;
 8002540:	9409      	str	r4, [sp, #36]	; 0x24
  if (HAL_RCC_ClockConfig(&RCC_ClkInitStruct, FLASH_LATENCY_2) != HAL_OK)
 8002542:	f004 f809 	bl	8006558 <HAL_RCC_ClockConfig>
  {
    Error_Handler();
  }
  PeriphClkInit.PeriphClockSelection = RCC_PERIPHCLK_USB;
 8002546:	2310      	movs	r3, #16
  PeriphClkInit.UsbClockSelection = RCC_USBCLKSOURCE_PLL_DIV1_5;
  if (HAL_RCCEx_PeriphCLKConfig(&PeriphClkInit) != HAL_OK)
 8002548:	a801      	add	r0, sp, #4
  PeriphClkInit.UsbClockSelection = RCC_USBCLKSOURCE_PLL_DIV1_5;
 800254a:	9404      	str	r4, [sp, #16]
  PeriphClkInit.PeriphClockSelection = RCC_PERIPHCLK_USB;
 800254c:	9301      	str	r3, [sp, #4]
  if (HAL_RCCEx_PeriphCLKConfig(&PeriphClkInit) != HAL_OK)
 800254e:	f004 f8ef 	bl	8006730 <HAL_RCCEx_PeriphCLKConfig>
  {
    Error_Handler();
  }
}
 8002552:	b015      	add	sp, #84	; 0x54
 8002554:	bd30      	pop	{r4, r5, pc}
 8002556:	bf00      	nop

08002558 <main>:
{
 8002558:	e92d 4ff0 	stmdb	sp!, {r4, r5, r6, r7, r8, r9, sl, fp, lr}
	ximu_state = XIMU_STATE_STM_INIT;
 800255c:	2400      	movs	r4, #0
 800255e:	4fb2      	ldr	r7, [pc, #712]	; (8002828 <main+0x2d0>)
{
 8002560:	b0ab      	sub	sp, #172	; 0xac
	ximu_state = XIMU_STATE_STM_INIT;
 8002562:	703c      	strb	r4, [r7, #0]
  HAL_Init();
 8002564:	f002 f972 	bl	800484c <HAL_Init>
  SystemClock_Config();
 8002568:	f7ff ffc2 	bl	80024f0 <SystemClock_Config>
  * @param None
  * @retval None
  */
static void MX_GPIO_Init(void)
{
  GPIO_InitTypeDef GPIO_InitStruct = {0};
 800256c:	e9cd 441e 	strd	r4, r4, [sp, #120]	; 0x78
 8002570:	e9cd 4420 	strd	r4, r4, [sp, #128]	; 0x80

  /* GPIO Ports Clock Enable */
  __HAL_RCC_GPIOC_CLK_ENABLE();
 8002574:	4dad      	ldr	r5, [pc, #692]	; (800282c <main+0x2d4>)
  __HAL_RCC_GPIOD_CLK_ENABLE();
  __HAL_RCC_GPIOA_CLK_ENABLE();
  __HAL_RCC_GPIOB_CLK_ENABLE();

  /*Configure GPIO pin Output Level */
  HAL_GPIO_WritePin(GPIOC, GPIO_PIN_13, GPIO_PIN_RESET);
 8002576:	4622      	mov	r2, r4
  __HAL_RCC_GPIOC_CLK_ENABLE();
 8002578:	69ab      	ldr	r3, [r5, #24]
  HAL_GPIO_WritePin(GPIOC, GPIO_PIN_13, GPIO_PIN_RESET);
 800257a:	f44f 5100 	mov.w	r1, #8192	; 0x2000
  __HAL_RCC_GPIOC_CLK_ENABLE();
 800257e:	f043 0310 	orr.w	r3, r3, #16
 8002582:	61ab      	str	r3, [r5, #24]
 8002584:	69ab      	ldr	r3, [r5, #24]
  HAL_GPIO_WritePin(GPIOC, GPIO_PIN_13, GPIO_PIN_RESET);
 8002586:	48aa      	ldr	r0, [pc, #680]	; (8002830 <main+0x2d8>)
  __HAL_RCC_GPIOC_CLK_ENABLE();
 8002588:	f003 0310 	and.w	r3, r3, #16
 800258c:	9301      	str	r3, [sp, #4]
 800258e:	9b01      	ldr	r3, [sp, #4]
  __HAL_RCC_GPIOD_CLK_ENABLE();
 8002590:	69ab      	ldr	r3, [r5, #24]

  /*Configure GPIO pin : PC13 */
  GPIO_InitStruct.Pin = GPIO_PIN_13;
  GPIO_InitStruct.Mode = GPIO_MODE_OUTPUT_PP;
 8002592:	f04f 0901 	mov.w	r9, #1
  __HAL_RCC_GPIOD_CLK_ENABLE();
 8002596:	f043 0320 	orr.w	r3, r3, #32
 800259a:	61ab      	str	r3, [r5, #24]
 800259c:	69ab      	ldr	r3, [r5, #24]
  GPIO_InitStruct.Pull = GPIO_NOPULL;
  GPIO_InitStruct.Speed = GPIO_SPEED_FREQ_LOW;
 800259e:	f04f 0802 	mov.w	r8, #2
  __HAL_RCC_GPIOD_CLK_ENABLE();
 80025a2:	f003 0320 	and.w	r3, r3, #32
 80025a6:	9302      	str	r3, [sp, #8]
 80025a8:	9b02      	ldr	r3, [sp, #8]
  __HAL_RCC_GPIOA_CLK_ENABLE();
 80025aa:	69ab      	ldr	r3, [r5, #24]
  hi2c1.Instance = I2C1;
 80025ac:	4ea1      	ldr	r6, [pc, #644]	; (8002834 <main+0x2dc>)
  __HAL_RCC_GPIOA_CLK_ENABLE();
 80025ae:	f043 0304 	orr.w	r3, r3, #4
 80025b2:	61ab      	str	r3, [r5, #24]
 80025b4:	69ab      	ldr	r3, [r5, #24]
  sClockSourceConfig.ClockSource = TIM_CLOCKSOURCE_INTERNAL;
 80025b6:	f44f 5a80 	mov.w	sl, #4096	; 0x1000
  __HAL_RCC_GPIOA_CLK_ENABLE();
 80025ba:	f003 0304 	and.w	r3, r3, #4
 80025be:	9303      	str	r3, [sp, #12]
 80025c0:	9b03      	ldr	r3, [sp, #12]
  __HAL_RCC_GPIOB_CLK_ENABLE();
 80025c2:	69ab      	ldr	r3, [r5, #24]
  htim2.Instance = TIM2;
 80025c4:	f8df b29c 	ldr.w	fp, [pc, #668]	; 8002864 <main+0x30c>
  __HAL_RCC_GPIOB_CLK_ENABLE();
 80025c8:	f043 0308 	orr.w	r3, r3, #8
 80025cc:	61ab      	str	r3, [r5, #24]
 80025ce:	69ab      	ldr	r3, [r5, #24]
 80025d0:	f003 0308 	and.w	r3, r3, #8
 80025d4:	9304      	str	r3, [sp, #16]
 80025d6:	9b04      	ldr	r3, [sp, #16]
  HAL_GPIO_WritePin(GPIOC, GPIO_PIN_13, GPIO_PIN_RESET);
 80025d8:	f002 fbe4 	bl	8004da4 <HAL_GPIO_WritePin>
  GPIO_InitStruct.Pin = GPIO_PIN_13;
 80025dc:	f44f 5300 	mov.w	r3, #8192	; 0x2000
  HAL_GPIO_Init(GPIOC, &GPIO_InitStruct);
 80025e0:	a91e      	add	r1, sp, #120	; 0x78
 80025e2:	4893      	ldr	r0, [pc, #588]	; (8002830 <main+0x2d8>)
  GPIO_InitStruct.Mode = GPIO_MODE_OUTPUT_PP;
 80025e4:	e9cd 391e 	strd	r3, r9, [sp, #120]	; 0x78
  GPIO_InitStruct.Pull = GPIO_NOPULL;
 80025e8:	9420      	str	r4, [sp, #128]	; 0x80
  GPIO_InitStruct.Speed = GPIO_SPEED_FREQ_LOW;
 80025ea:	f8cd 8084 	str.w	r8, [sp, #132]	; 0x84
  HAL_GPIO_Init(GPIOC, &GPIO_InitStruct);
 80025ee:	f002 fadf 	bl	8004bb0 <HAL_GPIO_Init>
  __HAL_RCC_DMA1_CLK_ENABLE();
 80025f2:	696b      	ldr	r3, [r5, #20]
  HAL_NVIC_SetPriority(DMA1_Channel5_IRQn, 0, 0);
 80025f4:	4622      	mov	r2, r4
  __HAL_RCC_DMA1_CLK_ENABLE();
 80025f6:	ea43 0309 	orr.w	r3, r3, r9
 80025fa:	616b      	str	r3, [r5, #20]
 80025fc:	696b      	ldr	r3, [r5, #20]
  HAL_NVIC_SetPriority(DMA1_Channel5_IRQn, 0, 0);
 80025fe:	4621      	mov	r1, r4
  __HAL_RCC_DMA1_CLK_ENABLE();
 8002600:	ea03 0309 	and.w	r3, r3, r9
 8002604:	9300      	str	r3, [sp, #0]
  HAL_NVIC_SetPriority(DMA1_Channel5_IRQn, 0, 0);
 8002606:	200f      	movs	r0, #15
  __HAL_RCC_DMA1_CLK_ENABLE();
 8002608:	9b00      	ldr	r3, [sp, #0]
  HAL_NVIC_SetPriority(DMA1_Channel5_IRQn, 0, 0);
 800260a:	f002 f967 	bl	80048dc <HAL_NVIC_SetPriority>
  HAL_NVIC_EnableIRQ(DMA1_Channel5_IRQn);
 800260e:	200f      	movs	r0, #15
 8002610:	f002 f99a 	bl	8004948 <HAL_NVIC_EnableIRQ>
  hi2c1.Init.AddressingMode = I2C_ADDRESSINGMODE_7BIT;
 8002614:	f44f 4380 	mov.w	r3, #16384	; 0x4000
  hi2c1.Instance = I2C1;
 8002618:	4987      	ldr	r1, [pc, #540]	; (8002838 <main+0x2e0>)
  hi2c1.Init.ClockSpeed = 100000;
 800261a:	4a88      	ldr	r2, [pc, #544]	; (800283c <main+0x2e4>)
  if (HAL_I2C_Init(&hi2c1) != HAL_OK)
 800261c:	4630      	mov	r0, r6
  hi2c1.Init.ClockSpeed = 100000;
 800261e:	e9c6 1200 	strd	r1, r2, [r6]
  hi2c1.Init.AddressingMode = I2C_ADDRESSINGMODE_7BIT;
 8002622:	6133      	str	r3, [r6, #16]
  hi2c1.Init.OwnAddress1 = 0;
 8002624:	e9c6 4402 	strd	r4, r4, [r6, #8]
  hi2c1.Init.OwnAddress2 = 0;
 8002628:	e9c6 4405 	strd	r4, r4, [r6, #20]
  hi2c1.Init.NoStretchMode = I2C_NOSTRETCH_DISABLE;
 800262c:	e9c6 4407 	strd	r4, r4, [r6, #28]
  if (HAL_I2C_Init(&hi2c1) != HAL_OK)
 8002630:	f002 fddc 	bl	80051ec <HAL_I2C_Init>
  MX_USB_DEVICE_Init();
 8002634:	f005 fe02 	bl	800823c <MX_USB_DEVICE_Init>
  htim2.Init.Period = 1250;
 8002638:	f240 42e2 	movw	r2, #1250	; 0x4e2
  htim2.Init.Prescaler = 7200;
 800263c:	f44f 53e1 	mov.w	r3, #7200	; 0x1c20
  htim2.Instance = TIM2;
 8002640:	f04f 4180 	mov.w	r1, #1073741824	; 0x40000000
  if (HAL_TIM_Base_Init(&htim2) != HAL_OK)
 8002644:	4658      	mov	r0, fp
  htim2.Init.Period = 1250;
 8002646:	f8cb 200c 	str.w	r2, [fp, #12]
  htim2.Init.Prescaler = 7200;
 800264a:	f8cb 3004 	str.w	r3, [fp, #4]
  htim2.Instance = TIM2;
 800264e:	f8cb 1000 	str.w	r1, [fp]
  TIM_ClockConfigTypeDef sClockSourceConfig = {0};
 8002652:	e9cd 441e 	strd	r4, r4, [sp, #120]	; 0x78
 8002656:	e9cd 4420 	strd	r4, r4, [sp, #128]	; 0x80
  TIM_MasterConfigTypeDef sMasterConfig = {0};
 800265a:	e9cd 441a 	strd	r4, r4, [sp, #104]	; 0x68
  htim2.Init.CounterMode = TIM_COUNTERMODE_UP;
 800265e:	f8cb 4008 	str.w	r4, [fp, #8]
  htim2.Init.ClockDivision = TIM_CLOCKDIVISION_DIV1;
 8002662:	f8cb 4010 	str.w	r4, [fp, #16]
  htim2.Init.AutoReloadPreload = TIM_AUTORELOAD_PRELOAD_DISABLE;
 8002666:	f8cb 4018 	str.w	r4, [fp, #24]
  if (HAL_TIM_Base_Init(&htim2) != HAL_OK)
 800266a:	f004 f8e3 	bl	8006834 <HAL_TIM_Base_Init>
  if (HAL_TIM_ConfigClockSource(&htim2, &sClockSourceConfig) != HAL_OK)
 800266e:	a91e      	add	r1, sp, #120	; 0x78
 8002670:	4658      	mov	r0, fp
  sClockSourceConfig.ClockSource = TIM_CLOCKSOURCE_INTERNAL;
 8002672:	f8cd a078 	str.w	sl, [sp, #120]	; 0x78
  if (HAL_TIM_ConfigClockSource(&htim2, &sClockSourceConfig) != HAL_OK)
 8002676:	f004 f93b 	bl	80068f0 <HAL_TIM_ConfigClockSource>
  if (HAL_TIMEx_MasterConfigSynchronization(&htim2, &sMasterConfig) != HAL_OK)
 800267a:	a91a      	add	r1, sp, #104	; 0x68
 800267c:	4658      	mov	r0, fp
  sMasterConfig.MasterSlaveMode = TIM_MASTERSLAVEMODE_DISABLE;
 800267e:	e9cd 441a 	strd	r4, r4, [sp, #104]	; 0x68
  if (HAL_TIMEx_MasterConfigSynchronization(&htim2, &sMasterConfig) != HAL_OK)
 8002682:	f004 fa8f 	bl	8006ba4 <HAL_TIMEx_MasterConfigSynchronization>
  htim3.Init.Period = 50;
 8002686:	2232      	movs	r2, #50	; 0x32
  htim3.Init.Prescaler = 7200;
 8002688:	f44f 53e1 	mov.w	r3, #7200	; 0x1c20
  htim3.Instance = TIM3;
 800268c:	4d6c      	ldr	r5, [pc, #432]	; (8002840 <main+0x2e8>)
 800268e:	496d      	ldr	r1, [pc, #436]	; (8002844 <main+0x2ec>)
  if (HAL_TIM_Base_Init(&htim3) != HAL_OK)
 8002690:	4628      	mov	r0, r5
  htim3.Init.Prescaler = 7200;
 8002692:	606b      	str	r3, [r5, #4]
  htim3.Init.Period = 50;
 8002694:	60ea      	str	r2, [r5, #12]
  htim3.Instance = TIM3;
 8002696:	6029      	str	r1, [r5, #0]
  TIM_ClockConfigTypeDef sClockSourceConfig = {0};
 8002698:	e9cd 441e 	strd	r4, r4, [sp, #120]	; 0x78
 800269c:	e9cd 4420 	strd	r4, r4, [sp, #128]	; 0x80
  TIM_MasterConfigTypeDef sMasterConfig = {0};
 80026a0:	e9cd 441a 	strd	r4, r4, [sp, #104]	; 0x68
  htim3.Init.CounterMode = TIM_COUNTERMODE_UP;
 80026a4:	60ac      	str	r4, [r5, #8]
  htim3.Init.ClockDivision = TIM_CLOCKDIVISION_DIV1;
 80026a6:	612c      	str	r4, [r5, #16]
  htim3.Init.AutoReloadPreload = TIM_AUTORELOAD_PRELOAD_DISABLE;
 80026a8:	61ac      	str	r4, [r5, #24]
  if (HAL_TIM_Base_Init(&htim3) != HAL_OK)
 80026aa:	f004 f8c3 	bl	8006834 <HAL_TIM_Base_Init>
  if (HAL_TIM_ConfigClockSource(&htim3, &sClockSourceConfig) != HAL_OK)
 80026ae:	a91e      	add	r1, sp, #120	; 0x78
 80026b0:	4628      	mov	r0, r5
  sClockSourceConfig.ClockSource = TIM_CLOCKSOURCE_INTERNAL;
 80026b2:	f8cd a078 	str.w	sl, [sp, #120]	; 0x78
  if (HAL_TIM_ConfigClockSource(&htim3, &sClockSourceConfig) != HAL_OK)
 80026b6:	f004 f91b 	bl	80068f0 <HAL_TIM_ConfigClockSource>
  if (HAL_TIMEx_MasterConfigSynchronization(&htim3, &sMasterConfig) != HAL_OK)
 80026ba:	a91a      	add	r1, sp, #104	; 0x68
 80026bc:	4628      	mov	r0, r5
  sMasterConfig.MasterSlaveMode = TIM_MASTERSLAVEMODE_DISABLE;
 80026be:	e9cd 441a 	strd	r4, r4, [sp, #104]	; 0x68
  if (HAL_TIMEx_MasterConfigSynchronization(&htim3, &sMasterConfig) != HAL_OK)
 80026c2:	f004 fa6f 	bl	8006ba4 <HAL_TIMEx_MasterConfigSynchronization>
  huart1.Init.BaudRate = 115200;
 80026c6:	f44f 31e1 	mov.w	r1, #115200	; 0x1c200
  huart1.Init.Mode = UART_MODE_TX_RX;
 80026ca:	220c      	movs	r2, #12
  huart1.Instance = USART1;
 80026cc:	f8df a198 	ldr.w	sl, [pc, #408]	; 8002868 <main+0x310>
 80026d0:	4b5d      	ldr	r3, [pc, #372]	; (8002848 <main+0x2f0>)
  if (HAL_UART_Init(&huart1) != HAL_OK)
 80026d2:	4650      	mov	r0, sl
  huart1.Init.BaudRate = 115200;
 80026d4:	e9ca 3100 	strd	r3, r1, [sl]
  huart1.Init.Mode = UART_MODE_TX_RX;
 80026d8:	f8ca 2014 	str.w	r2, [sl, #20]
  huart1.Init.StopBits = UART_STOPBITS_1;
 80026dc:	e9ca 4402 	strd	r4, r4, [sl, #8]
  huart1.Init.Parity = UART_PARITY_NONE;
 80026e0:	f8ca 4010 	str.w	r4, [sl, #16]
  huart1.Init.OverSampling = UART_OVERSAMPLING_16;
 80026e4:	e9ca 4406 	strd	r4, r4, [sl, #24]
  if (HAL_UART_Init(&huart1) != HAL_OK)
 80026e8:	f004 fa82 	bl	8006bf0 <HAL_UART_Init>
  systickInit();
 80026ec:	f002 f852 	bl	8004794 <systickInit>
  HAL_TIM_Base_Start_IT(&htim2);
 80026f0:	4658      	mov	r0, fp
 80026f2:	f004 f8ed 	bl	80068d0 <HAL_TIM_Base_Start_IT>
  led_set(LED_INIT);
 80026f6:	20cc      	movs	r0, #204	; 0xcc
 80026f8:	f001 fcba 	bl	8004070 <led_set>
  HAL_Delay(1000);//blink to show system (stm32, especially the crystal) is ok
 80026fc:	f44f 707a 	mov.w	r0, #1000	; 0x3e8
 8002700:	f002 f8c8 	bl	8004894 <HAL_Delay>
  led_set(LED_FAULT);//Will not notice LED blinking unless the following initialization takes longer than expected
 8002704:	20aa      	movs	r0, #170	; 0xaa
  ximu_state = XIMU_STATE_DMP_INIT;
 8002706:	f887 9000 	strb.w	r9, [r7]
  led_set(LED_FAULT);//Will not notice LED blinking unless the following initialization takes longer than expected
 800270a:	f001 fcb1 	bl	8004070 <led_set>
  mpu_set_i2c(&hi2c1);
 800270e:	4630      	mov	r0, r6
 8002710:	f001 fcb4 	bl	800407c <mpu_set_i2c>
  ms5611_set_i2c(&hi2c1);
 8002714:	4630      	mov	r0, r6
 8002716:	f001 fce1 	bl	80040dc <ms5611_set_i2c>
  ms5611_init();
 800271a:	f001 fce5 	bl	80040e8 <ms5611_init>
  ms5611_update();
 800271e:	f001 fd63 	bl	80041e8 <ms5611_update>
  GNSS_set_huart(&huart1);
 8002722:	4650      	mov	r0, sl
 8002724:	f001 fa36 	bl	8003b94 <GNSS_set_huart>
  GNSS_Init();
 8002728:	f001 fa3a 	bl	8003ba0 <GNSS_Init>
  int dmp_state = DMP_Init();
 800272c:	f7ff fe52 	bl	80023d4 <DMP_Init>
  if (dmp_state){
 8002730:	b100      	cbz	r0, 8002734 <main+0x1dc>
 8002732:	e7fe      	b.n	8002732 <main+0x1da>
 8002734:	4606      	mov	r6, r0
  while (hUsbDeviceFS.dev_state != USBD_STATE_CONFIGURED){
 8002736:	4c45      	ldr	r4, [pc, #276]	; (800284c <main+0x2f4>)
  HAL_TIM_Base_Start_IT(&htim3);//start updating sensor data
 8002738:	4628      	mov	r0, r5
 800273a:	f004 f8c9 	bl	80068d0 <HAL_TIM_Base_Start_IT>
  led_set(LED_DISCONNECTED);//Fault cleared
 800273e:	4630      	mov	r0, r6
  ximu_state = XIMU_STATE_GPS_INIT;
 8002740:	f887 8000 	strb.w	r8, [r7]
  led_set(LED_DISCONNECTED);//Fault cleared
 8002744:	f001 fc94 	bl	8004070 <led_set>
  while (hUsbDeviceFS.dev_state != USBD_STATE_CONFIGURED){
 8002748:	f894 329c 	ldrb.w	r3, [r4, #668]	; 0x29c
 800274c:	2b03      	cmp	r3, #3
 800274e:	d006      	beq.n	800275e <main+0x206>
	  led_set(LED_DISCONNECTED);//wait for connection
 8002750:	2000      	movs	r0, #0
 8002752:	f001 fc8d 	bl	8004070 <led_set>
  while (hUsbDeviceFS.dev_state != USBD_STATE_CONFIGURED){
 8002756:	f894 329c 	ldrb.w	r3, [r4, #668]	; 0x29c
 800275a:	2b03      	cmp	r3, #3
 800275c:	d1f8      	bne.n	8002750 <main+0x1f8>
  led_set(LED_IDLE);//connection formed
 800275e:	20ff      	movs	r0, #255	; 0xff
 8002760:	f001 fc86 	bl	8004070 <led_set>
 8002764:	4d3a      	ldr	r5, [pc, #232]	; (8002850 <main+0x2f8>)
	  q1.pData[0] = 1.2;
 8002766:	f8df 9104 	ldr.w	r9, [pc, #260]	; 800286c <main+0x314>
	  q1.pData[1] = 2.1;
 800276a:	f8df 8104 	ldr.w	r8, [pc, #260]	; 8002870 <main+0x318>
	  q1.pData[2] = 3.23;
 800276e:	4f39      	ldr	r7, [pc, #228]	; (8002854 <main+0x2fc>)
	  q1.pData[3] = 5.04;
 8002770:	4e39      	ldr	r6, [pc, #228]	; (8002858 <main+0x300>)
 8002772:	ac0f      	add	r4, sp, #60	; 0x3c
	  led_set(LED_MEASURING);
 8002774:	20fe      	movs	r0, #254	; 0xfe
 8002776:	f001 fc7b 	bl	8004070 <led_set>
	  float32_t v_data[3*1] = {1,2,3};
 800277a:	e895 0007 	ldmia.w	r5, {r0, r1, r2}
	  float32_t q1_data[4*1] = {0};
 800277e:	2300      	movs	r3, #0
	  float32_t v_data[3*1] = {1,2,3};
 8002780:	e884 0007 	stmia.w	r4, {r0, r1, r2}
	  float32_t jacob_data[3*4] = {0};
 8002784:	4619      	mov	r1, r3
 8002786:	2230      	movs	r2, #48	; 0x30
 8002788:	a81e      	add	r0, sp, #120	; 0x78
	  float32_t q1_data[4*1] = {0};
 800278a:	e9cd 3312 	strd	r3, r3, [sp, #72]	; 0x48
 800278e:	e9cd 3314 	strd	r3, r3, [sp, #80]	; 0x50
	  float32_t q2_data[4*1] = {0};
 8002792:	e9cd 3316 	strd	r3, r3, [sp, #88]	; 0x58
 8002796:	e9cd 3318 	strd	r3, r3, [sp, #96]	; 0x60
	  float32_t q_res_data[4*1] = {0};
 800279a:	e9cd 331a 	strd	r3, r3, [sp, #104]	; 0x68
 800279e:	e9cd 331c 	strd	r3, r3, [sp, #112]	; 0x70
	  float32_t jacob_data[3*4] = {0};
 80027a2:	f006 f939 	bl	8008a18 <memset>
	  arm_mat_init_f32(&q1,4,1,q1_data);
 80027a6:	ab12      	add	r3, sp, #72	; 0x48
 80027a8:	a805      	add	r0, sp, #20
 80027aa:	2201      	movs	r2, #1
 80027ac:	2104      	movs	r1, #4
 80027ae:	f006 f8c9 	bl	8008944 <arm_mat_init_f32>
	  arm_mat_init_f32(&q2,4,1,q2_data);
 80027b2:	ab16      	add	r3, sp, #88	; 0x58
 80027b4:	a807      	add	r0, sp, #28
 80027b6:	2201      	movs	r2, #1
 80027b8:	2104      	movs	r1, #4
 80027ba:	f006 f8c3 	bl	8008944 <arm_mat_init_f32>
	  arm_mat_init_f32(&q_res,4,1,q_res_data);
 80027be:	ab1a      	add	r3, sp, #104	; 0x68
 80027c0:	a809      	add	r0, sp, #36	; 0x24
 80027c2:	2201      	movs	r2, #1
 80027c4:	2104      	movs	r1, #4
 80027c6:	f006 f8bd 	bl	8008944 <arm_mat_init_f32>
	  arm_mat_init_f32(&v,3,1,v_data);
 80027ca:	4623      	mov	r3, r4
 80027cc:	a80b      	add	r0, sp, #44	; 0x2c
 80027ce:	2201      	movs	r2, #1
 80027d0:	2103      	movs	r1, #3
 80027d2:	f006 f8b7 	bl	8008944 <arm_mat_init_f32>
	  arm_mat_init_f32(&jacob,4,3,jacob_data);
 80027d6:	ab1e      	add	r3, sp, #120	; 0x78
 80027d8:	a80d      	add	r0, sp, #52	; 0x34
 80027da:	2203      	movs	r2, #3
 80027dc:	2104      	movs	r1, #4
 80027de:	f006 f8b1 	bl	8008944 <arm_mat_init_f32>
	  q1.pData[0] = 1.2;
 80027e2:	9a06      	ldr	r2, [sp, #24]
	  q2.pData[0] = -0.3;
 80027e4:	9b08      	ldr	r3, [sp, #32]
 80027e6:	f8df e08c 	ldr.w	lr, [pc, #140]	; 8002874 <main+0x31c>
	  q2.pData[1] = 0.978;
 80027ea:	f8df c08c 	ldr.w	ip, [pc, #140]	; 8002878 <main+0x320>
	  q2.pData[2] = 0.12;
 80027ee:	481b      	ldr	r0, [pc, #108]	; (800285c <main+0x304>)
	  q2.pData[3] = 3.22;
 80027f0:	491b      	ldr	r1, [pc, #108]	; (8002860 <main+0x308>)
	  q1.pData[0] = 1.2;
 80027f2:	f8c2 9000 	str.w	r9, [r2]
	  q1.pData[1] = 2.1;
 80027f6:	f8c2 8004 	str.w	r8, [r2, #4]
	  q1.pData[2] = 3.23;
 80027fa:	6097      	str	r7, [r2, #8]
	  q1.pData[3] = 5.04;
 80027fc:	60d6      	str	r6, [r2, #12]
	  q2.pData[0] = -0.3;
 80027fe:	f8c3 e000 	str.w	lr, [r3]
	  q2.pData[1] = 0.978;
 8002802:	f8c3 c004 	str.w	ip, [r3, #4]
	  q2.pData[2] = 0.12;
 8002806:	6098      	str	r0, [r3, #8]
	  q2.pData[3] = 3.22;
 8002808:	60d9      	str	r1, [r3, #12]
	  __NOP();
 800280a:	bf00      	nop
	  otimes(&q1,&q2,&q_res);
 800280c:	aa09      	add	r2, sp, #36	; 0x24
 800280e:	a907      	add	r1, sp, #28
 8002810:	a805      	add	r0, sp, #20
 8002812:	f001 ff51 	bl	80046b8 <otimes>
	  diff_q_diff_dtheta(&q1,&jacob);
 8002816:	a805      	add	r0, sp, #20
 8002818:	a90d      	add	r1, sp, #52	; 0x34
 800281a:	f001 ff8d 	bl	8004738 <diff_q_diff_dtheta>
	  HAL_Delay(10);
 800281e:	200a      	movs	r0, #10
 8002820:	f002 f838 	bl	8004894 <HAL_Delay>
 8002824:	e7a6      	b.n	8002774 <main+0x21c>
 8002826:	bf00      	nop
 8002828:	20000790 	.word	0x20000790
 800282c:	40021000 	.word	0x40021000
 8002830:	40011000 	.word	0x40011000
 8002834:	200006a0 	.word	0x200006a0
 8002838:	40005400 	.word	0x40005400
 800283c:	000186a0 	.word	0x000186a0
 8002840:	200006f4 	.word	0x200006f4
 8002844:	40000400 	.word	0x40000400
 8002848:	40013800 	.word	0x40013800
 800284c:	20000d2c 	.word	0x20000d2c
 8002850:	0800b6f4 	.word	0x0800b6f4
 8002854:	404eb852 	.word	0x404eb852
 8002858:	40a147ae 	.word	0x40a147ae
 800285c:	3df5c28f 	.word	0x3df5c28f
 8002860:	404e147b 	.word	0x404e147b
 8002864:	200007d8 	.word	0x200007d8
 8002868:	20000794 	.word	0x20000794
 800286c:	3f99999a 	.word	0x3f99999a
 8002870:	40066666 	.word	0x40066666
 8002874:	be99999a 	.word	0xbe99999a
 8002878:	3f7a5e35 	.word	0x3f7a5e35

0800287c <Error_Handler>:
{
  /* USER CODE BEGIN Error_Handler_Debug */
  /* User can add his own implementation to report the HAL error return state */

  /* USER CODE END Error_Handler_Debug */
}
 800287c:	4770      	bx	lr
 800287e:	bf00      	nop

08002880 <HAL_MspInit>:
{
  /* USER CODE BEGIN MspInit 0 */

  /* USER CODE END MspInit 0 */

  __HAL_RCC_AFIO_CLK_ENABLE();
 8002880:	4b0e      	ldr	r3, [pc, #56]	; (80028bc <HAL_MspInit+0x3c>)
{
 8002882:	b082      	sub	sp, #8
  __HAL_RCC_AFIO_CLK_ENABLE();
 8002884:	699a      	ldr	r2, [r3, #24]

  /* System interrupt init*/

  /** NONJTRST: Full SWJ (JTAG-DP + SW-DP) but without NJTRST 
  */
  __HAL_AFIO_REMAP_SWJ_NONJTRST();
 8002886:	490e      	ldr	r1, [pc, #56]	; (80028c0 <HAL_MspInit+0x40>)
  __HAL_RCC_AFIO_CLK_ENABLE();
 8002888:	f042 0201 	orr.w	r2, r2, #1
 800288c:	619a      	str	r2, [r3, #24]
 800288e:	699a      	ldr	r2, [r3, #24]
 8002890:	f002 0201 	and.w	r2, r2, #1
 8002894:	9200      	str	r2, [sp, #0]
 8002896:	9a00      	ldr	r2, [sp, #0]
  __HAL_RCC_PWR_CLK_ENABLE();
 8002898:	69da      	ldr	r2, [r3, #28]
 800289a:	f042 5280 	orr.w	r2, r2, #268435456	; 0x10000000
 800289e:	61da      	str	r2, [r3, #28]
 80028a0:	69db      	ldr	r3, [r3, #28]
 80028a2:	f003 5380 	and.w	r3, r3, #268435456	; 0x10000000
 80028a6:	9301      	str	r3, [sp, #4]
 80028a8:	9b01      	ldr	r3, [sp, #4]
  __HAL_AFIO_REMAP_SWJ_NONJTRST();
 80028aa:	684b      	ldr	r3, [r1, #4]
 80028ac:	f023 63e0 	bic.w	r3, r3, #117440512	; 0x7000000
 80028b0:	f043 7380 	orr.w	r3, r3, #16777216	; 0x1000000
 80028b4:	604b      	str	r3, [r1, #4]

  /* USER CODE BEGIN MspInit 1 */

  /* USER CODE END MspInit 1 */
}
 80028b6:	b002      	add	sp, #8
 80028b8:	4770      	bx	lr
 80028ba:	bf00      	nop
 80028bc:	40021000 	.word	0x40021000
 80028c0:	40010000 	.word	0x40010000

080028c4 <HAL_I2C_MspInit>:
* @param hi2c: I2C handle pointer
* @retval None
*/
void HAL_I2C_MspInit(I2C_HandleTypeDef* hi2c)
{
  GPIO_InitTypeDef GPIO_InitStruct = {0};
 80028c4:	2300      	movs	r3, #0
{
 80028c6:	b530      	push	{r4, r5, lr}
  if(hi2c->Instance==I2C1)
 80028c8:	6801      	ldr	r1, [r0, #0]
 80028ca:	4a14      	ldr	r2, [pc, #80]	; (800291c <HAL_I2C_MspInit+0x58>)
{
 80028cc:	b087      	sub	sp, #28
  if(hi2c->Instance==I2C1)
 80028ce:	4291      	cmp	r1, r2
  GPIO_InitTypeDef GPIO_InitStruct = {0};
 80028d0:	e9cd 3302 	strd	r3, r3, [sp, #8]
 80028d4:	e9cd 3304 	strd	r3, r3, [sp, #16]
  if(hi2c->Instance==I2C1)
 80028d8:	d001      	beq.n	80028de <HAL_I2C_MspInit+0x1a>
  /* USER CODE BEGIN I2C1_MspInit 1 */

  /* USER CODE END I2C1_MspInit 1 */
  }

}
 80028da:	b007      	add	sp, #28
 80028dc:	bd30      	pop	{r4, r5, pc}
    GPIO_InitStruct.Pin = GPIO_PIN_6|GPIO_PIN_7;
 80028de:	20c0      	movs	r0, #192	; 0xc0
    GPIO_InitStruct.Speed = GPIO_SPEED_FREQ_HIGH;
 80028e0:	2203      	movs	r2, #3
    GPIO_InitStruct.Mode = GPIO_MODE_AF_OD;
 80028e2:	2512      	movs	r5, #18
    __HAL_RCC_GPIOB_CLK_ENABLE();
 80028e4:	4c0e      	ldr	r4, [pc, #56]	; (8002920 <HAL_I2C_MspInit+0x5c>)
    HAL_GPIO_Init(GPIOB, &GPIO_InitStruct);
 80028e6:	a902      	add	r1, sp, #8
    __HAL_RCC_GPIOB_CLK_ENABLE();
 80028e8:	69a3      	ldr	r3, [r4, #24]
 80028ea:	f043 0308 	orr.w	r3, r3, #8
 80028ee:	61a3      	str	r3, [r4, #24]
 80028f0:	69a3      	ldr	r3, [r4, #24]
    GPIO_InitStruct.Pin = GPIO_PIN_6|GPIO_PIN_7;
 80028f2:	9002      	str	r0, [sp, #8]
    __HAL_RCC_GPIOB_CLK_ENABLE();
 80028f4:	f003 0308 	and.w	r3, r3, #8
 80028f8:	9300      	str	r3, [sp, #0]
    HAL_GPIO_Init(GPIOB, &GPIO_InitStruct);
 80028fa:	480a      	ldr	r0, [pc, #40]	; (8002924 <HAL_I2C_MspInit+0x60>)
    __HAL_RCC_GPIOB_CLK_ENABLE();
 80028fc:	9b00      	ldr	r3, [sp, #0]
    GPIO_InitStruct.Mode = GPIO_MODE_AF_OD;
 80028fe:	9503      	str	r5, [sp, #12]
    GPIO_InitStruct.Speed = GPIO_SPEED_FREQ_HIGH;
 8002900:	9205      	str	r2, [sp, #20]
    HAL_GPIO_Init(GPIOB, &GPIO_InitStruct);
 8002902:	f002 f955 	bl	8004bb0 <HAL_GPIO_Init>
    __HAL_RCC_I2C1_CLK_ENABLE();
 8002906:	69e3      	ldr	r3, [r4, #28]
 8002908:	f443 1300 	orr.w	r3, r3, #2097152	; 0x200000
 800290c:	61e3      	str	r3, [r4, #28]
 800290e:	69e3      	ldr	r3, [r4, #28]
 8002910:	f403 1300 	and.w	r3, r3, #2097152	; 0x200000
 8002914:	9301      	str	r3, [sp, #4]
 8002916:	9b01      	ldr	r3, [sp, #4]
}
 8002918:	b007      	add	sp, #28
 800291a:	bd30      	pop	{r4, r5, pc}
 800291c:	40005400 	.word	0x40005400
 8002920:	40021000 	.word	0x40021000
 8002924:	40010c00 	.word	0x40010c00

08002928 <HAL_TIM_Base_MspInit>:
* This function configures the hardware resources used in this example
* @param htim_base: TIM_Base handle pointer
* @retval None
*/
void HAL_TIM_Base_MspInit(TIM_HandleTypeDef* htim_base)
{
 8002928:	b510      	push	{r4, lr}
  if(htim_base->Instance==TIM2)
 800292a:	6803      	ldr	r3, [r0, #0]
{
 800292c:	b082      	sub	sp, #8
  if(htim_base->Instance==TIM2)
 800292e:	f1b3 4f80 	cmp.w	r3, #1073741824	; 0x40000000
 8002932:	d019      	beq.n	8002968 <HAL_TIM_Base_MspInit+0x40>
    HAL_NVIC_EnableIRQ(TIM2_IRQn);
  /* USER CODE BEGIN TIM2_MspInit 1 */

  /* USER CODE END TIM2_MspInit 1 */
  }
  else if(htim_base->Instance==TIM3)
 8002934:	4a17      	ldr	r2, [pc, #92]	; (8002994 <HAL_TIM_Base_MspInit+0x6c>)
 8002936:	4293      	cmp	r3, r2
 8002938:	d001      	beq.n	800293e <HAL_TIM_Base_MspInit+0x16>
  /* USER CODE BEGIN TIM3_MspInit 1 */

  /* USER CODE END TIM3_MspInit 1 */
  }

}
 800293a:	b002      	add	sp, #8
 800293c:	bd10      	pop	{r4, pc}
    HAL_NVIC_SetPriority(TIM3_IRQn, 0, 0);
 800293e:	2200      	movs	r2, #0
    __HAL_RCC_TIM3_CLK_ENABLE();
 8002940:	4b15      	ldr	r3, [pc, #84]	; (8002998 <HAL_TIM_Base_MspInit+0x70>)
    HAL_NVIC_SetPriority(TIM3_IRQn, 0, 0);
 8002942:	4611      	mov	r1, r2
    __HAL_RCC_TIM3_CLK_ENABLE();
 8002944:	69dc      	ldr	r4, [r3, #28]
    HAL_NVIC_SetPriority(TIM3_IRQn, 0, 0);
 8002946:	201d      	movs	r0, #29
    __HAL_RCC_TIM3_CLK_ENABLE();
 8002948:	f044 0402 	orr.w	r4, r4, #2
 800294c:	61dc      	str	r4, [r3, #28]
 800294e:	69db      	ldr	r3, [r3, #28]
 8002950:	f003 0302 	and.w	r3, r3, #2
 8002954:	9301      	str	r3, [sp, #4]
 8002956:	9b01      	ldr	r3, [sp, #4]
    HAL_NVIC_SetPriority(TIM3_IRQn, 0, 0);
 8002958:	f001 ffc0 	bl	80048dc <HAL_NVIC_SetPriority>
    HAL_NVIC_EnableIRQ(TIM3_IRQn);
 800295c:	201d      	movs	r0, #29
}
 800295e:	b002      	add	sp, #8
 8002960:	e8bd 4010 	ldmia.w	sp!, {r4, lr}
    HAL_NVIC_EnableIRQ(TIM3_IRQn);
 8002964:	f001 bff0 	b.w	8004948 <HAL_NVIC_EnableIRQ>
    HAL_NVIC_SetPriority(TIM2_IRQn, 0, 0);
 8002968:	2200      	movs	r2, #0
    __HAL_RCC_TIM2_CLK_ENABLE();
 800296a:	f503 3304 	add.w	r3, r3, #135168	; 0x21000
 800296e:	69dc      	ldr	r4, [r3, #28]
    HAL_NVIC_SetPriority(TIM2_IRQn, 0, 0);
 8002970:	4611      	mov	r1, r2
    __HAL_RCC_TIM2_CLK_ENABLE();
 8002972:	f044 0401 	orr.w	r4, r4, #1
 8002976:	61dc      	str	r4, [r3, #28]
 8002978:	69db      	ldr	r3, [r3, #28]
    HAL_NVIC_SetPriority(TIM2_IRQn, 0, 0);
 800297a:	201c      	movs	r0, #28
    __HAL_RCC_TIM2_CLK_ENABLE();
 800297c:	f003 0301 	and.w	r3, r3, #1
 8002980:	9300      	str	r3, [sp, #0]
 8002982:	9b00      	ldr	r3, [sp, #0]
    HAL_NVIC_SetPriority(TIM2_IRQn, 0, 0);
 8002984:	f001 ffaa 	bl	80048dc <HAL_NVIC_SetPriority>
    HAL_NVIC_EnableIRQ(TIM2_IRQn);
 8002988:	201c      	movs	r0, #28
}
 800298a:	b002      	add	sp, #8
 800298c:	e8bd 4010 	ldmia.w	sp!, {r4, lr}
    HAL_NVIC_EnableIRQ(TIM3_IRQn);
 8002990:	f001 bfda 	b.w	8004948 <HAL_NVIC_EnableIRQ>
 8002994:	40000400 	.word	0x40000400
 8002998:	40021000 	.word	0x40021000

0800299c <HAL_UART_MspInit>:
* This function configures the hardware resources used in this example
* @param huart: UART handle pointer
* @retval None
*/
void HAL_UART_MspInit(UART_HandleTypeDef* huart)
{
 800299c:	b570      	push	{r4, r5, r6, lr}
  GPIO_InitTypeDef GPIO_InitStruct = {0};
 800299e:	2400      	movs	r4, #0
  if(huart->Instance==USART1)
 80029a0:	6802      	ldr	r2, [r0, #0]
 80029a2:	4b26      	ldr	r3, [pc, #152]	; (8002a3c <HAL_UART_MspInit+0xa0>)
{
 80029a4:	b086      	sub	sp, #24
  if(huart->Instance==USART1)
 80029a6:	429a      	cmp	r2, r3
  GPIO_InitTypeDef GPIO_InitStruct = {0};
 80029a8:	e9cd 4402 	strd	r4, r4, [sp, #8]
 80029ac:	e9cd 4404 	strd	r4, r4, [sp, #16]
  if(huart->Instance==USART1)
 80029b0:	d001      	beq.n	80029b6 <HAL_UART_MspInit+0x1a>
  /* USER CODE BEGIN USART1_MspInit 1 */

  /* USER CODE END USART1_MspInit 1 */
  }

}
 80029b2:	b006      	add	sp, #24
 80029b4:	bd70      	pop	{r4, r5, r6, pc}
    GPIO_InitStruct.Pin = GPIO_PIN_9;
 80029b6:	f44f 7100 	mov.w	r1, #512	; 0x200
 80029ba:	4606      	mov	r6, r0
    GPIO_InitStruct.Mode = GPIO_MODE_AF_PP;
 80029bc:	2002      	movs	r0, #2
    GPIO_InitStruct.Speed = GPIO_SPEED_FREQ_HIGH;
 80029be:	2503      	movs	r5, #3
    __HAL_RCC_USART1_CLK_ENABLE();
 80029c0:	f503 4358 	add.w	r3, r3, #55296	; 0xd800
 80029c4:	699a      	ldr	r2, [r3, #24]
 80029c6:	f442 4280 	orr.w	r2, r2, #16384	; 0x4000
 80029ca:	619a      	str	r2, [r3, #24]
 80029cc:	699a      	ldr	r2, [r3, #24]
 80029ce:	f402 4280 	and.w	r2, r2, #16384	; 0x4000
 80029d2:	9200      	str	r2, [sp, #0]
 80029d4:	9a00      	ldr	r2, [sp, #0]
    __HAL_RCC_GPIOA_CLK_ENABLE();
 80029d6:	699a      	ldr	r2, [r3, #24]
 80029d8:	f042 0204 	orr.w	r2, r2, #4
 80029dc:	619a      	str	r2, [r3, #24]
 80029de:	699b      	ldr	r3, [r3, #24]
    GPIO_InitStruct.Pin = GPIO_PIN_9;
 80029e0:	9102      	str	r1, [sp, #8]
    __HAL_RCC_GPIOA_CLK_ENABLE();
 80029e2:	f003 0304 	and.w	r3, r3, #4
 80029e6:	9301      	str	r3, [sp, #4]
    HAL_GPIO_Init(GPIOA, &GPIO_InitStruct);
 80029e8:	a902      	add	r1, sp, #8
    GPIO_InitStruct.Mode = GPIO_MODE_AF_PP;
 80029ea:	9003      	str	r0, [sp, #12]
    HAL_GPIO_Init(GPIOA, &GPIO_InitStruct);
 80029ec:	4814      	ldr	r0, [pc, #80]	; (8002a40 <HAL_UART_MspInit+0xa4>)
    __HAL_RCC_GPIOA_CLK_ENABLE();
 80029ee:	9b01      	ldr	r3, [sp, #4]
    GPIO_InitStruct.Speed = GPIO_SPEED_FREQ_HIGH;
 80029f0:	9505      	str	r5, [sp, #20]
    HAL_GPIO_Init(GPIOA, &GPIO_InitStruct);
 80029f2:	f002 f8dd 	bl	8004bb0 <HAL_GPIO_Init>
    GPIO_InitStruct.Pin = GPIO_PIN_10;
 80029f6:	f44f 6380 	mov.w	r3, #1024	; 0x400
    HAL_GPIO_Init(GPIOA, &GPIO_InitStruct);
 80029fa:	a902      	add	r1, sp, #8
 80029fc:	4810      	ldr	r0, [pc, #64]	; (8002a40 <HAL_UART_MspInit+0xa4>)
    GPIO_InitStruct.Pin = GPIO_PIN_10;
 80029fe:	9302      	str	r3, [sp, #8]
    GPIO_InitStruct.Pull = GPIO_NOPULL;
 8002a00:	e9cd 4403 	strd	r4, r4, [sp, #12]
    HAL_GPIO_Init(GPIOA, &GPIO_InitStruct);
 8002a04:	f002 f8d4 	bl	8004bb0 <HAL_GPIO_Init>
    hdma_usart1_rx.Init.MemInc = DMA_MINC_ENABLE;
 8002a08:	2080      	movs	r0, #128	; 0x80
    hdma_usart1_rx.Init.Mode = DMA_CIRCULAR;
 8002a0a:	2220      	movs	r2, #32
    hdma_usart1_rx.Init.Priority = DMA_PRIORITY_HIGH;
 8002a0c:	f44f 5300 	mov.w	r3, #8192	; 0x2000
    hdma_usart1_rx.Instance = DMA1_Channel5;
 8002a10:	4d0c      	ldr	r5, [pc, #48]	; (8002a44 <HAL_UART_MspInit+0xa8>)
 8002a12:	490d      	ldr	r1, [pc, #52]	; (8002a48 <HAL_UART_MspInit+0xac>)
    hdma_usart1_rx.Init.MemInc = DMA_MINC_ENABLE;
 8002a14:	60e8      	str	r0, [r5, #12]
    if (HAL_DMA_Init(&hdma_usart1_rx) != HAL_OK)
 8002a16:	4628      	mov	r0, r5
    hdma_usart1_rx.Init.PeriphInc = DMA_PINC_DISABLE;
 8002a18:	e9c5 4401 	strd	r4, r4, [r5, #4]
    hdma_usart1_rx.Init.MemDataAlignment = DMA_MDATAALIGN_BYTE;
 8002a1c:	e9c5 4404 	strd	r4, r4, [r5, #16]
    hdma_usart1_rx.Instance = DMA1_Channel5;
 8002a20:	6029      	str	r1, [r5, #0]
    hdma_usart1_rx.Init.Priority = DMA_PRIORITY_HIGH;
 8002a22:	e9c5 2306 	strd	r2, r3, [r5, #24]
    if (HAL_DMA_Init(&hdma_usart1_rx) != HAL_OK)
 8002a26:	f001 ffb5 	bl	8004994 <HAL_DMA_Init>
 8002a2a:	b918      	cbnz	r0, 8002a34 <HAL_UART_MspInit+0x98>
    __HAL_LINKDMA(huart,hdmarx,hdma_usart1_rx);
 8002a2c:	6375      	str	r5, [r6, #52]	; 0x34
 8002a2e:	626e      	str	r6, [r5, #36]	; 0x24
}
 8002a30:	b006      	add	sp, #24
 8002a32:	bd70      	pop	{r4, r5, r6, pc}
      Error_Handler();
 8002a34:	f7ff ff22 	bl	800287c <Error_Handler>
 8002a38:	e7f8      	b.n	8002a2c <HAL_UART_MspInit+0x90>
 8002a3a:	bf00      	nop
 8002a3c:	40013800 	.word	0x40013800
 8002a40:	40010800 	.word	0x40010800
 8002a44:	20000734 	.word	0x20000734
 8002a48:	40020058 	.word	0x40020058

08002a4c <NMI_Handler>:

  /* USER CODE END NonMaskableInt_IRQn 0 */
  /* USER CODE BEGIN NonMaskableInt_IRQn 1 */

  /* USER CODE END NonMaskableInt_IRQn 1 */
}
 8002a4c:	4770      	bx	lr
 8002a4e:	bf00      	nop

08002a50 <HardFault_Handler>:

/**
  * @brief This function handles Hard fault interrupt.
  */
void HardFault_Handler(void)
{
 8002a50:	e7fe      	b.n	8002a50 <HardFault_Handler>
 8002a52:	bf00      	nop

08002a54 <MemManage_Handler>:

/**
  * @brief This function handles Memory management fault.
  */
void MemManage_Handler(void)
{
 8002a54:	e7fe      	b.n	8002a54 <MemManage_Handler>
 8002a56:	bf00      	nop

08002a58 <BusFault_Handler>:

/**
  * @brief This function handles Prefetch fault, memory access fault.
  */
void BusFault_Handler(void)
{
 8002a58:	e7fe      	b.n	8002a58 <BusFault_Handler>
 8002a5a:	bf00      	nop

08002a5c <UsageFault_Handler>:

/**
  * @brief This function handles Undefined instruction or illegal state.
  */
void UsageFault_Handler(void)
{
 8002a5c:	e7fe      	b.n	8002a5c <UsageFault_Handler>
 8002a5e:	bf00      	nop

08002a60 <SVC_Handler>:
 8002a60:	4770      	bx	lr
 8002a62:	bf00      	nop

08002a64 <DebugMon_Handler>:
 8002a64:	4770      	bx	lr
 8002a66:	bf00      	nop

08002a68 <PendSV_Handler>:
 8002a68:	4770      	bx	lr
 8002a6a:	bf00      	nop

08002a6c <SysTick_Handler>:

/**
  * @brief This function handles System tick timer.
  */
void SysTick_Handler(void)
{
 8002a6c:	b508      	push	{r3, lr}
  /* USER CODE BEGIN SysTick_IRQn 0 */

  /* USER CODE END SysTick_IRQn 0 */
  HAL_IncTick();
 8002a6e:	f001 feff 	bl	8004870 <HAL_IncTick>
  /* USER CODE BEGIN SysTick_IRQn 1 */
  systick_Inc();
  /* USER CODE END SysTick_IRQn 1 */
}
 8002a72:	e8bd 4008 	ldmia.w	sp!, {r3, lr}
  systick_Inc();
 8002a76:	f001 bebd 	b.w	80047f4 <systick_Inc>
 8002a7a:	bf00      	nop

08002a7c <DMA1_Channel5_IRQHandler>:
void DMA1_Channel5_IRQHandler(void)
{
  /* USER CODE BEGIN DMA1_Channel5_IRQn 0 */

  /* USER CODE END DMA1_Channel5_IRQn 0 */
  HAL_DMA_IRQHandler(&hdma_usart1_rx);
 8002a7c:	4801      	ldr	r0, [pc, #4]	; (8002a84 <DMA1_Channel5_IRQHandler+0x8>)
 8002a7e:	f002 b801 	b.w	8004a84 <HAL_DMA_IRQHandler>
 8002a82:	bf00      	nop
 8002a84:	20000734 	.word	0x20000734

08002a88 <USB_LP_CAN1_RX0_IRQHandler>:
void USB_LP_CAN1_RX0_IRQHandler(void)
{
  /* USER CODE BEGIN USB_LP_CAN1_RX0_IRQn 0 */

  /* USER CODE END USB_LP_CAN1_RX0_IRQn 0 */
  HAL_PCD_IRQHandler(&hpcd_USB_FS);
 8002a88:	4801      	ldr	r0, [pc, #4]	; (8002a90 <USB_LP_CAN1_RX0_IRQHandler+0x8>)
 8002a8a:	f002 bfc7 	b.w	8005a1c <HAL_PCD_IRQHandler>
 8002a8e:	bf00      	nop
 8002a90:	200019c0 	.word	0x200019c0

08002a94 <TIM2_IRQHandler>:

/**
  * @brief This function handles TIM2 global interrupt.
  */
void TIM2_IRQHandler(void)
{
 8002a94:	b508      	push	{r3, lr}
  /* USER CODE BEGIN TIM2_IRQn 0 */

  /* USER CODE END TIM2_IRQn 0 */
  HAL_TIM_IRQHandler(&htim2);
 8002a96:	4803      	ldr	r0, [pc, #12]	; (8002aa4 <TIM2_IRQHandler+0x10>)
 8002a98:	f003 ffda 	bl	8006a50 <HAL_TIM_IRQHandler>
  /* USER CODE BEGIN TIM2_IRQn 1 */
  led_update();
  /* USER CODE END TIM2_IRQn 1 */
}
 8002a9c:	e8bd 4008 	ldmia.w	sp!, {r3, lr}
  led_update();
 8002aa0:	f001 baca 	b.w	8004038 <led_update>
 8002aa4:	200007d8 	.word	0x200007d8

08002aa8 <TIM3_IRQHandler>:

/**
  * @brief This function handles TIM3 global interrupt.
  */
void TIM3_IRQHandler(void)
{
 8002aa8:	b530      	push	{r4, r5, lr}
  /* USER CODE BEGIN TIM3_IRQn 0 */
	//this timer runs on 200Hz
	if (timer_index % 2 == 0){
 8002aaa:	4c65      	ldr	r4, [pc, #404]	; (8002c40 <TIM3_IRQHandler+0x198>)
{
 8002aac:	b0f1      	sub	sp, #452	; 0x1c4
	if (timer_index % 2 == 0){
 8002aae:	f9b4 3000 	ldrsh.w	r3, [r4]
 8002ab2:	f013 0501 	ands.w	r5, r3, #1
 8002ab6:	d022      	beq.n	8002afe <TIM3_IRQHandler+0x56>
			CDC_Transmit_FS(str,strlen(str));
		  }

	}

	if (timer_index % 10 == 0){
 8002ab8:	4a62      	ldr	r2, [pc, #392]	; (8002c44 <TIM3_IRQHandler+0x19c>)
 8002aba:	17d9      	asrs	r1, r3, #31
 8002abc:	fb82 0203 	smull	r0, r2, r2, r3
 8002ac0:	ebc1 02a2 	rsb	r2, r1, r2, asr #2
 8002ac4:	eb02 0282 	add.w	r2, r2, r2, lsl #2
 8002ac8:	eba3 0242 	sub.w	r2, r3, r2, lsl #1
 8002acc:	b212      	sxth	r2, r2
 8002ace:	2a00      	cmp	r2, #0
 8002ad0:	d03a      	beq.n	8002b48 <TIM3_IRQHandler+0xa0>
		//code here runs on 20Hz
		ms5611_timer_update();
	}

	if (timer_index % 20 == 0){
 8002ad2:	4a5c      	ldr	r2, [pc, #368]	; (8002c44 <TIM3_IRQHandler+0x19c>)
 8002ad4:	fb82 0203 	smull	r0, r2, r2, r3
 8002ad8:	ebc1 01e2 	rsb	r1, r1, r2, asr #3
 8002adc:	eb01 0181 	add.w	r1, r1, r1, lsl #2
 8002ae0:	eba3 0181 	sub.w	r1, r3, r1, lsl #2
 8002ae4:	b209      	sxth	r1, r1
 8002ae6:	b301      	cbz	r1, 8002b2a <TIM3_IRQHandler+0x82>
			XIMU_sens.lon = GNSS.GNGGA.lon;
			XIMU_sens.gps_ts = millis();
		}
	}

	timer_index++;
 8002ae8:	3301      	adds	r3, #1
 8002aea:	b21b      	sxth	r3, r3
	if (timer_index == 200){
 8002aec:	2bc8      	cmp	r3, #200	; 0xc8
		timer_index = 0;
 8002aee:	bf08      	it	eq
 8002af0:	2300      	moveq	r3, #0
	}
  /* USER CODE END TIM3_IRQn 0 */
  HAL_TIM_IRQHandler(&htim3);
 8002af2:	4855      	ldr	r0, [pc, #340]	; (8002c48 <TIM3_IRQHandler+0x1a0>)
		timer_index = 0;
 8002af4:	8023      	strh	r3, [r4, #0]
  HAL_TIM_IRQHandler(&htim3);
 8002af6:	f003 ffab 	bl	8006a50 <HAL_TIM_IRQHandler>
  /* USER CODE BEGIN TIM3_IRQn 1 */

  /* USER CODE END TIM3_IRQn 1 */
}
 8002afa:	b071      	add	sp, #452	; 0x1c4
 8002afc:	bd30      	pop	{r4, r5, pc}
		  int status = dmp_read_fifo(gyro, accel, quat, &timestamp, &sensors,&more);
 8002afe:	f10d 0209 	add.w	r2, sp, #9
 8002b02:	f10d 030a 	add.w	r3, sp, #10
 8002b06:	e9cd 3200 	strd	r3, r2, [sp]
 8002b0a:	a804      	add	r0, sp, #16
 8002b0c:	a906      	add	r1, sp, #24
 8002b0e:	aa08      	add	r2, sp, #32
 8002b10:	ab03      	add	r3, sp, #12
		  short gyro[3] = {0,0,0}, accel[3] = {0,0,0}, sensors;
 8002b12:	9504      	str	r5, [sp, #16]
 8002b14:	f8ad 5014 	strh.w	r5, [sp, #20]
 8002b18:	9506      	str	r5, [sp, #24]
 8002b1a:	f8ad 501c 	strh.w	r5, [sp, #28]
		  int status = dmp_read_fifo(gyro, accel, quat, &timestamp, &sensors,&more);
 8002b1e:	f7ff fb6f 	bl	8002200 <dmp_read_fifo>
		  if (status == 0){
 8002b22:	b1b8      	cbz	r0, 8002b54 <TIM3_IRQHandler+0xac>
 8002b24:	f9b4 3000 	ldrsh.w	r3, [r4]
 8002b28:	e7c6      	b.n	8002ab8 <TIM3_IRQHandler+0x10>
		int status = mpu_get_compass_reg(data,NULL);
 8002b2a:	a80c      	add	r0, sp, #48	; 0x30
 8002b2c:	f7ff fa48 	bl	8001fc0 <mpu_get_compass_reg>
		if (status == 0){
 8002b30:	2800      	cmp	r0, #0
 8002b32:	d06a      	beq.n	8002c0a <TIM3_IRQHandler+0x162>
		GNSS_RX_Update();
 8002b34:	f001 f840 	bl	8003bb8 <GNSS_RX_Update>
		if (GNSS.GNGGA.status != 0){//data is valid
 8002b38:	4b44      	ldr	r3, [pc, #272]	; (8002c4c <TIM3_IRQHandler+0x1a4>)
 8002b3a:	f8d3 24a4 	ldr.w	r2, [r3, #1188]	; 0x4a4
 8002b3e:	2a00      	cmp	r2, #0
 8002b40:	d151      	bne.n	8002be6 <TIM3_IRQHandler+0x13e>
 8002b42:	f9b4 3000 	ldrsh.w	r3, [r4]
 8002b46:	e7cf      	b.n	8002ae8 <TIM3_IRQHandler+0x40>
		ms5611_timer_update();
 8002b48:	f001 fcba 	bl	80044c0 <ms5611_timer_update>
 8002b4c:	f9b4 3000 	ldrsh.w	r3, [r4]
 8002b50:	17d9      	asrs	r1, r3, #31
 8002b52:	e7be      	b.n	8002ad2 <TIM3_IRQHandler+0x2a>
			  XIMU_sens.q0 = quat[0];
 8002b54:	9808      	ldr	r0, [sp, #32]
 8002b56:	f7fd fc55 	bl	8000404 <__aeabi_i2d>
 8002b5a:	4d3d      	ldr	r5, [pc, #244]	; (8002c50 <TIM3_IRQHandler+0x1a8>)
 8002b5c:	e9c5 0100 	strd	r0, r1, [r5]
			  XIMU_sens.q1 = quat[1];
 8002b60:	9809      	ldr	r0, [sp, #36]	; 0x24
 8002b62:	f7fd fc4f 	bl	8000404 <__aeabi_i2d>
 8002b66:	e9c5 0102 	strd	r0, r1, [r5, #8]
			  XIMU_sens.q2 = quat[2];
 8002b6a:	980a      	ldr	r0, [sp, #40]	; 0x28
 8002b6c:	f7fd fc4a 	bl	8000404 <__aeabi_i2d>
 8002b70:	e9c5 0104 	strd	r0, r1, [r5, #16]
			  XIMU_sens.q3 = quat[3];
 8002b74:	980b      	ldr	r0, [sp, #44]	; 0x2c
 8002b76:	f7fd fc45 	bl	8000404 <__aeabi_i2d>
 8002b7a:	e9c5 0106 	strd	r0, r1, [r5, #24]
			  XIMU_sens.ax = accel[0];
 8002b7e:	f9bd 0018 	ldrsh.w	r0, [sp, #24]
 8002b82:	f7fd fc3f 	bl	8000404 <__aeabi_i2d>
 8002b86:	e9c5 0108 	strd	r0, r1, [r5, #32]
			  XIMU_sens.ay = accel[1];
 8002b8a:	f9bd 001a 	ldrsh.w	r0, [sp, #26]
 8002b8e:	f7fd fc39 	bl	8000404 <__aeabi_i2d>
 8002b92:	e9c5 010a 	strd	r0, r1, [r5, #40]	; 0x28
			  XIMU_sens.az = accel[2];
 8002b96:	f9bd 001c 	ldrsh.w	r0, [sp, #28]
 8002b9a:	f7fd fc33 	bl	8000404 <__aeabi_i2d>
 8002b9e:	e9c5 010c 	strd	r0, r1, [r5, #48]	; 0x30
			  XIMU_sens.gx = gyro[0];
 8002ba2:	f9bd 0010 	ldrsh.w	r0, [sp, #16]
 8002ba6:	f7fd fc2d 	bl	8000404 <__aeabi_i2d>
 8002baa:	e9c5 010e 	strd	r0, r1, [r5, #56]	; 0x38
			  XIMU_sens.gy = gyro[1];
 8002bae:	f9bd 0012 	ldrsh.w	r0, [sp, #18]
 8002bb2:	f7fd fc27 	bl	8000404 <__aeabi_i2d>
 8002bb6:	e9c5 0110 	strd	r0, r1, [r5, #64]	; 0x40
			  XIMU_sens.gz = gyro[2];
 8002bba:	f9bd 0014 	ldrsh.w	r0, [sp, #20]
 8002bbe:	f7fd fc21 	bl	8000404 <__aeabi_i2d>
 8002bc2:	e9c5 0112 	strd	r0, r1, [r5, #72]	; 0x48
			  XIMU_sens.qag_ts = millis();
 8002bc6:	f001 fe05 	bl	80047d4 <millis>
 8002bca:	6528      	str	r0, [r5, #80]	; 0x50
			  calc_absolute_acceleration();
 8002bcc:	f000 f97a 	bl	8002ec4 <calc_absolute_acceleration>
			build_data_str(str);
 8002bd0:	a80c      	add	r0, sp, #48	; 0x30
 8002bd2:	f000 fe25 	bl	8003820 <build_data_str>
			CDC_Transmit_FS(str,strlen(str));
 8002bd6:	a80c      	add	r0, sp, #48	; 0x30
 8002bd8:	f7fd faba 	bl	8000150 <strlen>
 8002bdc:	b281      	uxth	r1, r0
 8002bde:	a80c      	add	r0, sp, #48	; 0x30
 8002be0:	f005 fb7e 	bl	80082e0 <CDC_Transmit_FS>
 8002be4:	e79e      	b.n	8002b24 <TIM3_IRQHandler+0x7c>
			XIMU_sens.lat = GNSS.GNGGA.lat;
 8002be6:	4d1a      	ldr	r5, [pc, #104]	; (8002c50 <TIM3_IRQHandler+0x1a8>)
 8002be8:	f503 6290 	add.w	r2, r3, #1152	; 0x480
			XIMU_sens.lon = GNSS.GNGGA.lon;
 8002bec:	f503 6393 	add.w	r3, r3, #1176	; 0x498
			XIMU_sens.lat = GNSS.GNGGA.lat;
 8002bf0:	e9d2 0100 	ldrd	r0, r1, [r2]
			XIMU_sens.lon = GNSS.GNGGA.lon;
 8002bf4:	e9d3 2300 	ldrd	r2, r3, [r3]
			XIMU_sens.lat = GNSS.GNGGA.lat;
 8002bf8:	e9c5 0124 	strd	r0, r1, [r5, #144]	; 0x90
			XIMU_sens.lon = GNSS.GNGGA.lon;
 8002bfc:	e9c5 2326 	strd	r2, r3, [r5, #152]	; 0x98
			XIMU_sens.gps_ts = millis();
 8002c00:	f001 fde8 	bl	80047d4 <millis>
 8002c04:	f8c5 00a0 	str.w	r0, [r5, #160]	; 0xa0
 8002c08:	e79b      	b.n	8002b42 <TIM3_IRQHandler+0x9a>
			XIMU_sens.mx = data[0];
 8002c0a:	f9bd 0030 	ldrsh.w	r0, [sp, #48]	; 0x30
 8002c0e:	f7fd fbf9 	bl	8000404 <__aeabi_i2d>
 8002c12:	4d0f      	ldr	r5, [pc, #60]	; (8002c50 <TIM3_IRQHandler+0x1a8>)
 8002c14:	e9c5 0116 	strd	r0, r1, [r5, #88]	; 0x58
			XIMU_sens.my = data[1];
 8002c18:	f9bd 0032 	ldrsh.w	r0, [sp, #50]	; 0x32
 8002c1c:	f7fd fbf2 	bl	8000404 <__aeabi_i2d>
 8002c20:	e9c5 0118 	strd	r0, r1, [r5, #96]	; 0x60
			XIMU_sens.mz = data[2];
 8002c24:	f9bd 0034 	ldrsh.w	r0, [sp, #52]	; 0x34
 8002c28:	f7fd fbec 	bl	8000404 <__aeabi_i2d>
 8002c2c:	e9c5 011a 	strd	r0, r1, [r5, #104]	; 0x68
			calibrate_mag_reading();
 8002c30:	f000 f87e 	bl	8002d30 <calibrate_mag_reading>
			XIMU_sens.m_ts = millis();
 8002c34:	f001 fdce 	bl	80047d4 <millis>
 8002c38:	6728      	str	r0, [r5, #112]	; 0x70
			calc_magnetic_orientation();
 8002c3a:	f000 fb2f 	bl	800329c <calc_magnetic_orientation>
 8002c3e:	e779      	b.n	8002b34 <TIM3_IRQHandler+0x8c>
 8002c40:	200003b4 	.word	0x200003b4
 8002c44:	66666667 	.word	0x66666667
 8002c48:	200006f4 	.word	0x200006f4
 8002c4c:	20000850 	.word	0x20000850
 8002c50:	200005f8 	.word	0x200005f8

08002c54 <_sbrk>:
{
	extern char end asm("end");
	static char *heap_end;
	char *prev_heap_end;

	if (heap_end == 0)
 8002c54:	4a0c      	ldr	r2, [pc, #48]	; (8002c88 <_sbrk+0x34>)
{
 8002c56:	b508      	push	{r3, lr}
	if (heap_end == 0)
 8002c58:	6813      	ldr	r3, [r2, #0]
 8002c5a:	b133      	cbz	r3, 8002c6a <_sbrk+0x16>
		heap_end = &end;

	prev_heap_end = heap_end;
	if (heap_end + incr > stack_ptr)
 8002c5c:	4669      	mov	r1, sp
 8002c5e:	4418      	add	r0, r3
 8002c60:	4288      	cmp	r0, r1
 8002c62:	d809      	bhi.n	8002c78 <_sbrk+0x24>
	{
		errno = ENOMEM;
		return (caddr_t) -1;
	}

	heap_end += incr;
 8002c64:	6010      	str	r0, [r2, #0]

	return (caddr_t) prev_heap_end;
}
 8002c66:	4618      	mov	r0, r3
 8002c68:	bd08      	pop	{r3, pc}
		heap_end = &end;
 8002c6a:	4908      	ldr	r1, [pc, #32]	; (8002c8c <_sbrk+0x38>)
 8002c6c:	460b      	mov	r3, r1
 8002c6e:	6011      	str	r1, [r2, #0]
	if (heap_end + incr > stack_ptr)
 8002c70:	4669      	mov	r1, sp
 8002c72:	4418      	add	r0, r3
 8002c74:	4288      	cmp	r0, r1
 8002c76:	d9f5      	bls.n	8002c64 <_sbrk+0x10>
		errno = ENOMEM;
 8002c78:	f005 fe70 	bl	800895c <__errno>
 8002c7c:	220c      	movs	r2, #12
		return (caddr_t) -1;
 8002c7e:	f04f 33ff 	mov.w	r3, #4294967295
		errno = ENOMEM;
 8002c82:	6002      	str	r2, [r0, #0]
}
 8002c84:	4618      	mov	r0, r3
 8002c86:	bd08      	pop	{r3, pc}
 8002c88:	200003b8 	.word	0x200003b8
 8002c8c:	20001c30 	.word	0x20001c30

08002c90 <SystemInit>:
  * @note   This function should be used only after reset.
  * @param  None
  * @retval None
  */
void SystemInit (void)
{
 8002c90:	b430      	push	{r4, r5}

  /* Reset CFGR2 register */
  RCC->CFGR2 = 0x00000000U;      
#else
  /* Disable all interrupts and clear pending bits  */
  RCC->CIR = 0x009F0000U;
 8002c92:	f44f 051f 	mov.w	r5, #10420224	; 0x9f0000
#endif 

#ifdef VECT_TAB_SRAM
  SCB->VTOR = SRAM_BASE | VECT_TAB_OFFSET; /* Vector Table Relocation in Internal SRAM. */
#else
  SCB->VTOR = FLASH_BASE | VECT_TAB_OFFSET; /* Vector Table Relocation in Internal FLASH. */
 8002c96:	f04f 6400 	mov.w	r4, #134217728	; 0x8000000
  RCC->CR |= 0x00000001U;
 8002c9a:	4b0e      	ldr	r3, [pc, #56]	; (8002cd4 <SystemInit+0x44>)
  RCC->CFGR &= 0xF8FF0000U;
 8002c9c:	4a0e      	ldr	r2, [pc, #56]	; (8002cd8 <SystemInit+0x48>)
  RCC->CR |= 0x00000001U;
 8002c9e:	6819      	ldr	r1, [r3, #0]
  SCB->VTOR = FLASH_BASE | VECT_TAB_OFFSET; /* Vector Table Relocation in Internal FLASH. */
 8002ca0:	480e      	ldr	r0, [pc, #56]	; (8002cdc <SystemInit+0x4c>)
  RCC->CR |= 0x00000001U;
 8002ca2:	f041 0101 	orr.w	r1, r1, #1
 8002ca6:	6019      	str	r1, [r3, #0]
  RCC->CFGR &= 0xF8FF0000U;
 8002ca8:	6859      	ldr	r1, [r3, #4]
 8002caa:	400a      	ands	r2, r1
 8002cac:	605a      	str	r2, [r3, #4]
  RCC->CR &= 0xFEF6FFFFU;
 8002cae:	681a      	ldr	r2, [r3, #0]
 8002cb0:	f022 7284 	bic.w	r2, r2, #17301504	; 0x1080000
 8002cb4:	f422 3280 	bic.w	r2, r2, #65536	; 0x10000
 8002cb8:	601a      	str	r2, [r3, #0]
  RCC->CR &= 0xFFFBFFFFU;
 8002cba:	681a      	ldr	r2, [r3, #0]
 8002cbc:	f422 2280 	bic.w	r2, r2, #262144	; 0x40000
 8002cc0:	601a      	str	r2, [r3, #0]
  RCC->CFGR &= 0xFF80FFFFU;
 8002cc2:	685a      	ldr	r2, [r3, #4]
 8002cc4:	f422 02fe 	bic.w	r2, r2, #8323072	; 0x7f0000
 8002cc8:	605a      	str	r2, [r3, #4]
  RCC->CIR = 0x009F0000U;
 8002cca:	609d      	str	r5, [r3, #8]
  SCB->VTOR = FLASH_BASE | VECT_TAB_OFFSET; /* Vector Table Relocation in Internal FLASH. */
 8002ccc:	6084      	str	r4, [r0, #8]
#endif 
}
 8002cce:	bc30      	pop	{r4, r5}
 8002cd0:	4770      	bx	lr
 8002cd2:	bf00      	nop
 8002cd4:	40021000 	.word	0x40021000
 8002cd8:	f8ff0000 	.word	0xf8ff0000
 8002cdc:	e000ed00 	.word	0xe000ed00

08002ce0 <Reset_Handler>:
  .weak Reset_Handler
  .type Reset_Handler, %function
Reset_Handler:

/* Copy the data segment initializers from flash to SRAM */
  movs r1, #0
 8002ce0:	2100      	movs	r1, #0
  b LoopCopyDataInit
 8002ce2:	e003      	b.n	8002cec <LoopCopyDataInit>

08002ce4 <CopyDataInit>:

CopyDataInit:
  ldr r3, =_sidata
 8002ce4:	4b0b      	ldr	r3, [pc, #44]	; (8002d14 <LoopFillZerobss+0x14>)
  ldr r3, [r3, r1]
 8002ce6:	585b      	ldr	r3, [r3, r1]
  str r3, [r0, r1]
 8002ce8:	5043      	str	r3, [r0, r1]
  adds r1, r1, #4
 8002cea:	3104      	adds	r1, #4

08002cec <LoopCopyDataInit>:

LoopCopyDataInit:
  ldr r0, =_sdata
 8002cec:	480a      	ldr	r0, [pc, #40]	; (8002d18 <LoopFillZerobss+0x18>)
  ldr r3, =_edata
 8002cee:	4b0b      	ldr	r3, [pc, #44]	; (8002d1c <LoopFillZerobss+0x1c>)
  adds r2, r0, r1
 8002cf0:	1842      	adds	r2, r0, r1
  cmp r2, r3
 8002cf2:	429a      	cmp	r2, r3
  bcc CopyDataInit
 8002cf4:	d3f6      	bcc.n	8002ce4 <CopyDataInit>
  ldr r2, =_sbss
 8002cf6:	4a0a      	ldr	r2, [pc, #40]	; (8002d20 <LoopFillZerobss+0x20>)
  b LoopFillZerobss
 8002cf8:	e002      	b.n	8002d00 <LoopFillZerobss>

08002cfa <FillZerobss>:
/* Zero fill the bss segment. */
FillZerobss:
  movs r3, #0
 8002cfa:	2300      	movs	r3, #0
  str r3, [r2], #4
 8002cfc:	f842 3b04 	str.w	r3, [r2], #4

08002d00 <LoopFillZerobss>:

LoopFillZerobss:
  ldr r3, = _ebss
 8002d00:	4b08      	ldr	r3, [pc, #32]	; (8002d24 <LoopFillZerobss+0x24>)
  cmp r2, r3
 8002d02:	429a      	cmp	r2, r3
  bcc FillZerobss
 8002d04:	d3f9      	bcc.n	8002cfa <FillZerobss>

/* Call the clock system intitialization function.*/
    bl  SystemInit
 8002d06:	f7ff ffc3 	bl	8002c90 <SystemInit>
/* Call static constructors */
    bl __libc_init_array
 8002d0a:	f005 fe2d 	bl	8008968 <__libc_init_array>
/* Call the application's entry point.*/
  bl main
 8002d0e:	f7ff fc23 	bl	8002558 <main>
  bx lr
 8002d12:	4770      	bx	lr
  ldr r3, =_sidata
 8002d14:	0800c720 	.word	0x0800c720
  ldr r0, =_sdata
 8002d18:	20000000 	.word	0x20000000
  ldr r3, =_edata
 8002d1c:	20000388 	.word	0x20000388
  ldr r2, =_sbss
 8002d20:	20000388 	.word	0x20000388
  ldr r3, = _ebss
 8002d24:	20001c30 	.word	0x20001c30

08002d28 <ADC1_2_IRQHandler>:
 * @retval : None
*/
    .section .text.Default_Handler,"ax",%progbits
Default_Handler:
Infinite_Loop:
  b Infinite_Loop
 8002d28:	e7fe      	b.n	8002d28 <ADC1_2_IRQHandler>
 8002d2a:	0000      	movs	r0, r0
 8002d2c:	0000      	movs	r0, r0
	...

08002d30 <calibrate_mag_reading>:
#include "dataProcessing.h"
#include "string.h"
#include "stdlib.h"
#include "math.h"

void calibrate_mag_reading(){
 8002d30:	e92d 4fd0 	stmdb	sp!, {r4, r6, r7, r8, r9, sl, fp, lr}

	double m[3]; //magnatic readings minus offset

	m[0] = XIMU_sens.mx - MAG_X_OFFSET;
 8002d34:	a34a      	add	r3, pc, #296	; (adr r3, 8002e60 <calibrate_mag_reading+0x130>)
 8002d36:	e9d3 2300 	ldrd	r2, r3, [r3]
 8002d3a:	4c61      	ldr	r4, [pc, #388]	; (8002ec0 <calibrate_mag_reading+0x190>)
void calibrate_mag_reading(){
 8002d3c:	b082      	sub	sp, #8
	m[0] = XIMU_sens.mx - MAG_X_OFFSET;
 8002d3e:	e9d4 0116 	ldrd	r0, r1, [r4, #88]	; 0x58
 8002d42:	f7fd fa11 	bl	8000168 <__aeabi_dsub>
	m[1] = XIMU_sens.my - MAG_Y_OFFSET;
 8002d46:	a348      	add	r3, pc, #288	; (adr r3, 8002e68 <calibrate_mag_reading+0x138>)
 8002d48:	e9d3 2300 	ldrd	r2, r3, [r3]
	m[0] = XIMU_sens.mx - MAG_X_OFFSET;
 8002d4c:	4606      	mov	r6, r0
 8002d4e:	460f      	mov	r7, r1
	m[1] = XIMU_sens.my - MAG_Y_OFFSET;
 8002d50:	e9d4 0118 	ldrd	r0, r1, [r4, #96]	; 0x60
 8002d54:	f7fd fa08 	bl	8000168 <__aeabi_dsub>
	m[2] = XIMU_sens.mz - MAG_Z_OFFSET;
 8002d58:	a345      	add	r3, pc, #276	; (adr r3, 8002e70 <calibrate_mag_reading+0x140>)
 8002d5a:	e9d3 2300 	ldrd	r2, r3, [r3]
	m[1] = XIMU_sens.my - MAG_Y_OFFSET;
 8002d5e:	4682      	mov	sl, r0
 8002d60:	468b      	mov	fp, r1
	m[2] = XIMU_sens.mz - MAG_Z_OFFSET;
 8002d62:	e9d4 011a 	ldrd	r0, r1, [r4, #104]	; 0x68
 8002d66:	f7fd fa01 	bl	800016c <__adddf3>

	XIMU_sens.mx = MAG_TRANSF_11*m[0] + MAG_TRANSF_12*m[1] + MAG_TRANSF_13*m[2];
 8002d6a:	a343      	add	r3, pc, #268	; (adr r3, 8002e78 <calibrate_mag_reading+0x148>)
 8002d6c:	e9d3 2300 	ldrd	r2, r3, [r3]
	m[2] = XIMU_sens.mz - MAG_Z_OFFSET;
 8002d70:	e9cd 0100 	strd	r0, r1, [sp]
	XIMU_sens.mx = MAG_TRANSF_11*m[0] + MAG_TRANSF_12*m[1] + MAG_TRANSF_13*m[2];
 8002d74:	4630      	mov	r0, r6
 8002d76:	4639      	mov	r1, r7
 8002d78:	f7fd fbae 	bl	80004d8 <__aeabi_dmul>
 8002d7c:	a340      	add	r3, pc, #256	; (adr r3, 8002e80 <calibrate_mag_reading+0x150>)
 8002d7e:	e9d3 2300 	ldrd	r2, r3, [r3]
 8002d82:	4680      	mov	r8, r0
 8002d84:	4689      	mov	r9, r1
 8002d86:	4650      	mov	r0, sl
 8002d88:	4659      	mov	r1, fp
 8002d8a:	f7fd fba5 	bl	80004d8 <__aeabi_dmul>
 8002d8e:	4602      	mov	r2, r0
 8002d90:	460b      	mov	r3, r1
 8002d92:	4640      	mov	r0, r8
 8002d94:	4649      	mov	r1, r9
 8002d96:	f7fd f9e9 	bl	800016c <__adddf3>
 8002d9a:	a33b      	add	r3, pc, #236	; (adr r3, 8002e88 <calibrate_mag_reading+0x158>)
 8002d9c:	e9d3 2300 	ldrd	r2, r3, [r3]
 8002da0:	4680      	mov	r8, r0
 8002da2:	4689      	mov	r9, r1
 8002da4:	e9dd 0100 	ldrd	r0, r1, [sp]
 8002da8:	f7fd fb96 	bl	80004d8 <__aeabi_dmul>
 8002dac:	4602      	mov	r2, r0
 8002dae:	460b      	mov	r3, r1
 8002db0:	4640      	mov	r0, r8
 8002db2:	4649      	mov	r1, r9
 8002db4:	f7fd f9da 	bl	800016c <__adddf3>
	XIMU_sens.my = MAG_TRANSF_21*m[0] + MAG_TRANSF_22*m[1] + MAG_TRANSF_23*m[2];
 8002db8:	a335      	add	r3, pc, #212	; (adr r3, 8002e90 <calibrate_mag_reading+0x160>)
 8002dba:	e9d3 2300 	ldrd	r2, r3, [r3]
	XIMU_sens.mx = MAG_TRANSF_11*m[0] + MAG_TRANSF_12*m[1] + MAG_TRANSF_13*m[2];
 8002dbe:	e9c4 0116 	strd	r0, r1, [r4, #88]	; 0x58
	XIMU_sens.my = MAG_TRANSF_21*m[0] + MAG_TRANSF_22*m[1] + MAG_TRANSF_23*m[2];
 8002dc2:	4630      	mov	r0, r6
 8002dc4:	4639      	mov	r1, r7
 8002dc6:	f7fd fb87 	bl	80004d8 <__aeabi_dmul>
 8002dca:	a333      	add	r3, pc, #204	; (adr r3, 8002e98 <calibrate_mag_reading+0x168>)
 8002dcc:	e9d3 2300 	ldrd	r2, r3, [r3]
 8002dd0:	4680      	mov	r8, r0
 8002dd2:	4689      	mov	r9, r1
 8002dd4:	4650      	mov	r0, sl
 8002dd6:	4659      	mov	r1, fp
 8002dd8:	f7fd fb7e 	bl	80004d8 <__aeabi_dmul>
 8002ddc:	4602      	mov	r2, r0
 8002dde:	460b      	mov	r3, r1
 8002de0:	4640      	mov	r0, r8
 8002de2:	4649      	mov	r1, r9
 8002de4:	f7fd f9c2 	bl	800016c <__adddf3>
 8002de8:	a32d      	add	r3, pc, #180	; (adr r3, 8002ea0 <calibrate_mag_reading+0x170>)
 8002dea:	e9d3 2300 	ldrd	r2, r3, [r3]
 8002dee:	4680      	mov	r8, r0
 8002df0:	4689      	mov	r9, r1
 8002df2:	e9dd 0100 	ldrd	r0, r1, [sp]
 8002df6:	f7fd fb6f 	bl	80004d8 <__aeabi_dmul>
 8002dfa:	4602      	mov	r2, r0
 8002dfc:	460b      	mov	r3, r1
 8002dfe:	4640      	mov	r0, r8
 8002e00:	4649      	mov	r1, r9
 8002e02:	f7fd f9b3 	bl	800016c <__adddf3>
	XIMU_sens.mz = MAG_TRANSF_31*m[0] + MAG_TRANSF_32*m[1] + MAG_TRANSF_33*m[2];
 8002e06:	a328      	add	r3, pc, #160	; (adr r3, 8002ea8 <calibrate_mag_reading+0x178>)
 8002e08:	e9d3 2300 	ldrd	r2, r3, [r3]
	XIMU_sens.my = MAG_TRANSF_21*m[0] + MAG_TRANSF_22*m[1] + MAG_TRANSF_23*m[2];
 8002e0c:	e9c4 0118 	strd	r0, r1, [r4, #96]	; 0x60
	XIMU_sens.mz = MAG_TRANSF_31*m[0] + MAG_TRANSF_32*m[1] + MAG_TRANSF_33*m[2];
 8002e10:	4630      	mov	r0, r6
 8002e12:	4639      	mov	r1, r7
 8002e14:	f7fd fb60 	bl	80004d8 <__aeabi_dmul>
 8002e18:	a325      	add	r3, pc, #148	; (adr r3, 8002eb0 <calibrate_mag_reading+0x180>)
 8002e1a:	e9d3 2300 	ldrd	r2, r3, [r3]
 8002e1e:	4606      	mov	r6, r0
 8002e20:	460f      	mov	r7, r1
 8002e22:	4650      	mov	r0, sl
 8002e24:	4659      	mov	r1, fp
 8002e26:	f7fd fb57 	bl	80004d8 <__aeabi_dmul>
 8002e2a:	4602      	mov	r2, r0
 8002e2c:	460b      	mov	r3, r1
 8002e2e:	4630      	mov	r0, r6
 8002e30:	4639      	mov	r1, r7
 8002e32:	f7fd f99b 	bl	800016c <__adddf3>
 8002e36:	a320      	add	r3, pc, #128	; (adr r3, 8002eb8 <calibrate_mag_reading+0x188>)
 8002e38:	e9d3 2300 	ldrd	r2, r3, [r3]
 8002e3c:	4606      	mov	r6, r0
 8002e3e:	460f      	mov	r7, r1
 8002e40:	e9dd 0100 	ldrd	r0, r1, [sp]
 8002e44:	f7fd fb48 	bl	80004d8 <__aeabi_dmul>
 8002e48:	4602      	mov	r2, r0
 8002e4a:	460b      	mov	r3, r1
 8002e4c:	4630      	mov	r0, r6
 8002e4e:	4639      	mov	r1, r7
 8002e50:	f7fd f98c 	bl	800016c <__adddf3>
 8002e54:	e9c4 011a 	strd	r0, r1, [r4, #104]	; 0x68
}
 8002e58:	b002      	add	sp, #8
 8002e5a:	e8bd 8fd0 	ldmia.w	sp!, {r4, r6, r7, r8, r9, sl, fp, pc}
 8002e5e:	bf00      	nop
 8002e60:	810624dd 	.word	0x810624dd
 8002e64:	40615795 	.word	0x40615795
 8002e68:	189374bc 	.word	0x189374bc
 8002e6c:	40706804 	.word	0x40706804
 8002e70:	fdf3b646 	.word	0xfdf3b646
 8002e74:	405268d4 	.word	0x405268d4
 8002e78:	51eb851f 	.word	0x51eb851f
 8002e7c:	3ff31eb8 	.word	0x3ff31eb8
 8002e80:	e5604189 	.word	0xe5604189
 8002e84:	bfab22d0 	.word	0xbfab22d0
 8002e88:	53f7ced9 	.word	0x53f7ced9
 8002e8c:	3faba5e3 	.word	0x3faba5e3
 8002e90:	020c49ba 	.word	0x020c49ba
 8002e94:	bfa6872b 	.word	0xbfa6872b
 8002e98:	78d4fdf4 	.word	0x78d4fdf4
 8002e9c:	3ff326e9 	.word	0x3ff326e9
 8002ea0:	47ae147b 	.word	0x47ae147b
 8002ea4:	3f847ae1 	.word	0x3f847ae1
 8002ea8:	76c8b439 	.word	0x76c8b439
 8002eac:	bf9a9fbe 	.word	0xbf9a9fbe
 8002eb0:	76c8b439 	.word	0x76c8b439
 8002eb4:	bf8a9fbe 	.word	0xbf8a9fbe
 8002eb8:	a5e353f8 	.word	0xa5e353f8
 8002ebc:	3ff2c49b 	.word	0x3ff2c49b
 8002ec0:	200005f8 	.word	0x200005f8

08002ec4 <calc_absolute_acceleration>:

void calc_absolute_acceleration() {
 8002ec4:	e92d 4ff0 	stmdb	sp!, {r4, r5, r6, r7, r8, r9, sl, fp, lr}

	double ax = XIMU_sens.ax,	ay = XIMU_sens.ay,	az = XIMU_sens.az;
 8002ec8:	49c9      	ldr	r1, [pc, #804]	; (80031f0 <calc_absolute_acceleration+0x32c>)
void calc_absolute_acceleration() {
 8002eca:	b099      	sub	sp, #100	; 0x64
	double q0 = XIMU_sens.q0,	q1 = XIMU_sens.q1,	q2 = XIMU_sens.q2,	q3 = XIMU_sens.q3;
 8002ecc:	e9d1 8900 	ldrd	r8, r9, [r1]
 8002ed0:	e9d1 6702 	ldrd	r6, r7, [r1, #8]
	double ax = XIMU_sens.ax,	ay = XIMU_sens.ay,	az = XIMU_sens.az;
 8002ed4:	e9d1 4508 	ldrd	r4, r5, [r1, #32]
 8002ed8:	e9d1 ab0c 	ldrd	sl, fp, [r1, #48]	; 0x30
	double q0q0, q0q1, q0q2, q0q3, q1q1, q1q2, q1q3, q2q2, q2q3, q3q3, norm_2;
	q0q0 = q0 * q0;
 8002edc:	4642      	mov	r2, r8
 8002ede:	464b      	mov	r3, r9
	double ax = XIMU_sens.ax,	ay = XIMU_sens.ay,	az = XIMU_sens.az;
 8002ee0:	e9cd 4502 	strd	r4, r5, [sp, #8]
 8002ee4:	e9d1 450a 	ldrd	r4, r5, [r1, #40]	; 0x28
 8002ee8:	e9cd ab04 	strd	sl, fp, [sp, #16]
	double q0 = XIMU_sens.q0,	q1 = XIMU_sens.q1,	q2 = XIMU_sens.q2,	q3 = XIMU_sens.q3;
 8002eec:	e9d1 ab06 	ldrd	sl, fp, [r1, #24]
	double ax = XIMU_sens.ax,	ay = XIMU_sens.ay,	az = XIMU_sens.az;
 8002ef0:	e9cd 4500 	strd	r4, r5, [sp]
	double q0 = XIMU_sens.q0,	q1 = XIMU_sens.q1,	q2 = XIMU_sens.q2,	q3 = XIMU_sens.q3;
 8002ef4:	e9d1 4504 	ldrd	r4, r5, [r1, #16]
	q0q0 = q0 * q0;
 8002ef8:	4640      	mov	r0, r8
 8002efa:	4649      	mov	r1, r9
 8002efc:	f7fd faec 	bl	80004d8 <__aeabi_dmul>
	q0q1 = q0 * q1;
 8002f00:	4632      	mov	r2, r6
	q0q0 = q0 * q0;
 8002f02:	e9cd 0106 	strd	r0, r1, [sp, #24]
	q0q1 = q0 * q1;
 8002f06:	463b      	mov	r3, r7
 8002f08:	4640      	mov	r0, r8
 8002f0a:	4649      	mov	r1, r9
 8002f0c:	f7fd fae4 	bl	80004d8 <__aeabi_dmul>
	q0q2 = q0 * q2;
 8002f10:	4622      	mov	r2, r4
	q0q1 = q0 * q1;
 8002f12:	e9cd 010e 	strd	r0, r1, [sp, #56]	; 0x38
	q0q2 = q0 * q2;
 8002f16:	462b      	mov	r3, r5
 8002f18:	4640      	mov	r0, r8
 8002f1a:	4649      	mov	r1, r9
 8002f1c:	f7fd fadc 	bl	80004d8 <__aeabi_dmul>
	q0q3 = q0 * q3;
 8002f20:	4652      	mov	r2, sl
	q0q2 = q0 * q2;
 8002f22:	e9cd 0108 	strd	r0, r1, [sp, #32]
	q0q3 = q0 * q3;
 8002f26:	465b      	mov	r3, fp
 8002f28:	4640      	mov	r0, r8
 8002f2a:	4649      	mov	r1, r9
 8002f2c:	f7fd fad4 	bl	80004d8 <__aeabi_dmul>
	q1q1 = q1 * q1;
 8002f30:	4632      	mov	r2, r6
	q0q3 = q0 * q3;
 8002f32:	e9cd 0110 	strd	r0, r1, [sp, #64]	; 0x40
	q1q1 = q1 * q1;
 8002f36:	463b      	mov	r3, r7
 8002f38:	4630      	mov	r0, r6
 8002f3a:	4639      	mov	r1, r7
 8002f3c:	f7fd facc 	bl	80004d8 <__aeabi_dmul>
 8002f40:	4602      	mov	r2, r0
 8002f42:	460b      	mov	r3, r1
 8002f44:	e9dd 0106 	ldrd	r0, r1, [sp, #24]
 8002f48:	e9cd 2312 	strd	r2, r3, [sp, #72]	; 0x48
 8002f4c:	f7fd f90e 	bl	800016c <__adddf3>
	q1q2 = q1 * q2;
 8002f50:	4622      	mov	r2, r4
 8002f52:	e9cd 010c 	strd	r0, r1, [sp, #48]	; 0x30
 8002f56:	462b      	mov	r3, r5
 8002f58:	4630      	mov	r0, r6
 8002f5a:	4639      	mov	r1, r7
 8002f5c:	f7fd fabc 	bl	80004d8 <__aeabi_dmul>
	q1q3 = q1 * q3;
 8002f60:	4652      	mov	r2, sl
	q1q2 = q1 * q2;
 8002f62:	e9cd 0114 	strd	r0, r1, [sp, #80]	; 0x50
	q1q3 = q1 * q3;
 8002f66:	465b      	mov	r3, fp
 8002f68:	4630      	mov	r0, r6
 8002f6a:	4639      	mov	r1, r7
 8002f6c:	f7fd fab4 	bl	80004d8 <__aeabi_dmul>
	q2q2 = q2 * q2;
 8002f70:	4622      	mov	r2, r4
	q1q3 = q1 * q3;
 8002f72:	e9cd 010a 	strd	r0, r1, [sp, #40]	; 0x28
	q2q2 = q2 * q2;
 8002f76:	462b      	mov	r3, r5
 8002f78:	4620      	mov	r0, r4
 8002f7a:	4629      	mov	r1, r5
 8002f7c:	f7fd faac 	bl	80004d8 <__aeabi_dmul>
	q2q3 = q2 * q3;
 8002f80:	4652      	mov	r2, sl
	q2q2 = q2 * q2;
 8002f82:	4680      	mov	r8, r0
 8002f84:	4689      	mov	r9, r1
	q2q3 = q2 * q3;
 8002f86:	465b      	mov	r3, fp
 8002f88:	4620      	mov	r0, r4
 8002f8a:	4629      	mov	r1, r5
 8002f8c:	f7fd faa4 	bl	80004d8 <__aeabi_dmul>
	q3q3 = q3 * q3;
 8002f90:	4652      	mov	r2, sl
	q2q3 = q2 * q3;
 8002f92:	e9cd 0116 	strd	r0, r1, [sp, #88]	; 0x58
	q3q3 = q3 * q3;
 8002f96:	465b      	mov	r3, fp
 8002f98:	4650      	mov	r0, sl
 8002f9a:	4659      	mov	r1, fp
 8002f9c:	f7fd fa9c 	bl	80004d8 <__aeabi_dmul>
 8002fa0:	e9dd 4500 	ldrd	r4, r5, [sp]
 8002fa4:	4682      	mov	sl, r0
 8002fa6:	468b      	mov	fp, r1
 8002fa8:	4622      	mov	r2, r4
 8002faa:	462b      	mov	r3, r5
 8002fac:	4620      	mov	r0, r4
 8002fae:	4629      	mov	r1, r5
 8002fb0:	f7fd f8dc 	bl	800016c <__adddf3>
	norm_2 = q0q0 + q1q1 + q2q2 + q3q3;
 8002fb4:	4652      	mov	r2, sl
 8002fb6:	4604      	mov	r4, r0
 8002fb8:	460d      	mov	r5, r1
 8002fba:	465b      	mov	r3, fp
 8002fbc:	4640      	mov	r0, r8
 8002fbe:	4649      	mov	r1, r9
 8002fc0:	f7fd f8d4 	bl	800016c <__adddf3>
 8002fc4:	e9dd 670c 	ldrd	r6, r7, [sp, #48]	; 0x30
 8002fc8:	4632      	mov	r2, r6
 8002fca:	463b      	mov	r3, r7
 8002fcc:	f7fd f8ce 	bl	800016c <__adddf3>
 8002fd0:	4602      	mov	r2, r0
 8002fd2:	460b      	mov	r3, r1
 8002fd4:	2000      	movs	r0, #0
 8002fd6:	4987      	ldr	r1, [pc, #540]	; (80031f4 <calc_absolute_acceleration+0x330>)
 8002fd8:	f7fd fba8 	bl	800072c <__aeabi_ddiv>

	XIMU_u.ax_abs = (ax*q0q0 + 2*az*q0q2 - 2*ay*q0q3 + ax*q1q1 + 2*ay*q1q2 + 2*az*q1q3 - ax*q2q2 - ax*q3q3)/norm_2;
 8002fdc:	4632      	mov	r2, r6
 8002fde:	e9cd 010c 	strd	r0, r1, [sp, #48]	; 0x30
 8002fe2:	e9dd 0102 	ldrd	r0, r1, [sp, #8]
 8002fe6:	463b      	mov	r3, r7
 8002fe8:	f7fd fa76 	bl	80004d8 <__aeabi_dmul>
 8002fec:	4642      	mov	r2, r8
 8002fee:	4606      	mov	r6, r0
 8002ff0:	460f      	mov	r7, r1
 8002ff2:	e9dd 0102 	ldrd	r0, r1, [sp, #8]
 8002ff6:	464b      	mov	r3, r9
 8002ff8:	f7fd fa6e 	bl	80004d8 <__aeabi_dmul>
 8002ffc:	4602      	mov	r2, r0
 8002ffe:	460b      	mov	r3, r1
 8003000:	4630      	mov	r0, r6
 8003002:	4639      	mov	r1, r7
 8003004:	f7fd f8b0 	bl	8000168 <__aeabi_dsub>
 8003008:	4622      	mov	r2, r4
 800300a:	4606      	mov	r6, r0
 800300c:	460f      	mov	r7, r1
 800300e:	e9dd 0114 	ldrd	r0, r1, [sp, #80]	; 0x50
 8003012:	462b      	mov	r3, r5
 8003014:	f7fd fa60 	bl	80004d8 <__aeabi_dmul>
 8003018:	4602      	mov	r2, r0
 800301a:	460b      	mov	r3, r1
 800301c:	4630      	mov	r0, r6
 800301e:	4639      	mov	r1, r7
 8003020:	f7fd f8a4 	bl	800016c <__adddf3>
 8003024:	4652      	mov	r2, sl
 8003026:	4606      	mov	r6, r0
 8003028:	460f      	mov	r7, r1
 800302a:	e9dd 0102 	ldrd	r0, r1, [sp, #8]
 800302e:	465b      	mov	r3, fp
 8003030:	f7fd fa52 	bl	80004d8 <__aeabi_dmul>
 8003034:	4602      	mov	r2, r0
 8003036:	460b      	mov	r3, r1
 8003038:	4630      	mov	r0, r6
 800303a:	4639      	mov	r1, r7
 800303c:	f7fd f894 	bl	8000168 <__aeabi_dsub>
 8003040:	4622      	mov	r2, r4
 8003042:	4606      	mov	r6, r0
 8003044:	460f      	mov	r7, r1
 8003046:	e9dd 0110 	ldrd	r0, r1, [sp, #64]	; 0x40
 800304a:	462b      	mov	r3, r5
 800304c:	f7fd fa44 	bl	80004d8 <__aeabi_dmul>
 8003050:	4602      	mov	r2, r0
 8003052:	460b      	mov	r3, r1
 8003054:	4630      	mov	r0, r6
 8003056:	4639      	mov	r1, r7
 8003058:	f7fd f886 	bl	8000168 <__aeabi_dsub>
 800305c:	e9dd 670a 	ldrd	r6, r7, [sp, #40]	; 0x28
 8003060:	4604      	mov	r4, r0
 8003062:	460d      	mov	r5, r1
 8003064:	4632      	mov	r2, r6
 8003066:	463b      	mov	r3, r7
 8003068:	4630      	mov	r0, r6
 800306a:	4639      	mov	r1, r7
 800306c:	f7fd f87e 	bl	800016c <__adddf3>
 8003070:	4606      	mov	r6, r0
 8003072:	460f      	mov	r7, r1
 8003074:	e9dd 0108 	ldrd	r0, r1, [sp, #32]
 8003078:	4602      	mov	r2, r0
 800307a:	460b      	mov	r3, r1
 800307c:	f7fd f876 	bl	800016c <__adddf3>
 8003080:	4602      	mov	r2, r0
 8003082:	460b      	mov	r3, r1
 8003084:	4630      	mov	r0, r6
 8003086:	4639      	mov	r1, r7
 8003088:	f7fd f870 	bl	800016c <__adddf3>
 800308c:	e9dd 6704 	ldrd	r6, r7, [sp, #16]
 8003090:	4632      	mov	r2, r6
 8003092:	463b      	mov	r3, r7
 8003094:	f7fd fa20 	bl	80004d8 <__aeabi_dmul>
 8003098:	4602      	mov	r2, r0
 800309a:	460b      	mov	r3, r1
 800309c:	4620      	mov	r0, r4
 800309e:	4629      	mov	r1, r5
 80030a0:	f7fd f864 	bl	800016c <__adddf3>
 80030a4:	e9dd 230c 	ldrd	r2, r3, [sp, #48]	; 0x30
 80030a8:	f7fd fa16 	bl	80004d8 <__aeabi_dmul>
 80030ac:	4c52      	ldr	r4, [pc, #328]	; (80031f8 <calc_absolute_acceleration+0x334>)
 80030ae:	4632      	mov	r2, r6
 80030b0:	e9c4 0100 	strd	r0, r1, [r4]
 80030b4:	463b      	mov	r3, r7
 80030b6:	4630      	mov	r0, r6
 80030b8:	4639      	mov	r1, r7
 80030ba:	e9cd 6704 	strd	r6, r7, [sp, #16]
 80030be:	f7fd f855 	bl	800016c <__adddf3>
	XIMU_u.ay_abs = (ay*q0q0 - 2*az*q0q1 + 2*ax*q0q3 - ay*q1q1 + 2*ax*q1q2 + ay*q2q2 + 2*az*q2q3 - ay*q3q3)/norm_2;
 80030c2:	4642      	mov	r2, r8
 80030c4:	4604      	mov	r4, r0
 80030c6:	460d      	mov	r5, r1
 80030c8:	e9dd 0106 	ldrd	r0, r1, [sp, #24]
 80030cc:	464b      	mov	r3, r9
 80030ce:	f7fd f84d 	bl	800016c <__adddf3>
 80030d2:	e9dd 2300 	ldrd	r2, r3, [sp]
 80030d6:	f7fd f9ff 	bl	80004d8 <__aeabi_dmul>
 80030da:	e9dd 2312 	ldrd	r2, r3, [sp, #72]	; 0x48
 80030de:	4606      	mov	r6, r0
 80030e0:	460f      	mov	r7, r1
 80030e2:	e9dd 0100 	ldrd	r0, r1, [sp]
 80030e6:	f7fd f9f7 	bl	80004d8 <__aeabi_dmul>
 80030ea:	4602      	mov	r2, r0
 80030ec:	460b      	mov	r3, r1
 80030ee:	4630      	mov	r0, r6
 80030f0:	4639      	mov	r1, r7
 80030f2:	f7fd f839 	bl	8000168 <__aeabi_dsub>
 80030f6:	4622      	mov	r2, r4
 80030f8:	4606      	mov	r6, r0
 80030fa:	460f      	mov	r7, r1
 80030fc:	e9dd 0116 	ldrd	r0, r1, [sp, #88]	; 0x58
 8003100:	462b      	mov	r3, r5
 8003102:	f7fd f9e9 	bl	80004d8 <__aeabi_dmul>
 8003106:	4602      	mov	r2, r0
 8003108:	460b      	mov	r3, r1
 800310a:	4630      	mov	r0, r6
 800310c:	4639      	mov	r1, r7
 800310e:	f7fd f82d 	bl	800016c <__adddf3>
 8003112:	4652      	mov	r2, sl
 8003114:	4606      	mov	r6, r0
 8003116:	460f      	mov	r7, r1
 8003118:	e9dd 0100 	ldrd	r0, r1, [sp]
 800311c:	465b      	mov	r3, fp
 800311e:	f7fd f9db 	bl	80004d8 <__aeabi_dmul>
 8003122:	4602      	mov	r2, r0
 8003124:	460b      	mov	r3, r1
 8003126:	4630      	mov	r0, r6
 8003128:	4639      	mov	r1, r7
 800312a:	f7fd f81d 	bl	8000168 <__aeabi_dsub>
 800312e:	4622      	mov	r2, r4
 8003130:	4606      	mov	r6, r0
 8003132:	460f      	mov	r7, r1
 8003134:	e9dd 010e 	ldrd	r0, r1, [sp, #56]	; 0x38
 8003138:	462b      	mov	r3, r5
 800313a:	f7fd f9cd 	bl	80004d8 <__aeabi_dmul>
 800313e:	4602      	mov	r2, r0
 8003140:	460b      	mov	r3, r1
 8003142:	4630      	mov	r0, r6
 8003144:	4639      	mov	r1, r7
 8003146:	f7fd f80f 	bl	8000168 <__aeabi_dsub>
 800314a:	e9dd 2314 	ldrd	r2, r3, [sp, #80]	; 0x50
 800314e:	4604      	mov	r4, r0
 8003150:	460d      	mov	r5, r1
 8003152:	4610      	mov	r0, r2
 8003154:	4619      	mov	r1, r3
 8003156:	f7fd f809 	bl	800016c <__adddf3>
 800315a:	e9dd 2310 	ldrd	r2, r3, [sp, #64]	; 0x40
 800315e:	4606      	mov	r6, r0
 8003160:	460f      	mov	r7, r1
 8003162:	4610      	mov	r0, r2
 8003164:	4619      	mov	r1, r3
 8003166:	f7fd f801 	bl	800016c <__adddf3>
 800316a:	4602      	mov	r2, r0
 800316c:	460b      	mov	r3, r1
 800316e:	4630      	mov	r0, r6
 8003170:	4639      	mov	r1, r7
 8003172:	f7fc fffb 	bl	800016c <__adddf3>
 8003176:	e9dd 6702 	ldrd	r6, r7, [sp, #8]
 800317a:	4632      	mov	r2, r6
 800317c:	463b      	mov	r3, r7
 800317e:	f7fd f9ab 	bl	80004d8 <__aeabi_dmul>
 8003182:	4602      	mov	r2, r0
 8003184:	460b      	mov	r3, r1
 8003186:	4620      	mov	r0, r4
 8003188:	4629      	mov	r1, r5
 800318a:	f7fc ffef 	bl	800016c <__adddf3>
 800318e:	e9dd 230c 	ldrd	r2, r3, [sp, #48]	; 0x30
 8003192:	f7fd f9a1 	bl	80004d8 <__aeabi_dmul>
 8003196:	4c18      	ldr	r4, [pc, #96]	; (80031f8 <calc_absolute_acceleration+0x334>)
 8003198:	4632      	mov	r2, r6
 800319a:	e9c4 0102 	strd	r0, r1, [r4, #8]
 800319e:	463b      	mov	r3, r7
 80031a0:	4630      	mov	r0, r6
 80031a2:	4639      	mov	r1, r7
 80031a4:	f7fc ffe2 	bl	800016c <__adddf3>
	XIMU_u.az_abs = (az*q0q0 + 2*ay*q0q1 - 2*ax*q0q2 - az*q1q1 + 2*ax*q1q3 - az*q2q2 + 2*ay*q2q3 + az*q3q3)/norm_2;
 80031a8:	4652      	mov	r2, sl
 80031aa:	4604      	mov	r4, r0
 80031ac:	460d      	mov	r5, r1
 80031ae:	e9dd 0106 	ldrd	r0, r1, [sp, #24]
 80031b2:	465b      	mov	r3, fp
 80031b4:	f7fc ffda 	bl	800016c <__adddf3>
 80031b8:	e9dd ab04 	ldrd	sl, fp, [sp, #16]
 80031bc:	4652      	mov	r2, sl
 80031be:	465b      	mov	r3, fp
 80031c0:	f7fd f98a 	bl	80004d8 <__aeabi_dmul>
 80031c4:	e9dd 2312 	ldrd	r2, r3, [sp, #72]	; 0x48
 80031c8:	4606      	mov	r6, r0
 80031ca:	460f      	mov	r7, r1
 80031cc:	4650      	mov	r0, sl
 80031ce:	4659      	mov	r1, fp
 80031d0:	f7fd f982 	bl	80004d8 <__aeabi_dmul>
 80031d4:	4602      	mov	r2, r0
 80031d6:	460b      	mov	r3, r1
 80031d8:	4630      	mov	r0, r6
 80031da:	4639      	mov	r1, r7
 80031dc:	f7fc ffc4 	bl	8000168 <__aeabi_dsub>
 80031e0:	4622      	mov	r2, r4
 80031e2:	4606      	mov	r6, r0
 80031e4:	460f      	mov	r7, r1
 80031e6:	e9dd 010a 	ldrd	r0, r1, [sp, #40]	; 0x28
 80031ea:	462b      	mov	r3, r5
 80031ec:	e006      	b.n	80031fc <calc_absolute_acceleration+0x338>
 80031ee:	bf00      	nop
 80031f0:	200005f8 	.word	0x200005f8
 80031f4:	3ff00000 	.word	0x3ff00000
 80031f8:	20000778 	.word	0x20000778
 80031fc:	f7fd f96c 	bl	80004d8 <__aeabi_dmul>
 8003200:	4602      	mov	r2, r0
 8003202:	460b      	mov	r3, r1
 8003204:	4630      	mov	r0, r6
 8003206:	4639      	mov	r1, r7
 8003208:	f7fc ffb0 	bl	800016c <__adddf3>
 800320c:	4642      	mov	r2, r8
 800320e:	4606      	mov	r6, r0
 8003210:	460f      	mov	r7, r1
 8003212:	464b      	mov	r3, r9
 8003214:	4650      	mov	r0, sl
 8003216:	4659      	mov	r1, fp
 8003218:	f7fd f95e 	bl	80004d8 <__aeabi_dmul>
 800321c:	4602      	mov	r2, r0
 800321e:	460b      	mov	r3, r1
 8003220:	4630      	mov	r0, r6
 8003222:	4639      	mov	r1, r7
 8003224:	f7fc ffa0 	bl	8000168 <__aeabi_dsub>
 8003228:	4622      	mov	r2, r4
 800322a:	4606      	mov	r6, r0
 800322c:	460f      	mov	r7, r1
 800322e:	e9dd 0108 	ldrd	r0, r1, [sp, #32]
 8003232:	462b      	mov	r3, r5
 8003234:	f7fd f950 	bl	80004d8 <__aeabi_dmul>
 8003238:	4602      	mov	r2, r0
 800323a:	460b      	mov	r3, r1
 800323c:	4630      	mov	r0, r6
 800323e:	4639      	mov	r1, r7
 8003240:	f7fc ff92 	bl	8000168 <__aeabi_dsub>
 8003244:	e9dd 2316 	ldrd	r2, r3, [sp, #88]	; 0x58
 8003248:	4604      	mov	r4, r0
 800324a:	460d      	mov	r5, r1
 800324c:	4610      	mov	r0, r2
 800324e:	4619      	mov	r1, r3
 8003250:	f7fc ff8c 	bl	800016c <__adddf3>
 8003254:	e9dd 230e 	ldrd	r2, r3, [sp, #56]	; 0x38
 8003258:	4606      	mov	r6, r0
 800325a:	460f      	mov	r7, r1
 800325c:	4610      	mov	r0, r2
 800325e:	4619      	mov	r1, r3
 8003260:	f7fc ff84 	bl	800016c <__adddf3>
 8003264:	4602      	mov	r2, r0
 8003266:	460b      	mov	r3, r1
 8003268:	4630      	mov	r0, r6
 800326a:	4639      	mov	r1, r7
 800326c:	f7fc ff7e 	bl	800016c <__adddf3>
 8003270:	e9dd 2300 	ldrd	r2, r3, [sp]
 8003274:	f7fd f930 	bl	80004d8 <__aeabi_dmul>
 8003278:	4602      	mov	r2, r0
 800327a:	460b      	mov	r3, r1
 800327c:	4620      	mov	r0, r4
 800327e:	4629      	mov	r1, r5
 8003280:	f7fc ff74 	bl	800016c <__adddf3>
 8003284:	e9dd 230c 	ldrd	r2, r3, [sp, #48]	; 0x30
 8003288:	f7fd f926 	bl	80004d8 <__aeabi_dmul>
 800328c:	4c02      	ldr	r4, [pc, #8]	; (8003298 <calc_absolute_acceleration+0x3d4>)
 800328e:	e9c4 0104 	strd	r0, r1, [r4, #16]
}
 8003292:	b019      	add	sp, #100	; 0x64
 8003294:	e8bd 8ff0 	ldmia.w	sp!, {r4, r5, r6, r7, r8, r9, sl, fp, pc}
 8003298:	20000778 	.word	0x20000778

0800329c <calc_magnetic_orientation>:
	v[0] /= norm;
	v[1] /= norm;
	v[2] /= norm;
}

void calc_magnetic_orientation(){
 800329c:	e92d 4ff0 	stmdb	sp!, {r4, r5, r6, r7, r8, r9, sl, fp, lr}

	double g[3];
	g[0] = -XIMU_sens.ax;
 80032a0:	4cd8      	ldr	r4, [pc, #864]	; (8003604 <calc_magnetic_orientation+0x368>)
void calc_magnetic_orientation(){
 80032a2:	b091      	sub	sp, #68	; 0x44
	g[0] = -XIMU_sens.ax;
 80032a4:	e9d4 8908 	ldrd	r8, r9, [r4, #32]
	g[1] = -XIMU_sens.ay;
	g[2] = -XIMU_sens.az;
 80032a8:	e9d4 010c 	ldrd	r0, r1, [r4, #48]	; 0x30
	double norm = sqrt(v[0]*v[0] + v[1]*v[1] + v[2]*v[2]);
 80032ac:	4642      	mov	r2, r8
	g[1] = -XIMU_sens.ay;
 80032ae:	e9d4 ab0a 	ldrd	sl, fp, [r4, #40]	; 0x28
	double norm = sqrt(v[0]*v[0] + v[1]*v[1] + v[2]*v[2]);
 80032b2:	464b      	mov	r3, r9
	g[2] = -XIMU_sens.az;
 80032b4:	e9cd 0100 	strd	r0, r1, [sp]
	double norm = sqrt(v[0]*v[0] + v[1]*v[1] + v[2]*v[2]);
 80032b8:	4640      	mov	r0, r8
 80032ba:	4649      	mov	r1, r9
 80032bc:	f7fd f90c 	bl	80004d8 <__aeabi_dmul>
 80032c0:	4652      	mov	r2, sl
 80032c2:	4606      	mov	r6, r0
 80032c4:	460f      	mov	r7, r1
 80032c6:	465b      	mov	r3, fp
 80032c8:	4650      	mov	r0, sl
 80032ca:	4659      	mov	r1, fp
 80032cc:	f7fd f904 	bl	80004d8 <__aeabi_dmul>
 80032d0:	4602      	mov	r2, r0
 80032d2:	460b      	mov	r3, r1
 80032d4:	4630      	mov	r0, r6
 80032d6:	4639      	mov	r1, r7
 80032d8:	f7fc ff48 	bl	800016c <__adddf3>
 80032dc:	4606      	mov	r6, r0
 80032de:	460f      	mov	r7, r1
 80032e0:	e9dd 0100 	ldrd	r0, r1, [sp]
 80032e4:	4602      	mov	r2, r0
 80032e6:	460b      	mov	r3, r1
 80032e8:	f7fd f8f6 	bl	80004d8 <__aeabi_dmul>
 80032ec:	4602      	mov	r2, r0
 80032ee:	460b      	mov	r3, r1
 80032f0:	4630      	mov	r0, r6
 80032f2:	4639      	mov	r1, r7
 80032f4:	f7fc ff3a 	bl	800016c <__adddf3>
 80032f8:	f007 ffc6 	bl	800b288 <sqrt>
 80032fc:	4602      	mov	r2, r0
 80032fe:	460b      	mov	r3, r1
 8003300:	2000      	movs	r0, #0
 8003302:	49c1      	ldr	r1, [pc, #772]	; (8003608 <calc_magnetic_orientation+0x36c>)
 8003304:	f7fd fa12 	bl	800072c <__aeabi_ddiv>
 8003308:	4606      	mov	r6, r0
 800330a:	460f      	mov	r7, r1
 800330c:	4602      	mov	r2, r0
 800330e:	460b      	mov	r3, r1
 8003310:	4640      	mov	r0, r8
 8003312:	4649      	mov	r1, r9
 8003314:	f7fd f8e0 	bl	80004d8 <__aeabi_dmul>
 8003318:	4684      	mov	ip, r0
 800331a:	460d      	mov	r5, r1
 800331c:	4632      	mov	r2, r6
 800331e:	463b      	mov	r3, r7
 8003320:	4650      	mov	r0, sl
 8003322:	4659      	mov	r1, fp
 8003324:	f8cd c00c 	str.w	ip, [sp, #12]
 8003328:	9509      	str	r5, [sp, #36]	; 0x24
 800332a:	f7fd f8d5 	bl	80004d8 <__aeabi_dmul>
 800332e:	4684      	mov	ip, r0
 8003330:	460d      	mov	r5, r1
 8003332:	e9dd 0100 	ldrd	r0, r1, [sp]
 8003336:	4632      	mov	r2, r6
 8003338:	463b      	mov	r3, r7
 800333a:	f8cd c020 	str.w	ip, [sp, #32]
 800333e:	950a      	str	r5, [sp, #40]	; 0x28
 8003340:	f7fd f8ca 	bl	80004d8 <__aeabi_dmul>
	 * 		+Z	-------------------------	-Z
	 *
	 */

	double m[3];
	m[0] = XIMU_sens.my;
 8003344:	e9d4 8918 	ldrd	r8, r9, [r4, #96]	; 0x60
	m[1] = XIMU_sens.mx;
 8003348:	e9d4 6716 	ldrd	r6, r7, [r4, #88]	; 0x58
	m[2] = -XIMU_sens.mz;
 800334c:	e9d4 ab1a 	ldrd	sl, fp, [r4, #104]	; 0x68
 8003350:	4684      	mov	ip, r0
 8003352:	460d      	mov	r5, r1
	double norm = sqrt(v[0]*v[0] + v[1]*v[1] + v[2]*v[2]);
 8003354:	4642      	mov	r2, r8
 8003356:	464b      	mov	r3, r9
 8003358:	4640      	mov	r0, r8
 800335a:	4649      	mov	r1, r9
 800335c:	f8cd c000 	str.w	ip, [sp]
 8003360:	950b      	str	r5, [sp, #44]	; 0x2c
 8003362:	f7fd f8b9 	bl	80004d8 <__aeabi_dmul>
 8003366:	4632      	mov	r2, r6
 8003368:	4604      	mov	r4, r0
 800336a:	460d      	mov	r5, r1
 800336c:	463b      	mov	r3, r7
 800336e:	4630      	mov	r0, r6
 8003370:	4639      	mov	r1, r7
 8003372:	f7fd f8b1 	bl	80004d8 <__aeabi_dmul>
 8003376:	4602      	mov	r2, r0
 8003378:	460b      	mov	r3, r1
 800337a:	4620      	mov	r0, r4
 800337c:	4629      	mov	r1, r5
 800337e:	f7fc fef5 	bl	800016c <__adddf3>
 8003382:	4652      	mov	r2, sl
 8003384:	4604      	mov	r4, r0
 8003386:	460d      	mov	r5, r1
 8003388:	465b      	mov	r3, fp
 800338a:	4650      	mov	r0, sl
 800338c:	4659      	mov	r1, fp
 800338e:	f7fd f8a3 	bl	80004d8 <__aeabi_dmul>
 8003392:	4602      	mov	r2, r0
 8003394:	460b      	mov	r3, r1
 8003396:	4620      	mov	r0, r4
 8003398:	4629      	mov	r1, r5
 800339a:	f7fc fee7 	bl	800016c <__adddf3>
 800339e:	f007 ff73 	bl	800b288 <sqrt>
 80033a2:	4602      	mov	r2, r0
 80033a4:	460b      	mov	r3, r1
 80033a6:	2000      	movs	r0, #0
 80033a8:	4997      	ldr	r1, [pc, #604]	; (8003608 <calc_magnetic_orientation+0x36c>)
 80033aa:	f7fd f9bf 	bl	800072c <__aeabi_ddiv>
 80033ae:	4604      	mov	r4, r0
 80033b0:	460d      	mov	r5, r1
	v[0] /= norm;
 80033b2:	4602      	mov	r2, r0
 80033b4:	460b      	mov	r3, r1
 80033b6:	4640      	mov	r0, r8
 80033b8:	4649      	mov	r1, r9
 80033ba:	f7fd f88d 	bl	80004d8 <__aeabi_dmul>
	v[1] /= norm;
 80033be:	4622      	mov	r2, r4
	v[0] /= norm;
 80033c0:	e9cd 010c 	strd	r0, r1, [sp, #48]	; 0x30
	v[1] /= norm;
 80033c4:	462b      	mov	r3, r5
 80033c6:	4630      	mov	r0, r6
 80033c8:	4639      	mov	r1, r7
 80033ca:	f7fd f885 	bl	80004d8 <__aeabi_dmul>
 80033ce:	4622      	mov	r2, r4
 80033d0:	4680      	mov	r8, r0
 80033d2:	4689      	mov	r9, r1
 80033d4:	462b      	mov	r3, r5
 80033d6:	4650      	mov	r0, sl
 80033d8:	4659      	mov	r1, fp
 80033da:	f7fd f87d 	bl	80004d8 <__aeabi_dmul>
	normalize(m);

	//step1: cross gravity(negative acceleration) and magnetic field to get reference direction of East
	double East_ref[3] = {0};

	East_ref[0] = g[1]*m[2] - g[2]*m[1];
 80033de:	9a08      	ldr	r2, [sp, #32]
 80033e0:	9b0a      	ldr	r3, [sp, #40]	; 0x28
 80033e2:	4682      	mov	sl, r0
 80033e4:	468b      	mov	fp, r1
 80033e6:	f7fd f877 	bl	80004d8 <__aeabi_dmul>
 80033ea:	9d00      	ldr	r5, [sp, #0]
 80033ec:	460f      	mov	r7, r1
 80033ee:	990b      	ldr	r1, [sp, #44]	; 0x2c
 80033f0:	4606      	mov	r6, r0
 80033f2:	f101 4400 	add.w	r4, r1, #2147483648	; 0x80000000
 80033f6:	462a      	mov	r2, r5
 80033f8:	4623      	mov	r3, r4
 80033fa:	4640      	mov	r0, r8
 80033fc:	4649      	mov	r1, r9
 80033fe:	f7fd f86b 	bl	80004d8 <__aeabi_dmul>
 8003402:	4602      	mov	r2, r0
 8003404:	460b      	mov	r3, r1
 8003406:	4630      	mov	r0, r6
 8003408:	4639      	mov	r1, r7
 800340a:	f7fc fead 	bl	8000168 <__aeabi_dsub>
	East_ref[1] = g[2]*m[0] - g[0]*m[2];
 800340e:	462a      	mov	r2, r5
 8003410:	4623      	mov	r3, r4
	East_ref[0] = g[1]*m[2] - g[2]*m[1];
 8003412:	e9cd 0104 	strd	r0, r1, [sp, #16]
	East_ref[1] = g[2]*m[0] - g[0]*m[2];
 8003416:	e9dd 010c 	ldrd	r0, r1, [sp, #48]	; 0x30
 800341a:	9500      	str	r5, [sp, #0]
 800341c:	f7fd f85c 	bl	80004d8 <__aeabi_dmul>
 8003420:	4652      	mov	r2, sl
 8003422:	465b      	mov	r3, fp
 8003424:	f8dd a00c 	ldr.w	sl, [sp, #12]
 8003428:	f8dd b024 	ldr.w	fp, [sp, #36]	; 0x24
 800342c:	4606      	mov	r6, r0
 800342e:	460f      	mov	r7, r1
 8003430:	4650      	mov	r0, sl
 8003432:	4659      	mov	r1, fp
 8003434:	f7fd f850 	bl	80004d8 <__aeabi_dmul>
 8003438:	4602      	mov	r2, r0
 800343a:	460b      	mov	r3, r1
 800343c:	4630      	mov	r0, r6
 800343e:	4639      	mov	r1, r7
 8003440:	f7fc fe92 	bl	8000168 <__aeabi_dsub>
 8003444:	f10b 4500 	add.w	r5, fp, #2147483648	; 0x80000000
 8003448:	e9cd 0106 	strd	r0, r1, [sp, #24]
	East_ref[2] = g[0]*m[1] - g[1]*m[0];
 800344c:	4652      	mov	r2, sl
 800344e:	462b      	mov	r3, r5
 8003450:	4640      	mov	r0, r8
 8003452:	4649      	mov	r1, r9
 8003454:	f8cd a00c 	str.w	sl, [sp, #12]
 8003458:	f8cd b024 	str.w	fp, [sp, #36]	; 0x24
 800345c:	f7fd f83c 	bl	80004d8 <__aeabi_dmul>
 8003460:	9e0a      	ldr	r6, [sp, #40]	; 0x28
 8003462:	4680      	mov	r8, r0
 8003464:	f106 4600 	add.w	r6, r6, #2147483648	; 0x80000000
 8003468:	4689      	mov	r9, r1
 800346a:	e9dd 010c 	ldrd	r0, r1, [sp, #48]	; 0x30
 800346e:	9a08      	ldr	r2, [sp, #32]
 8003470:	4633      	mov	r3, r6
 8003472:	f7fd f831 	bl	80004d8 <__aeabi_dmul>
 8003476:	4602      	mov	r2, r0
 8003478:	460b      	mov	r3, r1
 800347a:	4640      	mov	r0, r8
 800347c:	4649      	mov	r1, r9
 800347e:	f7fc fe73 	bl	8000168 <__aeabi_dsub>
	double norm = sqrt(v[0]*v[0] + v[1]*v[1] + v[2]*v[2]);
 8003482:	e9dd 8904 	ldrd	r8, r9, [sp, #16]
	East_ref[2] = g[0]*m[1] - g[1]*m[0];
 8003486:	4682      	mov	sl, r0
 8003488:	468b      	mov	fp, r1
	double norm = sqrt(v[0]*v[0] + v[1]*v[1] + v[2]*v[2]);
 800348a:	4642      	mov	r2, r8
 800348c:	464b      	mov	r3, r9
 800348e:	4640      	mov	r0, r8
 8003490:	4649      	mov	r1, r9
 8003492:	f7fd f821 	bl	80004d8 <__aeabi_dmul>
 8003496:	4680      	mov	r8, r0
 8003498:	4689      	mov	r9, r1
 800349a:	e9dd 0106 	ldrd	r0, r1, [sp, #24]
 800349e:	4602      	mov	r2, r0
 80034a0:	460b      	mov	r3, r1
 80034a2:	f7fd f819 	bl	80004d8 <__aeabi_dmul>
 80034a6:	4602      	mov	r2, r0
 80034a8:	460b      	mov	r3, r1
 80034aa:	4640      	mov	r0, r8
 80034ac:	4649      	mov	r1, r9
 80034ae:	f7fc fe5d 	bl	800016c <__adddf3>
 80034b2:	4652      	mov	r2, sl
 80034b4:	4680      	mov	r8, r0
 80034b6:	4689      	mov	r9, r1
 80034b8:	465b      	mov	r3, fp
 80034ba:	4650      	mov	r0, sl
 80034bc:	4659      	mov	r1, fp
 80034be:	f7fd f80b 	bl	80004d8 <__aeabi_dmul>
 80034c2:	4602      	mov	r2, r0
 80034c4:	460b      	mov	r3, r1
 80034c6:	4640      	mov	r0, r8
 80034c8:	4649      	mov	r1, r9
 80034ca:	f7fc fe4f 	bl	800016c <__adddf3>
 80034ce:	f007 fedb 	bl	800b288 <sqrt>
 80034d2:	4602      	mov	r2, r0
 80034d4:	460b      	mov	r3, r1
 80034d6:	2000      	movs	r0, #0
 80034d8:	494b      	ldr	r1, [pc, #300]	; (8003608 <calc_magnetic_orientation+0x36c>)
 80034da:	f7fd f927 	bl	800072c <__aeabi_ddiv>
 80034de:	4680      	mov	r8, r0
 80034e0:	4689      	mov	r9, r1
	v[0] /= norm;
 80034e2:	4602      	mov	r2, r0
 80034e4:	460b      	mov	r3, r1
 80034e6:	e9dd 0104 	ldrd	r0, r1, [sp, #16]
 80034ea:	f7fc fff5 	bl	80004d8 <__aeabi_dmul>
	v[1] /= norm;
 80034ee:	4642      	mov	r2, r8
 80034f0:	464b      	mov	r3, r9
	v[0] /= norm;
 80034f2:	e9cd 0104 	strd	r0, r1, [sp, #16]
	v[1] /= norm;
 80034f6:	e9dd 0106 	ldrd	r0, r1, [sp, #24]
 80034fa:	f7fc ffed 	bl	80004d8 <__aeabi_dmul>
	v[2] /= norm;
 80034fe:	4642      	mov	r2, r8
	v[1] /= norm;
 8003500:	e9cd 0106 	strd	r0, r1, [sp, #24]
	v[2] /= norm;
 8003504:	464b      	mov	r3, r9
 8003506:	4650      	mov	r0, sl
 8003508:	4659      	mov	r1, fp
 800350a:	f7fc ffe5 	bl	80004d8 <__aeabi_dmul>
	normalize(East_ref);

	//step2: cross East and gravity(negative acceleration) to get reference direction of North
	double North_ref[3] = {0};

	North_ref[0] = East_ref[1]*g[2] - East_ref[2]*g[1];
 800350e:	9f00      	ldr	r7, [sp, #0]
	v[2] /= norm;
 8003510:	4682      	mov	sl, r0
 8003512:	468b      	mov	fp, r1
	North_ref[0] = East_ref[1]*g[2] - East_ref[2]*g[1];
 8003514:	e9dd 0106 	ldrd	r0, r1, [sp, #24]
 8003518:	463a      	mov	r2, r7
 800351a:	4623      	mov	r3, r4
 800351c:	f7fc ffdc 	bl	80004d8 <__aeabi_dmul>
 8003520:	9a08      	ldr	r2, [sp, #32]
 8003522:	4680      	mov	r8, r0
 8003524:	4689      	mov	r9, r1
 8003526:	4633      	mov	r3, r6
 8003528:	4650      	mov	r0, sl
 800352a:	4659      	mov	r1, fp
 800352c:	e9cd ab0c 	strd	sl, fp, [sp, #48]	; 0x30
 8003530:	f7fc ffd2 	bl	80004d8 <__aeabi_dmul>
 8003534:	4602      	mov	r2, r0
 8003536:	460b      	mov	r3, r1
 8003538:	4640      	mov	r0, r8
 800353a:	4649      	mov	r1, r9
 800353c:	f7fc fe14 	bl	8000168 <__aeabi_dsub>
	North_ref[1] = East_ref[2]*g[0] - East_ref[0]*g[2];
 8003540:	462b      	mov	r3, r5
	North_ref[0] = East_ref[1]*g[2] - East_ref[2]*g[1];
 8003542:	4682      	mov	sl, r0
 8003544:	468b      	mov	fp, r1
	North_ref[1] = East_ref[2]*g[0] - East_ref[0]*g[2];
 8003546:	e9dd 010c 	ldrd	r0, r1, [sp, #48]	; 0x30
 800354a:	9a03      	ldr	r2, [sp, #12]
 800354c:	f7fc ffc4 	bl	80004d8 <__aeabi_dmul>
 8003550:	463a      	mov	r2, r7
 8003552:	4680      	mov	r8, r0
 8003554:	4689      	mov	r9, r1
 8003556:	e9dd 0104 	ldrd	r0, r1, [sp, #16]
 800355a:	4623      	mov	r3, r4
 800355c:	9700      	str	r7, [sp, #0]
 800355e:	f7fc ffbb 	bl	80004d8 <__aeabi_dmul>
 8003562:	4602      	mov	r2, r0
 8003564:	460b      	mov	r3, r1
 8003566:	4640      	mov	r0, r8
 8003568:	4649      	mov	r1, r9
 800356a:	f7fc fdfd 	bl	8000168 <__aeabi_dsub>
	North_ref[2] = East_ref[0]*g[1] - East_ref[1]*g[0];
 800356e:	4633      	mov	r3, r6
	North_ref[1] = East_ref[2]*g[0] - East_ref[0]*g[2];
 8003570:	4680      	mov	r8, r0
 8003572:	4689      	mov	r9, r1
	North_ref[2] = East_ref[0]*g[1] - East_ref[1]*g[0];
 8003574:	e9dd 0104 	ldrd	r0, r1, [sp, #16]
 8003578:	9a08      	ldr	r2, [sp, #32]
 800357a:	f7fc ffad 	bl	80004d8 <__aeabi_dmul>
 800357e:	462b      	mov	r3, r5
 8003580:	4606      	mov	r6, r0
 8003582:	460f      	mov	r7, r1
 8003584:	e9dd 0106 	ldrd	r0, r1, [sp, #24]
 8003588:	9a03      	ldr	r2, [sp, #12]
 800358a:	f7fc ffa5 	bl	80004d8 <__aeabi_dmul>
 800358e:	4602      	mov	r2, r0
 8003590:	460b      	mov	r3, r1
 8003592:	4630      	mov	r0, r6
 8003594:	4639      	mov	r1, r7
 8003596:	f7fc fde7 	bl	8000168 <__aeabi_dsub>
	double norm = sqrt(v[0]*v[0] + v[1]*v[1] + v[2]*v[2]);
 800359a:	4652      	mov	r2, sl
	North_ref[2] = East_ref[0]*g[1] - East_ref[1]*g[0];
 800359c:	460f      	mov	r7, r1
 800359e:	4606      	mov	r6, r0
	double norm = sqrt(v[0]*v[0] + v[1]*v[1] + v[2]*v[2]);
 80035a0:	465b      	mov	r3, fp
 80035a2:	4650      	mov	r0, sl
 80035a4:	4659      	mov	r1, fp
 80035a6:	f7fc ff97 	bl	80004d8 <__aeabi_dmul>
 80035aa:	4642      	mov	r2, r8
 80035ac:	4604      	mov	r4, r0
 80035ae:	460d      	mov	r5, r1
 80035b0:	464b      	mov	r3, r9
 80035b2:	4640      	mov	r0, r8
 80035b4:	4649      	mov	r1, r9
 80035b6:	e9cd 890e 	strd	r8, r9, [sp, #56]	; 0x38
 80035ba:	f7fc ff8d 	bl	80004d8 <__aeabi_dmul>
 80035be:	4602      	mov	r2, r0
 80035c0:	460b      	mov	r3, r1
 80035c2:	4620      	mov	r0, r4
 80035c4:	4629      	mov	r1, r5
 80035c6:	f7fc fdd1 	bl	800016c <__adddf3>
 80035ca:	463b      	mov	r3, r7
 80035cc:	4604      	mov	r4, r0
 80035ce:	460d      	mov	r5, r1
 80035d0:	4632      	mov	r2, r6
 80035d2:	4639      	mov	r1, r7
 80035d4:	4630      	mov	r0, r6
 80035d6:	f7fc ff7f 	bl	80004d8 <__aeabi_dmul>
 80035da:	4602      	mov	r2, r0
 80035dc:	460b      	mov	r3, r1
 80035de:	4620      	mov	r0, r4
 80035e0:	4629      	mov	r1, r5
 80035e2:	f7fc fdc3 	bl	800016c <__adddf3>
 80035e6:	f007 fe4f 	bl	800b288 <sqrt>
 80035ea:	4602      	mov	r2, r0
 80035ec:	460b      	mov	r3, r1
 80035ee:	2000      	movs	r0, #0
 80035f0:	4905      	ldr	r1, [pc, #20]	; (8003608 <calc_magnetic_orientation+0x36c>)
 80035f2:	f7fd f89b 	bl	800072c <__aeabi_ddiv>
 80035f6:	4689      	mov	r9, r1
 80035f8:	4680      	mov	r8, r0
	v[0] /= norm;
 80035fa:	4602      	mov	r2, r0
 80035fc:	460b      	mov	r3, r1
 80035fe:	4650      	mov	r0, sl
 8003600:	e004      	b.n	800360c <calc_magnetic_orientation+0x370>
 8003602:	bf00      	nop
 8003604:	200005f8 	.word	0x200005f8
 8003608:	3ff00000 	.word	0x3ff00000
 800360c:	4659      	mov	r1, fp
 800360e:	f7fc ff63 	bl	80004d8 <__aeabi_dmul>
	v[1] /= norm;
 8003612:	464b      	mov	r3, r9
 8003614:	4642      	mov	r2, r8
	v[0] /= norm;
 8003616:	4682      	mov	sl, r0
 8003618:	468b      	mov	fp, r1
	v[1] /= norm;
 800361a:	e9dd 010e 	ldrd	r0, r1, [sp, #56]	; 0x38
 800361e:	f7fc ff5b 	bl	80004d8 <__aeabi_dmul>
	v[2] /= norm;
 8003622:	464b      	mov	r3, r9
 8003624:	4642      	mov	r2, r8
	v[1] /= norm;
 8003626:	4605      	mov	r5, r0
 8003628:	460c      	mov	r4, r1
	v[2] /= norm;
 800362a:	4630      	mov	r0, r6
 800362c:	4639      	mov	r1, r7
 800362e:	f7fc ff53 	bl	80004d8 <__aeabi_dmul>
	m10 = North_ref[0];	m11 = North_ref[1];	m12 = North_ref[2];
	m20 = -g[0];		m21 = -g[1];		m22 = -g[2];

	//conversion from transposed rotation matrix to quaternion
	double t;
	if (m22 < 0){
 8003632:	9f00      	ldr	r7, [sp, #0]
 8003634:	f8dd 902c 	ldr.w	r9, [sp, #44]	; 0x2c
	v[2] /= norm;
 8003638:	e9cd 010e 	strd	r0, r1, [sp, #56]	; 0x38
	if (m22 < 0){
 800363c:	2200      	movs	r2, #0
 800363e:	4638      	mov	r0, r7
 8003640:	4649      	mov	r1, r9
 8003642:	2300      	movs	r3, #0
 8003644:	f7fd f9ba 	bl	80009bc <__aeabi_dcmplt>
 8003648:	2800      	cmp	r0, #0
 800364a:	f000 8088 	beq.w	800375e <calc_magnetic_orientation+0x4c2>
 800364e:	e9dd 2306 	ldrd	r2, r3, [sp, #24]
 8003652:	4650      	mov	r0, sl
 8003654:	4659      	mov	r1, fp
 8003656:	f7fc fd89 	bl	800016c <__adddf3>
 800365a:	463a      	mov	r2, r7
 800365c:	464b      	mov	r3, r9
 800365e:	4682      	mov	sl, r0
 8003660:	468b      	mov	fp, r1
 8003662:	2000      	movs	r0, #0
 8003664:	496b      	ldr	r1, [pc, #428]	; (8003814 <calc_magnetic_orientation+0x578>)
 8003666:	f7fc fd7f 	bl	8000168 <__aeabi_dsub>
		if (m00 > m11){
 800366a:	e9dd 8904 	ldrd	r8, r9, [sp, #16]
 800366e:	4606      	mov	r6, r0
 8003670:	4642      	mov	r2, r8
 8003672:	464b      	mov	r3, r9
 8003674:	460f      	mov	r7, r1
 8003676:	4628      	mov	r0, r5
 8003678:	4621      	mov	r1, r4
 800367a:	f7fd f99f 	bl	80009bc <__aeabi_dcmplt>
			t = 1 + m00 - m11 - m22;
 800367e:	4642      	mov	r2, r8
 8003680:	464b      	mov	r3, r9
		if (m00 > m11){
 8003682:	2800      	cmp	r0, #0
 8003684:	d14c      	bne.n	8003720 <calc_magnetic_orientation+0x484>
			XIMU_observ.mag_ref_q0 = m12-m21;
			XIMU_observ.mag_ref_q1 = t;
			XIMU_observ.mag_ref_q2 = m01+m10;
			XIMU_observ.mag_ref_q3 = m20+m02;
		}else{
			t = 1 - m00 + m11 - m22;
 8003686:	4630      	mov	r0, r6
 8003688:	4639      	mov	r1, r7
 800368a:	f7fc fd6d 	bl	8000168 <__aeabi_dsub>
 800368e:	462a      	mov	r2, r5
 8003690:	4623      	mov	r3, r4
 8003692:	f7fc fd6b 	bl	800016c <__adddf3>

			XIMU_observ.mag_ref_q0 = m20-m02;
 8003696:	e9dd 230c 	ldrd	r2, r3, [sp, #48]	; 0x30
			t = 1 - m00 + m11 - m22;
 800369a:	4604      	mov	r4, r0
 800369c:	460d      	mov	r5, r1
			XIMU_observ.mag_ref_q0 = m20-m02;
 800369e:	9803      	ldr	r0, [sp, #12]
 80036a0:	9909      	ldr	r1, [sp, #36]	; 0x24
 80036a2:	f7fc fd61 	bl	8000168 <__aeabi_dsub>
 80036a6:	9a08      	ldr	r2, [sp, #32]
 80036a8:	4680      	mov	r8, r0
 80036aa:	4689      	mov	r9, r1
 80036ac:	e9dd 010e 	ldrd	r0, r1, [sp, #56]	; 0x38
 80036b0:	9b0a      	ldr	r3, [sp, #40]	; 0x28
 80036b2:	f7fc fd5b 	bl	800016c <__adddf3>
 80036b6:	4626      	mov	r6, r4
 80036b8:	462f      	mov	r7, r5
 80036ba:	e9cd 0106 	strd	r0, r1, [sp, #24]
			 XIMU_observ.mag_ref_q3 = m01-m10;
		 }
	 }

	//normalize
	XIMU_observ.mag_ref_q0 *= 0.5f / sqrt(t);
 80036be:	4620      	mov	r0, r4
 80036c0:	4629      	mov	r1, r5
 80036c2:	f007 fde1 	bl	800b288 <sqrt>
 80036c6:	4602      	mov	r2, r0
 80036c8:	460b      	mov	r3, r1
 80036ca:	2000      	movs	r0, #0
 80036cc:	4952      	ldr	r1, [pc, #328]	; (8003818 <calc_magnetic_orientation+0x57c>)
 80036ce:	f7fd f82d 	bl	800072c <__aeabi_ddiv>
 80036d2:	4604      	mov	r4, r0
 80036d4:	460d      	mov	r5, r1
 80036d6:	4622      	mov	r2, r4
 80036d8:	462b      	mov	r3, r5
 80036da:	4640      	mov	r0, r8
 80036dc:	4649      	mov	r1, r9
 80036de:	f7fc fefb 	bl	80004d8 <__aeabi_dmul>
 80036e2:	f8df 8138 	ldr.w	r8, [pc, #312]	; 800381c <calc_magnetic_orientation+0x580>
	XIMU_observ.mag_ref_q1 *= 0.5f / sqrt(t);
 80036e6:	4622      	mov	r2, r4
	XIMU_observ.mag_ref_q0 *= 0.5f / sqrt(t);
 80036e8:	e9c8 0100 	strd	r0, r1, [r8]
	XIMU_observ.mag_ref_q1 *= 0.5f / sqrt(t);
 80036ec:	462b      	mov	r3, r5
 80036ee:	4650      	mov	r0, sl
 80036f0:	4659      	mov	r1, fp
 80036f2:	f7fc fef1 	bl	80004d8 <__aeabi_dmul>
	XIMU_observ.mag_ref_q2 *= 0.5f / sqrt(t);
 80036f6:	4632      	mov	r2, r6
	XIMU_observ.mag_ref_q1 *= 0.5f / sqrt(t);
 80036f8:	e9c8 0102 	strd	r0, r1, [r8, #8]
	XIMU_observ.mag_ref_q2 *= 0.5f / sqrt(t);
 80036fc:	463b      	mov	r3, r7
 80036fe:	4620      	mov	r0, r4
 8003700:	4629      	mov	r1, r5
 8003702:	f7fc fee9 	bl	80004d8 <__aeabi_dmul>
	XIMU_observ.mag_ref_q3 *= 0.5f / sqrt(t);
 8003706:	4622      	mov	r2, r4
	XIMU_observ.mag_ref_q2 *= 0.5f / sqrt(t);
 8003708:	e9c8 0104 	strd	r0, r1, [r8, #16]
	XIMU_observ.mag_ref_q3 *= 0.5f / sqrt(t);
 800370c:	e9dd 0106 	ldrd	r0, r1, [sp, #24]
 8003710:	462b      	mov	r3, r5
 8003712:	f7fc fee1 	bl	80004d8 <__aeabi_dmul>
 8003716:	e9c8 0106 	strd	r0, r1, [r8, #24]
}
 800371a:	b011      	add	sp, #68	; 0x44
 800371c:	e8bd 8ff0 	ldmia.w	sp!, {r4, r5, r6, r7, r8, r9, sl, fp, pc}
			t = 1 + m00 - m11 - m22;
 8003720:	4630      	mov	r0, r6
 8003722:	4639      	mov	r1, r7
 8003724:	f7fc fd22 	bl	800016c <__adddf3>
 8003728:	462a      	mov	r2, r5
 800372a:	4623      	mov	r3, r4
 800372c:	f7fc fd1c 	bl	8000168 <__aeabi_dsub>
 8003730:	9a08      	ldr	r2, [sp, #32]
 8003732:	4604      	mov	r4, r0
 8003734:	460d      	mov	r5, r1
 8003736:	e9dd 010e 	ldrd	r0, r1, [sp, #56]	; 0x38
 800373a:	9b0a      	ldr	r3, [sp, #40]	; 0x28
 800373c:	f7fc fd14 	bl	8000168 <__aeabi_dsub>
 8003740:	e9dd 230c 	ldrd	r2, r3, [sp, #48]	; 0x30
 8003744:	4680      	mov	r8, r0
 8003746:	4689      	mov	r9, r1
 8003748:	9803      	ldr	r0, [sp, #12]
 800374a:	9909      	ldr	r1, [sp, #36]	; 0x24
 800374c:	f7fc fd0e 	bl	800016c <__adddf3>
 8003750:	4656      	mov	r6, sl
 8003752:	465f      	mov	r7, fp
 8003754:	e9cd 0106 	strd	r0, r1, [sp, #24]
 8003758:	46a2      	mov	sl, r4
 800375a:	46ab      	mov	fp, r5
 800375c:	e7af      	b.n	80036be <calc_magnetic_orientation+0x422>
 800375e:	4652      	mov	r2, sl
 8003760:	e9dd 0106 	ldrd	r0, r1, [sp, #24]
 8003764:	465b      	mov	r3, fp
 8003766:	f7fc fcff 	bl	8000168 <__aeabi_dsub>
 800376a:	2200      	movs	r2, #0
 800376c:	e9cd 0106 	strd	r0, r1, [sp, #24]
 8003770:	4b28      	ldr	r3, [pc, #160]	; (8003814 <calc_magnetic_orientation+0x578>)
 8003772:	9800      	ldr	r0, [sp, #0]
 8003774:	990b      	ldr	r1, [sp, #44]	; 0x2c
 8003776:	f7fc fcf9 	bl	800016c <__adddf3>
		 if (m00 < -m11){
 800377a:	e9dd 9a04 	ldrd	r9, sl, [sp, #16]
 800377e:	4606      	mov	r6, r0
 8003780:	460f      	mov	r7, r1
 8003782:	464a      	mov	r2, r9
 8003784:	4653      	mov	r3, sl
 8003786:	4628      	mov	r0, r5
 8003788:	f104 4100 	add.w	r1, r4, #2147483648	; 0x80000000
 800378c:	f7fd f934 	bl	80009f8 <__aeabi_dcmpgt>
 8003790:	b9f0      	cbnz	r0, 80037d0 <calc_magnetic_orientation+0x534>
			 t = 1 + m00 + m11 + m22;
 8003792:	4632      	mov	r2, r6
 8003794:	463b      	mov	r3, r7
 8003796:	4648      	mov	r0, r9
 8003798:	4651      	mov	r1, sl
 800379a:	f7fc fce7 	bl	800016c <__adddf3>
 800379e:	462a      	mov	r2, r5
 80037a0:	4623      	mov	r3, r4
 80037a2:	f7fc fce3 	bl	800016c <__adddf3>
 80037a6:	9a08      	ldr	r2, [sp, #32]
 80037a8:	4604      	mov	r4, r0
 80037aa:	460d      	mov	r5, r1
 80037ac:	e9dd 010e 	ldrd	r0, r1, [sp, #56]	; 0x38
 80037b0:	9b0a      	ldr	r3, [sp, #40]	; 0x28
 80037b2:	f7fc fcd9 	bl	8000168 <__aeabi_dsub>
			 XIMU_observ.mag_ref_q2 = m20-m02;
 80037b6:	e9dd 230c 	ldrd	r2, r3, [sp, #48]	; 0x30
 80037ba:	4682      	mov	sl, r0
 80037bc:	468b      	mov	fp, r1
 80037be:	9803      	ldr	r0, [sp, #12]
 80037c0:	9909      	ldr	r1, [sp, #36]	; 0x24
 80037c2:	f7fc fcd1 	bl	8000168 <__aeabi_dsub>
 80037c6:	46a0      	mov	r8, r4
 80037c8:	4606      	mov	r6, r0
 80037ca:	460f      	mov	r7, r1
 80037cc:	46a9      	mov	r9, r5
 80037ce:	e776      	b.n	80036be <calc_magnetic_orientation+0x422>
			 t = 1 - m00 - m11 + m22;
 80037d0:	464a      	mov	r2, r9
 80037d2:	4653      	mov	r3, sl
 80037d4:	4630      	mov	r0, r6
 80037d6:	4639      	mov	r1, r7
 80037d8:	f7fc fcc6 	bl	8000168 <__aeabi_dsub>
 80037dc:	462a      	mov	r2, r5
 80037de:	4623      	mov	r3, r4
 80037e0:	f7fc fcc2 	bl	8000168 <__aeabi_dsub>
 80037e4:	e9dd 230c 	ldrd	r2, r3, [sp, #48]	; 0x30
 80037e8:	4604      	mov	r4, r0
 80037ea:	460d      	mov	r5, r1
 80037ec:	9803      	ldr	r0, [sp, #12]
 80037ee:	9909      	ldr	r1, [sp, #36]	; 0x24
 80037f0:	f7fc fcbc 	bl	800016c <__adddf3>
 80037f4:	9a08      	ldr	r2, [sp, #32]
 80037f6:	4682      	mov	sl, r0
 80037f8:	468b      	mov	fp, r1
 80037fa:	e9dd 010e 	ldrd	r0, r1, [sp, #56]	; 0x38
 80037fe:	9b0a      	ldr	r3, [sp, #40]	; 0x28
 8003800:	f7fc fcb4 	bl	800016c <__adddf3>
 8003804:	e9dd 8906 	ldrd	r8, r9, [sp, #24]
 8003808:	4606      	mov	r6, r0
 800380a:	460f      	mov	r7, r1
 800380c:	e9cd 4506 	strd	r4, r5, [sp, #24]
 8003810:	e755      	b.n	80036be <calc_magnetic_orientation+0x422>
 8003812:	bf00      	nop
 8003814:	3ff00000 	.word	0x3ff00000
 8003818:	3fe00000 	.word	0x3fe00000
 800381c:	20000818 	.word	0x20000818

08003820 <build_data_str>:

void calc_absolute_position();
void calc_absolute_altitude();

void build_data_str(char* str){
 8003820:	b570      	push	{r4, r5, r6, lr}

	char temp[30];
	char delim[2] = {'\t','\0'};
 8003822:	2309      	movs	r3, #9
	char term[2] = {'\n','\0'};
 8003824:	250a      	movs	r5, #10
void build_data_str(char* str){
 8003826:	4604      	mov	r4, r0


	itoa((int)(XIMU_sens.q0),temp,10);
 8003828:	4ecf      	ldr	r6, [pc, #828]	; (8003b68 <build_data_str+0x348>)
void build_data_str(char* str){
 800382a:	b08a      	sub	sp, #40	; 0x28
	itoa((int)(XIMU_sens.q0),temp,10);
 800382c:	e9d6 0100 	ldrd	r0, r1, [r6]
	char delim[2] = {'\t','\0'};
 8003830:	f8ad 3000 	strh.w	r3, [sp]
	char term[2] = {'\n','\0'};
 8003834:	f8ad 5004 	strh.w	r5, [sp, #4]
	itoa((int)(XIMU_sens.q0),temp,10);
 8003838:	f7fd f8fe 	bl	8000a38 <__aeabi_d2iz>
 800383c:	462a      	mov	r2, r5
 800383e:	a902      	add	r1, sp, #8
 8003840:	f005 f8ce 	bl	80089e0 <itoa>
	strcpy(str,temp);
 8003844:	a902      	add	r1, sp, #8
 8003846:	4620      	mov	r0, r4
 8003848:	f005 f91a 	bl	8008a80 <stpcpy>
	strcat(str,delim);
 800384c:	4669      	mov	r1, sp
 800384e:	f005 f920 	bl	8008a92 <strcpy>

	itoa((int)(XIMU_sens.q1),temp,10);
 8003852:	e9d6 0102 	ldrd	r0, r1, [r6, #8]
 8003856:	f7fd f8ef 	bl	8000a38 <__aeabi_d2iz>
 800385a:	462a      	mov	r2, r5
 800385c:	a902      	add	r1, sp, #8
 800385e:	f005 f8bf 	bl	80089e0 <itoa>
 8003862:	4620      	mov	r0, r4
 8003864:	f7fc fc74 	bl	8000150 <strlen>
	strcat(str,temp);
 8003868:	a902      	add	r1, sp, #8
 800386a:	4420      	add	r0, r4
 800386c:	f005 f908 	bl	8008a80 <stpcpy>
	strcat(str,delim);
 8003870:	4669      	mov	r1, sp
 8003872:	f005 f90e 	bl	8008a92 <strcpy>

	itoa((int)(XIMU_sens.q2),temp,10);
 8003876:	e9d6 0104 	ldrd	r0, r1, [r6, #16]
 800387a:	f7fd f8dd 	bl	8000a38 <__aeabi_d2iz>
 800387e:	462a      	mov	r2, r5
 8003880:	a902      	add	r1, sp, #8
 8003882:	f005 f8ad 	bl	80089e0 <itoa>
 8003886:	4620      	mov	r0, r4
 8003888:	f7fc fc62 	bl	8000150 <strlen>
	strcat(str,temp);
 800388c:	a902      	add	r1, sp, #8
 800388e:	4420      	add	r0, r4
 8003890:	f005 f8f6 	bl	8008a80 <stpcpy>
	strcat(str,delim);
 8003894:	4669      	mov	r1, sp
 8003896:	f005 f8fc 	bl	8008a92 <strcpy>

	itoa((int)(XIMU_sens.q3),temp,10);
 800389a:	e9d6 0106 	ldrd	r0, r1, [r6, #24]
 800389e:	f7fd f8cb 	bl	8000a38 <__aeabi_d2iz>
 80038a2:	462a      	mov	r2, r5
 80038a4:	a902      	add	r1, sp, #8
 80038a6:	f005 f89b 	bl	80089e0 <itoa>
 80038aa:	4620      	mov	r0, r4
 80038ac:	f7fc fc50 	bl	8000150 <strlen>
	strcat(str,temp);
 80038b0:	a902      	add	r1, sp, #8
 80038b2:	4420      	add	r0, r4
 80038b4:	f005 f8e4 	bl	8008a80 <stpcpy>
	strcat(str,delim);
 80038b8:	4669      	mov	r1, sp
 80038ba:	f005 f8ea 	bl	8008a92 <strcpy>

	itoa((int)(XIMU_sens.ax*1000),temp,10);
 80038be:	e9d6 0108 	ldrd	r0, r1, [r6, #32]
 80038c2:	4baa      	ldr	r3, [pc, #680]	; (8003b6c <build_data_str+0x34c>)
 80038c4:	2200      	movs	r2, #0
 80038c6:	f7fc fe07 	bl	80004d8 <__aeabi_dmul>
 80038ca:	f7fd f8b5 	bl	8000a38 <__aeabi_d2iz>
 80038ce:	462a      	mov	r2, r5
 80038d0:	a902      	add	r1, sp, #8
 80038d2:	f005 f885 	bl	80089e0 <itoa>
 80038d6:	4620      	mov	r0, r4
 80038d8:	f7fc fc3a 	bl	8000150 <strlen>
	strcat(str,temp);
 80038dc:	a902      	add	r1, sp, #8
 80038de:	4420      	add	r0, r4
 80038e0:	f005 f8ce 	bl	8008a80 <stpcpy>
	strcat(str,delim);
 80038e4:	4669      	mov	r1, sp
 80038e6:	f005 f8d4 	bl	8008a92 <strcpy>

	itoa((int)(XIMU_sens.ay*1000),temp,10);
 80038ea:	e9d6 010a 	ldrd	r0, r1, [r6, #40]	; 0x28
 80038ee:	4b9f      	ldr	r3, [pc, #636]	; (8003b6c <build_data_str+0x34c>)
 80038f0:	2200      	movs	r2, #0
 80038f2:	f7fc fdf1 	bl	80004d8 <__aeabi_dmul>
 80038f6:	f7fd f89f 	bl	8000a38 <__aeabi_d2iz>
 80038fa:	462a      	mov	r2, r5
 80038fc:	a902      	add	r1, sp, #8
 80038fe:	f005 f86f 	bl	80089e0 <itoa>
 8003902:	4620      	mov	r0, r4
 8003904:	f7fc fc24 	bl	8000150 <strlen>
	strcat(str,temp);
 8003908:	a902      	add	r1, sp, #8
 800390a:	4420      	add	r0, r4
 800390c:	f005 f8b8 	bl	8008a80 <stpcpy>
	strcat(str,delim);
 8003910:	4669      	mov	r1, sp
 8003912:	f005 f8be 	bl	8008a92 <strcpy>

	itoa((int)(XIMU_sens.az*1000),temp,10);
 8003916:	e9d6 010c 	ldrd	r0, r1, [r6, #48]	; 0x30
 800391a:	4b94      	ldr	r3, [pc, #592]	; (8003b6c <build_data_str+0x34c>)
 800391c:	2200      	movs	r2, #0
 800391e:	f7fc fddb 	bl	80004d8 <__aeabi_dmul>
 8003922:	f7fd f889 	bl	8000a38 <__aeabi_d2iz>
 8003926:	462a      	mov	r2, r5
 8003928:	a902      	add	r1, sp, #8
 800392a:	f005 f859 	bl	80089e0 <itoa>
 800392e:	4620      	mov	r0, r4
 8003930:	f7fc fc0e 	bl	8000150 <strlen>
	strcat(str,temp);
 8003934:	a902      	add	r1, sp, #8
 8003936:	4420      	add	r0, r4
 8003938:	f005 f8a2 	bl	8008a80 <stpcpy>
	strcat(str,delim);
 800393c:	4669      	mov	r1, sp
 800393e:	f005 f8a8 	bl	8008a92 <strcpy>

	itoa((int)(XIMU_sens.gx*1000),temp,10);
 8003942:	e9d6 010e 	ldrd	r0, r1, [r6, #56]	; 0x38
 8003946:	4b89      	ldr	r3, [pc, #548]	; (8003b6c <build_data_str+0x34c>)
 8003948:	2200      	movs	r2, #0
 800394a:	f7fc fdc5 	bl	80004d8 <__aeabi_dmul>
 800394e:	f7fd f873 	bl	8000a38 <__aeabi_d2iz>
 8003952:	462a      	mov	r2, r5
 8003954:	a902      	add	r1, sp, #8
 8003956:	f005 f843 	bl	80089e0 <itoa>
 800395a:	4620      	mov	r0, r4
 800395c:	f7fc fbf8 	bl	8000150 <strlen>
	strcat(str,temp);
 8003960:	a902      	add	r1, sp, #8
 8003962:	4420      	add	r0, r4
 8003964:	f005 f88c 	bl	8008a80 <stpcpy>
	strcat(str,delim);
 8003968:	4669      	mov	r1, sp
 800396a:	f005 f892 	bl	8008a92 <strcpy>

	itoa((int)(XIMU_sens.gy*1000),temp,10);
 800396e:	e9d6 0110 	ldrd	r0, r1, [r6, #64]	; 0x40
 8003972:	4b7e      	ldr	r3, [pc, #504]	; (8003b6c <build_data_str+0x34c>)
 8003974:	2200      	movs	r2, #0
 8003976:	f7fc fdaf 	bl	80004d8 <__aeabi_dmul>
 800397a:	f7fd f85d 	bl	8000a38 <__aeabi_d2iz>
 800397e:	462a      	mov	r2, r5
 8003980:	a902      	add	r1, sp, #8
 8003982:	f005 f82d 	bl	80089e0 <itoa>
 8003986:	4620      	mov	r0, r4
 8003988:	f7fc fbe2 	bl	8000150 <strlen>
	strcat(str,temp);
 800398c:	a902      	add	r1, sp, #8
 800398e:	4420      	add	r0, r4
 8003990:	f005 f876 	bl	8008a80 <stpcpy>
	strcat(str,delim);
 8003994:	4669      	mov	r1, sp
 8003996:	f005 f87c 	bl	8008a92 <strcpy>

	itoa((int)(XIMU_sens.gz*1000),temp,10);
 800399a:	e9d6 0112 	ldrd	r0, r1, [r6, #72]	; 0x48
 800399e:	4b73      	ldr	r3, [pc, #460]	; (8003b6c <build_data_str+0x34c>)
 80039a0:	2200      	movs	r2, #0
 80039a2:	f7fc fd99 	bl	80004d8 <__aeabi_dmul>
 80039a6:	f7fd f847 	bl	8000a38 <__aeabi_d2iz>
 80039aa:	462a      	mov	r2, r5
 80039ac:	a902      	add	r1, sp, #8
 80039ae:	f005 f817 	bl	80089e0 <itoa>
 80039b2:	4620      	mov	r0, r4
 80039b4:	f7fc fbcc 	bl	8000150 <strlen>
	strcat(str,temp);
 80039b8:	a902      	add	r1, sp, #8
 80039ba:	4420      	add	r0, r4
 80039bc:	f005 f860 	bl	8008a80 <stpcpy>
	strcat(str,delim);
 80039c0:	4669      	mov	r1, sp
 80039c2:	f005 f866 	bl	8008a92 <strcpy>

	itoa((int)(XIMU_sens.mx*1000),temp,10);
 80039c6:	e9d6 0116 	ldrd	r0, r1, [r6, #88]	; 0x58
 80039ca:	4b68      	ldr	r3, [pc, #416]	; (8003b6c <build_data_str+0x34c>)
 80039cc:	2200      	movs	r2, #0
 80039ce:	f7fc fd83 	bl	80004d8 <__aeabi_dmul>
 80039d2:	f7fd f831 	bl	8000a38 <__aeabi_d2iz>
 80039d6:	462a      	mov	r2, r5
 80039d8:	a902      	add	r1, sp, #8
 80039da:	f005 f801 	bl	80089e0 <itoa>
 80039de:	4620      	mov	r0, r4
 80039e0:	f7fc fbb6 	bl	8000150 <strlen>
	strcat(str,temp);
 80039e4:	a902      	add	r1, sp, #8
 80039e6:	4420      	add	r0, r4
 80039e8:	f005 f84a 	bl	8008a80 <stpcpy>
	strcat(str,delim);
 80039ec:	4669      	mov	r1, sp
 80039ee:	f005 f850 	bl	8008a92 <strcpy>

	itoa((int)(XIMU_sens.my*1000),temp,10);
 80039f2:	e9d6 0118 	ldrd	r0, r1, [r6, #96]	; 0x60
 80039f6:	4b5d      	ldr	r3, [pc, #372]	; (8003b6c <build_data_str+0x34c>)
 80039f8:	2200      	movs	r2, #0
 80039fa:	f7fc fd6d 	bl	80004d8 <__aeabi_dmul>
 80039fe:	f7fd f81b 	bl	8000a38 <__aeabi_d2iz>
 8003a02:	462a      	mov	r2, r5
 8003a04:	a902      	add	r1, sp, #8
 8003a06:	f004 ffeb 	bl	80089e0 <itoa>
 8003a0a:	4620      	mov	r0, r4
 8003a0c:	f7fc fba0 	bl	8000150 <strlen>
	strcat(str,temp);
 8003a10:	a902      	add	r1, sp, #8
 8003a12:	4420      	add	r0, r4
 8003a14:	f005 f834 	bl	8008a80 <stpcpy>
	strcat(str,delim);
 8003a18:	4669      	mov	r1, sp
 8003a1a:	f005 f83a 	bl	8008a92 <strcpy>

	itoa((int)(XIMU_sens.mz*1000),temp,10);
 8003a1e:	e9d6 011a 	ldrd	r0, r1, [r6, #104]	; 0x68
 8003a22:	4b52      	ldr	r3, [pc, #328]	; (8003b6c <build_data_str+0x34c>)
 8003a24:	2200      	movs	r2, #0
 8003a26:	f7fc fd57 	bl	80004d8 <__aeabi_dmul>
 8003a2a:	f7fd f805 	bl	8000a38 <__aeabi_d2iz>
 8003a2e:	462a      	mov	r2, r5
 8003a30:	a902      	add	r1, sp, #8
 8003a32:	f004 ffd5 	bl	80089e0 <itoa>
 8003a36:	4620      	mov	r0, r4
 8003a38:	f7fc fb8a 	bl	8000150 <strlen>
	strcat(str,temp);
 8003a3c:	a902      	add	r1, sp, #8
 8003a3e:	4420      	add	r0, r4
 8003a40:	f005 f81e 	bl	8008a80 <stpcpy>
	strcat(str,delim);
 8003a44:	4669      	mov	r1, sp
 8003a46:	f005 f824 	bl	8008a92 <strcpy>

	itoa((int)(XIMU_sens.pressure*1000),temp,10);
 8003a4a:	e9d6 011e 	ldrd	r0, r1, [r6, #120]	; 0x78
 8003a4e:	4b47      	ldr	r3, [pc, #284]	; (8003b6c <build_data_str+0x34c>)
 8003a50:	2200      	movs	r2, #0
 8003a52:	f7fc fd41 	bl	80004d8 <__aeabi_dmul>
 8003a56:	f7fc ffef 	bl	8000a38 <__aeabi_d2iz>
 8003a5a:	462a      	mov	r2, r5
 8003a5c:	a902      	add	r1, sp, #8
 8003a5e:	f004 ffbf 	bl	80089e0 <itoa>
 8003a62:	4620      	mov	r0, r4
 8003a64:	f7fc fb74 	bl	8000150 <strlen>
	strcat(str,temp);
 8003a68:	a902      	add	r1, sp, #8
 8003a6a:	4420      	add	r0, r4
 8003a6c:	f005 f808 	bl	8008a80 <stpcpy>
	strcat(str,delim);
 8003a70:	4669      	mov	r1, sp
 8003a72:	f005 f80e 	bl	8008a92 <strcpy>

	itoa((int)(XIMU_sens.temperature*1000),temp,10);
 8003a76:	e9d6 0120 	ldrd	r0, r1, [r6, #128]	; 0x80
 8003a7a:	4b3c      	ldr	r3, [pc, #240]	; (8003b6c <build_data_str+0x34c>)
 8003a7c:	2200      	movs	r2, #0
 8003a7e:	f7fc fd2b 	bl	80004d8 <__aeabi_dmul>
 8003a82:	f7fc ffd9 	bl	8000a38 <__aeabi_d2iz>
 8003a86:	462a      	mov	r2, r5
 8003a88:	a902      	add	r1, sp, #8
 8003a8a:	f004 ffa9 	bl	80089e0 <itoa>
 8003a8e:	4620      	mov	r0, r4
 8003a90:	f7fc fb5e 	bl	8000150 <strlen>
	strcat(str,temp);
 8003a94:	a902      	add	r1, sp, #8
 8003a96:	4420      	add	r0, r4
 8003a98:	f004 fff2 	bl	8008a80 <stpcpy>
	strcat(str,delim);
 8003a9c:	4669      	mov	r1, sp
 8003a9e:	f004 fff8 	bl	8008a92 <strcpy>

	itoa((int)(XIMU_sens.lat*1000000),temp,10);
 8003aa2:	a32f      	add	r3, pc, #188	; (adr r3, 8003b60 <build_data_str+0x340>)
 8003aa4:	e9d3 2300 	ldrd	r2, r3, [r3]
 8003aa8:	e9d6 0124 	ldrd	r0, r1, [r6, #144]	; 0x90
 8003aac:	f7fc fd14 	bl	80004d8 <__aeabi_dmul>
 8003ab0:	f7fc ffc2 	bl	8000a38 <__aeabi_d2iz>
 8003ab4:	462a      	mov	r2, r5
 8003ab6:	a902      	add	r1, sp, #8
 8003ab8:	f004 ff92 	bl	80089e0 <itoa>
 8003abc:	4620      	mov	r0, r4
 8003abe:	f7fc fb47 	bl	8000150 <strlen>
	strcat(str,temp);
 8003ac2:	a902      	add	r1, sp, #8
 8003ac4:	4420      	add	r0, r4
 8003ac6:	f004 ffdb 	bl	8008a80 <stpcpy>
	strcat(str,delim);
 8003aca:	4669      	mov	r1, sp
 8003acc:	f004 ffe1 	bl	8008a92 <strcpy>

	itoa((int)(XIMU_sens.lon*1000000),temp,10);
 8003ad0:	a323      	add	r3, pc, #140	; (adr r3, 8003b60 <build_data_str+0x340>)
 8003ad2:	e9d3 2300 	ldrd	r2, r3, [r3]
 8003ad6:	e9d6 0126 	ldrd	r0, r1, [r6, #152]	; 0x98
 8003ada:	f7fc fcfd 	bl	80004d8 <__aeabi_dmul>
 8003ade:	f7fc ffab 	bl	8000a38 <__aeabi_d2iz>
 8003ae2:	462a      	mov	r2, r5
 8003ae4:	a902      	add	r1, sp, #8
 8003ae6:	f004 ff7b 	bl	80089e0 <itoa>
 8003aea:	4620      	mov	r0, r4
 8003aec:	f7fc fb30 	bl	8000150 <strlen>
	strcat(str,temp);
 8003af0:	a902      	add	r1, sp, #8
 8003af2:	4420      	add	r0, r4
 8003af4:	f004 ffc4 	bl	8008a80 <stpcpy>
	strcat(str,delim);
 8003af8:	4669      	mov	r1, sp
 8003afa:	f004 ffca 	bl	8008a92 <strcpy>

	itoa((int)(XIMU_sens.qag_ts),temp,10);
 8003afe:	462a      	mov	r2, r5
 8003b00:	a902      	add	r1, sp, #8
 8003b02:	6d30      	ldr	r0, [r6, #80]	; 0x50
 8003b04:	f004 ff6c 	bl	80089e0 <itoa>
 8003b08:	4620      	mov	r0, r4
 8003b0a:	f7fc fb21 	bl	8000150 <strlen>
	strcat(str,temp);
 8003b0e:	a902      	add	r1, sp, #8
 8003b10:	4420      	add	r0, r4
 8003b12:	f004 ffb5 	bl	8008a80 <stpcpy>
	strcat(str,delim);
 8003b16:	4669      	mov	r1, sp
 8003b18:	f004 ffbb 	bl	8008a92 <strcpy>

	itoa((int)(XIMU_sens.m_ts),temp,10);
 8003b1c:	462a      	mov	r2, r5
 8003b1e:	a902      	add	r1, sp, #8
 8003b20:	6f30      	ldr	r0, [r6, #112]	; 0x70
 8003b22:	f004 ff5d 	bl	80089e0 <itoa>
 8003b26:	4620      	mov	r0, r4
 8003b28:	f7fc fb12 	bl	8000150 <strlen>
	strcat(str,temp);
 8003b2c:	a902      	add	r1, sp, #8
 8003b2e:	4420      	add	r0, r4
 8003b30:	f004 ffa6 	bl	8008a80 <stpcpy>
	strcat(str,delim);
 8003b34:	4669      	mov	r1, sp
 8003b36:	f004 ffac 	bl	8008a92 <strcpy>

	itoa((int)(XIMU_sens.pt_ts),temp,10);
 8003b3a:	462a      	mov	r2, r5
 8003b3c:	a902      	add	r1, sp, #8
 8003b3e:	f8d6 0088 	ldr.w	r0, [r6, #136]	; 0x88
 8003b42:	f004 ff4d 	bl	80089e0 <itoa>
 8003b46:	4620      	mov	r0, r4
 8003b48:	f7fc fb02 	bl	8000150 <strlen>
	strcat(str,temp);
 8003b4c:	a902      	add	r1, sp, #8
 8003b4e:	4420      	add	r0, r4
 8003b50:	f004 ff96 	bl	8008a80 <stpcpy>
	strcat(str,delim);
 8003b54:	4669      	mov	r1, sp
 8003b56:	f004 ff9c 	bl	8008a92 <strcpy>

	itoa((int)(XIMU_sens.gps_ts),temp,10);
 8003b5a:	462a      	mov	r2, r5
 8003b5c:	e008      	b.n	8003b70 <build_data_str+0x350>
 8003b5e:	bf00      	nop
 8003b60:	00000000 	.word	0x00000000
 8003b64:	412e8480 	.word	0x412e8480
 8003b68:	200005f8 	.word	0x200005f8
 8003b6c:	408f4000 	.word	0x408f4000
 8003b70:	a902      	add	r1, sp, #8
 8003b72:	f8d6 00a0 	ldr.w	r0, [r6, #160]	; 0xa0
 8003b76:	f004 ff33 	bl	80089e0 <itoa>
 8003b7a:	4620      	mov	r0, r4
 8003b7c:	f7fc fae8 	bl	8000150 <strlen>
	strcat(str,temp);
 8003b80:	a902      	add	r1, sp, #8
 8003b82:	4420      	add	r0, r4
 8003b84:	f004 ff7c 	bl	8008a80 <stpcpy>
	strcat(str,term);
 8003b88:	a901      	add	r1, sp, #4
 8003b8a:	f004 ff82 	bl	8008a92 <strcpy>
}
 8003b8e:	b00a      	add	sp, #40	; 0x28
 8003b90:	bd70      	pop	{r4, r5, r6, pc}
 8003b92:	bf00      	nop

08003b94 <GNSS_set_huart>:
 */

#include "gnss.h"

void GNSS_set_huart(UART_HandleTypeDef* huart){
	huartx = huart;
 8003b94:	4b01      	ldr	r3, [pc, #4]	; (8003b9c <GNSS_set_huart+0x8>)
 8003b96:	6018      	str	r0, [r3, #0]
}
 8003b98:	4770      	bx	lr
 8003b9a:	bf00      	nop
 8003b9c:	20000d10 	.word	0x20000d10

08003ba0 <GNSS_Init>:
 * initializes the GNSS interrupt.
 *
 * call this function before main loop.
 */
void GNSS_Init(){
	HAL_UART_Receive_DMA(huartx, GNSS.dma_buffer, DMA_BUFFER_SIZE);
 8003ba0:	4b03      	ldr	r3, [pc, #12]	; (8003bb0 <GNSS_Init+0x10>)
 8003ba2:	f44f 6280 	mov.w	r2, #1024	; 0x400
 8003ba6:	6818      	ldr	r0, [r3, #0]
 8003ba8:	4902      	ldr	r1, [pc, #8]	; (8003bb4 <GNSS_Init+0x14>)
 8003baa:	f003 b88b 	b.w	8006cc4 <HAL_UART_Receive_DMA>
 8003bae:	bf00      	nop
 8003bb0:	20000d10 	.word	0x20000d10
 8003bb4:	20000850 	.word	0x20000850

08003bb8 <GNSS_RX_Update>:
	//https://www.devcoons.com/stm32-uart-receive-unknown-size-data-using-dma-and-freertos/
}

int GNSS_RX_Update(){
 8003bb8:	e92d 4ff0 	stmdb	sp!, {r4, r5, r6, r7, r8, r9, sl, fp, lr}
 8003bbc:	b0b5      	sub	sp, #212	; 0xd4
  \details Disables IRQ interrupts by setting the I-bit in the CPSR.
           Can only be executed in Privileged modes.
 */
__STATIC_FORCEINLINE void __disable_irq(void)
{
  __ASM volatile ("cpsid i" : : : "memory");
 8003bbe:	b672      	cpsid	i

	__disable_irq();//I don't understand this
	int i = DMA_BUFFER_SIZE - huartx->hdmarx->Instance->CNDTR; //last byte received
 8003bc0:	4b85      	ldr	r3, [pc, #532]	; (8003dd8 <GNSS_RX_Update+0x220>)
 8003bc2:	681b      	ldr	r3, [r3, #0]
 8003bc4:	6b5b      	ldr	r3, [r3, #52]	; 0x34
 8003bc6:	681b      	ldr	r3, [r3, #0]
 8003bc8:	685b      	ldr	r3, [r3, #4]
 8003bca:	f5c3 6b80 	rsb	fp, r3, #1024	; 0x400
  __ASM volatile ("cpsie i" : : : "memory");
 8003bce:	b662      	cpsie	i
	__enable_irq();//I don't understand this

	int new_information = 0;
 8003bd0:	f04f 0800 	mov.w	r8, #0
 8003bd4:	f8df a208 	ldr.w	sl, [pc, #520]	; 8003de0 <GNSS_RX_Update+0x228>
		GNSS.message_buffer[counter] = '\n';
		GNSS.message_buffer[counter+1] = '\0';
		GNSS.start = end;

		//parse message if it is GNGGA
		char* str = strstr((char*)(GNSS.message_buffer),"$GNGGA,");
 8003bd8:	f8df 9208 	ldr.w	r9, [pc, #520]	; 8003de4 <GNSS_RX_Update+0x22c>

		if (str != NULL){
			char fields[NUM_FIELDS][MAX_FIELD_SIZE];
			parse_GNGGA(GNSS.message_buffer,fields);
			//field 1: UTC time
			sscanf(fields[1],"%2d%2d%2d.%3d",&GNSS.GNGGA.UTC_Hour,&GNSS.GNGGA.UTC_Min,&GNSS.GNGGA.UTC_Second,&GNSS.GNGGA.UTC_Millis);
 8003bdc:	f50a 638e 	add.w	r3, sl, #1136	; 0x470
 8003be0:	9303      	str	r3, [sp, #12]
		int counter = 0;
 8003be2:	2700      	movs	r7, #0
		GNSS.message_buffer[counter] = '\n';
 8003be4:	260a      	movs	r6, #10
 8003be6:	f8da 4464 	ldr.w	r4, [sl, #1124]	; 0x464
		char* str = strstr((char*)(GNSS.message_buffer),"$GNGGA,");
 8003bea:	4d7c      	ldr	r5, [pc, #496]	; (8003ddc <GNSS_RX_Update+0x224>)
	while (GNSS.start != i){
 8003bec:	455c      	cmp	r4, fp
 8003bee:	f000 80e5 	beq.w	8003dbc <GNSS_RX_Update+0x204>
		if (GNSS.dma_buffer[GNSS.start] != '$'){
 8003bf2:	f81a 3004 	ldrb.w	r3, [sl, r4]
 8003bf6:	2b24      	cmp	r3, #36	; 0x24
 8003bf8:	f040 80d4 	bne.w	8003da4 <GNSS_RX_Update+0x1ec>
int GNSS_RX_Update(){
 8003bfc:	4623      	mov	r3, r4
 8003bfe:	e002      	b.n	8003c06 <GNSS_RX_Update+0x4e>
			if (GNSS.dma_buffer[end] == '\n'){
 8003c00:	2a0a      	cmp	r2, #10
 8003c02:	f000 80df 	beq.w	8003dc4 <GNSS_RX_Update+0x20c>
		for(end = GNSS.start; end != i; end = (end + 1) % DMA_BUFFER_SIZE){
 8003c06:	3301      	adds	r3, #1
 8003c08:	425a      	negs	r2, r3
 8003c0a:	f3c2 0209 	ubfx	r2, r2, #0, #10
 8003c0e:	f3c3 0309 	ubfx	r3, r3, #0, #10
 8003c12:	bf58      	it	pl
 8003c14:	4253      	negpl	r3, r2
 8003c16:	459b      	cmp	fp, r3
 8003c18:	f81a 2003 	ldrb.w	r2, [sl, r3]
 8003c1c:	d1f0      	bne.n	8003c00 <GNSS_RX_Update+0x48>
		if (GNSS.dma_buffer[end] != '\n'){break;}//if end not found, return.
 8003c1e:	2a0a      	cmp	r2, #10
 8003c20:	f040 80cc 	bne.w	8003dbc <GNSS_RX_Update+0x204>
		for(end = GNSS.start; end != i; end = (end + 1) % DMA_BUFFER_SIZE){
 8003c24:	465b      	mov	r3, fp
 8003c26:	f8df c1c0 	ldr.w	ip, [pc, #448]	; 8003de8 <GNSS_RX_Update+0x230>
		int counter = 0;
 8003c2a:	2000      	movs	r0, #0
 8003c2c:	e000      	b.n	8003c30 <GNSS_RX_Update+0x78>
			counter++;
 8003c2e:	4610      	mov	r0, r2
		for(int j = GNSS.start; j != end; j = (j+1)%DMA_BUFFER_SIZE){
 8003c30:	1c61      	adds	r1, r4, #1
 8003c32:	424a      	negs	r2, r1
 8003c34:	f3c2 0209 	ubfx	r2, r2, #0, #10
			GNSS.message_buffer[counter] = GNSS.dma_buffer[j];
 8003c38:	f81a e004 	ldrb.w	lr, [sl, r4]
		for(int j = GNSS.start; j != end; j = (j+1)%DMA_BUFFER_SIZE){
 8003c3c:	f3c1 0409 	ubfx	r4, r1, #0, #10
 8003c40:	bf58      	it	pl
 8003c42:	4254      	negpl	r4, r2
 8003c44:	429c      	cmp	r4, r3
			GNSS.message_buffer[counter] = GNSS.dma_buffer[j];
 8003c46:	f80c ef01 	strb.w	lr, [ip, #1]!
			counter++;
 8003c4a:	f100 0201 	add.w	r2, r0, #1
		for(int j = GNSS.start; j != end; j = (j+1)%DMA_BUFFER_SIZE){
 8003c4e:	d1ee      	bne.n	8003c2e <GNSS_RX_Update+0x76>
 8003c50:	3002      	adds	r0, #2
		GNSS.message_buffer[counter+1] = '\0';
 8003c52:	eb0a 0300 	add.w	r3, sl, r0
		GNSS.message_buffer[counter] = '\n';
 8003c56:	4452      	add	r2, sl
		char* str = strstr((char*)(GNSS.message_buffer),"$GNGGA,");
 8003c58:	4649      	mov	r1, r9
 8003c5a:	4628      	mov	r0, r5
		GNSS.message_buffer[counter] = '\n';
 8003c5c:	f882 6400 	strb.w	r6, [r2, #1024]	; 0x400
		GNSS.start = end;
 8003c60:	f8ca 4464 	str.w	r4, [sl, #1124]	; 0x464
		GNSS.message_buffer[counter+1] = '\0';
 8003c64:	f883 7400 	strb.w	r7, [r3, #1024]	; 0x400
		char* str = strstr((char*)(GNSS.message_buffer),"$GNGGA,");
 8003c68:	f004 ff1b 	bl	8008aa2 <strstr>
		if (str != NULL){
 8003c6c:	2800      	cmp	r0, #0
 8003c6e:	d0bd      	beq.n	8003bec <GNSS_RX_Update+0x34>
        fields[current_field][current_pos]='\0';
 8003c70:	2500      	movs	r5, #0
 8003c72:	f89a 1400 	ldrb.w	r1, [sl, #1024]	; 0x400
    unsigned char* ch_ptr = msg;
 8003c76:	4b59      	ldr	r3, [pc, #356]	; (8003ddc <GNSS_RX_Update+0x224>)
 8003c78:	aa07      	add	r2, sp, #28
    while (*ch_ptr != '\0'){
 8003c7a:	2900      	cmp	r1, #0
 8003c7c:	f000 80b9 	beq.w	8003df2 <GNSS_RX_Update+0x23a>
        while (*ch_ptr != ',' && *ch_ptr != '\0'){
 8003c80:	292c      	cmp	r1, #44	; 0x2c
 8003c82:	f000 816c 	beq.w	8003f5e <GNSS_RX_Update+0x3a6>
 8003c86:	7858      	ldrb	r0, [r3, #1]
	        fields[current_field][current_pos] = *ch_ptr;
 8003c88:	7011      	strb	r1, [r2, #0]
        while (*ch_ptr != ',' && *ch_ptr != '\0'){
 8003c8a:	282c      	cmp	r0, #44	; 0x2c
	        ch_ptr++;
 8003c8c:	f103 0101 	add.w	r1, r3, #1
        while (*ch_ptr != ',' && *ch_ptr != '\0'){
 8003c90:	f000 816c 	beq.w	8003f6c <GNSS_RX_Update+0x3b4>
 8003c94:	2800      	cmp	r0, #0
 8003c96:	f000 816f 	beq.w	8003f78 <GNSS_RX_Update+0x3c0>
 8003c9a:	789c      	ldrb	r4, [r3, #2]
	        fields[current_field][current_pos] = *ch_ptr;
 8003c9c:	7050      	strb	r0, [r2, #1]
        while (*ch_ptr != ',' && *ch_ptr != '\0'){
 8003c9e:	2c2c      	cmp	r4, #44	; 0x2c
	        ch_ptr++;
 8003ca0:	f103 0102 	add.w	r1, r3, #2
        while (*ch_ptr != ',' && *ch_ptr != '\0'){
 8003ca4:	f000 816a 	beq.w	8003f7c <GNSS_RX_Update+0x3c4>
 8003ca8:	2c00      	cmp	r4, #0
 8003caa:	f000 816d 	beq.w	8003f88 <GNSS_RX_Update+0x3d0>
 8003cae:	78d8      	ldrb	r0, [r3, #3]
	        fields[current_field][current_pos] = *ch_ptr;
 8003cb0:	7094      	strb	r4, [r2, #2]
        while (*ch_ptr != ',' && *ch_ptr != '\0'){
 8003cb2:	282c      	cmp	r0, #44	; 0x2c
	        ch_ptr++;
 8003cb4:	f103 0103 	add.w	r1, r3, #3
        while (*ch_ptr != ',' && *ch_ptr != '\0'){
 8003cb8:	f000 8168 	beq.w	8003f8c <GNSS_RX_Update+0x3d4>
 8003cbc:	2800      	cmp	r0, #0
 8003cbe:	f000 8167 	beq.w	8003f90 <GNSS_RX_Update+0x3d8>
 8003cc2:	791c      	ldrb	r4, [r3, #4]
	        fields[current_field][current_pos] = *ch_ptr;
 8003cc4:	70d0      	strb	r0, [r2, #3]
        while (*ch_ptr != ',' && *ch_ptr != '\0'){
 8003cc6:	2c2c      	cmp	r4, #44	; 0x2c
	        ch_ptr++;
 8003cc8:	f103 0104 	add.w	r1, r3, #4
        while (*ch_ptr != ',' && *ch_ptr != '\0'){
 8003ccc:	f000 8162 	beq.w	8003f94 <GNSS_RX_Update+0x3dc>
 8003cd0:	2c00      	cmp	r4, #0
 8003cd2:	f000 8161 	beq.w	8003f98 <GNSS_RX_Update+0x3e0>
 8003cd6:	7958      	ldrb	r0, [r3, #5]
	        fields[current_field][current_pos] = *ch_ptr;
 8003cd8:	7114      	strb	r4, [r2, #4]
        while (*ch_ptr != ',' && *ch_ptr != '\0'){
 8003cda:	282c      	cmp	r0, #44	; 0x2c
	        ch_ptr++;
 8003cdc:	f103 0105 	add.w	r1, r3, #5
        while (*ch_ptr != ',' && *ch_ptr != '\0'){
 8003ce0:	f000 815c 	beq.w	8003f9c <GNSS_RX_Update+0x3e4>
 8003ce4:	2800      	cmp	r0, #0
 8003ce6:	f000 815b 	beq.w	8003fa0 <GNSS_RX_Update+0x3e8>
 8003cea:	799c      	ldrb	r4, [r3, #6]
	        fields[current_field][current_pos] = *ch_ptr;
 8003cec:	7150      	strb	r0, [r2, #5]
        while (*ch_ptr != ',' && *ch_ptr != '\0'){
 8003cee:	2c2c      	cmp	r4, #44	; 0x2c
	        ch_ptr++;
 8003cf0:	f103 0106 	add.w	r1, r3, #6
        while (*ch_ptr != ',' && *ch_ptr != '\0'){
 8003cf4:	f000 8158 	beq.w	8003fa8 <GNSS_RX_Update+0x3f0>
 8003cf8:	2c00      	cmp	r4, #0
 8003cfa:	f000 8153 	beq.w	8003fa4 <GNSS_RX_Update+0x3ec>
 8003cfe:	79d8      	ldrb	r0, [r3, #7]
	        fields[current_field][current_pos] = *ch_ptr;
 8003d00:	7194      	strb	r4, [r2, #6]
        while (*ch_ptr != ',' && *ch_ptr != '\0'){
 8003d02:	282c      	cmp	r0, #44	; 0x2c
	        ch_ptr++;
 8003d04:	f103 0107 	add.w	r1, r3, #7
        while (*ch_ptr != ',' && *ch_ptr != '\0'){
 8003d08:	f000 8150 	beq.w	8003fac <GNSS_RX_Update+0x3f4>
 8003d0c:	2800      	cmp	r0, #0
 8003d0e:	f000 814f 	beq.w	8003fb0 <GNSS_RX_Update+0x3f8>
 8003d12:	7a1c      	ldrb	r4, [r3, #8]
	        fields[current_field][current_pos] = *ch_ptr;
 8003d14:	71d0      	strb	r0, [r2, #7]
        while (*ch_ptr != ',' && *ch_ptr != '\0'){
 8003d16:	2c2c      	cmp	r4, #44	; 0x2c
	        ch_ptr++;
 8003d18:	f103 0108 	add.w	r1, r3, #8
        while (*ch_ptr != ',' && *ch_ptr != '\0'){
 8003d1c:	f000 814a 	beq.w	8003fb4 <GNSS_RX_Update+0x3fc>
 8003d20:	2c00      	cmp	r4, #0
 8003d22:	f000 8149 	beq.w	8003fb8 <GNSS_RX_Update+0x400>
 8003d26:	7a58      	ldrb	r0, [r3, #9]
	        fields[current_field][current_pos] = *ch_ptr;
 8003d28:	7214      	strb	r4, [r2, #8]
        while (*ch_ptr != ',' && *ch_ptr != '\0'){
 8003d2a:	282c      	cmp	r0, #44	; 0x2c
	        ch_ptr++;
 8003d2c:	f103 0109 	add.w	r1, r3, #9
        while (*ch_ptr != ',' && *ch_ptr != '\0'){
 8003d30:	f000 8144 	beq.w	8003fbc <GNSS_RX_Update+0x404>
 8003d34:	2800      	cmp	r0, #0
 8003d36:	f000 8143 	beq.w	8003fc0 <GNSS_RX_Update+0x408>
 8003d3a:	7a9c      	ldrb	r4, [r3, #10]
	        fields[current_field][current_pos] = *ch_ptr;
 8003d3c:	7250      	strb	r0, [r2, #9]
        while (*ch_ptr != ',' && *ch_ptr != '\0'){
 8003d3e:	2c2c      	cmp	r4, #44	; 0x2c
	        ch_ptr++;
 8003d40:	f103 010a 	add.w	r1, r3, #10
        while (*ch_ptr != ',' && *ch_ptr != '\0'){
 8003d44:	f000 813e 	beq.w	8003fc4 <GNSS_RX_Update+0x40c>
 8003d48:	2c00      	cmp	r4, #0
 8003d4a:	f000 813d 	beq.w	8003fc8 <GNSS_RX_Update+0x410>
 8003d4e:	7ad8      	ldrb	r0, [r3, #11]
	        fields[current_field][current_pos] = *ch_ptr;
 8003d50:	7294      	strb	r4, [r2, #10]
        while (*ch_ptr != ',' && *ch_ptr != '\0'){
 8003d52:	282c      	cmp	r0, #44	; 0x2c
	        ch_ptr++;
 8003d54:	f103 010b 	add.w	r1, r3, #11
        while (*ch_ptr != ',' && *ch_ptr != '\0'){
 8003d58:	f000 8138 	beq.w	8003fcc <GNSS_RX_Update+0x414>
 8003d5c:	2800      	cmp	r0, #0
 8003d5e:	f000 8137 	beq.w	8003fd0 <GNSS_RX_Update+0x418>
 8003d62:	7b1c      	ldrb	r4, [r3, #12]
	        fields[current_field][current_pos] = *ch_ptr;
 8003d64:	72d0      	strb	r0, [r2, #11]
        while (*ch_ptr != ',' && *ch_ptr != '\0'){
 8003d66:	2c2c      	cmp	r4, #44	; 0x2c
	        ch_ptr++;
 8003d68:	f103 010c 	add.w	r1, r3, #12
        while (*ch_ptr != ',' && *ch_ptr != '\0'){
 8003d6c:	f000 8132 	beq.w	8003fd4 <GNSS_RX_Update+0x41c>
 8003d70:	2c00      	cmp	r4, #0
 8003d72:	d03b      	beq.n	8003dec <GNSS_RX_Update+0x234>
 8003d74:	7b58      	ldrb	r0, [r3, #13]
	        ch_ptr++;
 8003d76:	f103 010d 	add.w	r1, r3, #13
        while (*ch_ptr != ',' && *ch_ptr != '\0'){
 8003d7a:	282c      	cmp	r0, #44	; 0x2c
	        fields[current_field][current_pos] = *ch_ptr;
 8003d7c:	7314      	strb	r4, [r2, #12]
	        current_pos++;
 8003d7e:	f04f 030d 	mov.w	r3, #13
        while (*ch_ptr != ',' && *ch_ptr != '\0'){
 8003d82:	d006      	beq.n	8003d92 <GNSS_RX_Update+0x1da>
 8003d84:	b398      	cbz	r0, 8003dee <GNSS_RX_Update+0x236>
	        fields[current_field][current_pos] = *ch_ptr;
 8003d86:	54d0      	strb	r0, [r2, r3]
        while (*ch_ptr != ',' && *ch_ptr != '\0'){
 8003d88:	f811 0f01 	ldrb.w	r0, [r1, #1]!
	        current_pos++;
 8003d8c:	3301      	adds	r3, #1
        while (*ch_ptr != ',' && *ch_ptr != '\0'){
 8003d8e:	282c      	cmp	r0, #44	; 0x2c
 8003d90:	d1f8      	bne.n	8003d84 <GNSS_RX_Update+0x1cc>
        fields[current_field][current_pos]='\0';
 8003d92:	54d5      	strb	r5, [r2, r3]
	        ch_ptr++;
 8003d94:	1c4b      	adds	r3, r1, #1
 8003d96:	320c      	adds	r2, #12
 8003d98:	7849      	ldrb	r1, [r1, #1]
 8003d9a:	e76e      	b.n	8003c7a <GNSS_RX_Update+0xc2>
				if (GNSS.dma_buffer[GNSS.start] == '$'){
 8003d9c:	f81a 3004 	ldrb.w	r3, [sl, r4]
 8003da0:	2b24      	cmp	r3, #36	; 0x24
 8003da2:	d015      	beq.n	8003dd0 <GNSS_RX_Update+0x218>
			for(;GNSS.start != i;GNSS.start = (GNSS.start + 1) % DMA_BUFFER_SIZE){
 8003da4:	3401      	adds	r4, #1
 8003da6:	4263      	negs	r3, r4
 8003da8:	f3c3 0309 	ubfx	r3, r3, #0, #10
 8003dac:	f3c4 0409 	ubfx	r4, r4, #0, #10
 8003db0:	bf58      	it	pl
 8003db2:	425c      	negpl	r4, r3
 8003db4:	455c      	cmp	r4, fp
 8003db6:	d1f1      	bne.n	8003d9c <GNSS_RX_Update+0x1e4>
 8003db8:	f8ca 4464 	str.w	r4, [sl, #1124]	; 0x464
			new_information = 1;
		}
	}

	return new_information;
}
 8003dbc:	4640      	mov	r0, r8
 8003dbe:	b035      	add	sp, #212	; 0xd4
 8003dc0:	e8bd 8ff0 	ldmia.w	sp!, {r4, r5, r6, r7, r8, r9, sl, fp, pc}
		for(int j = GNSS.start; j != end; j = (j+1)%DMA_BUFFER_SIZE){
 8003dc4:	42a3      	cmp	r3, r4
 8003dc6:	f47f af2e 	bne.w	8003c26 <GNSS_RX_Update+0x6e>
 8003dca:	2001      	movs	r0, #1
		int counter = 0;
 8003dcc:	2200      	movs	r2, #0
 8003dce:	e740      	b.n	8003c52 <GNSS_RX_Update+0x9a>
 8003dd0:	f8ca 4464 	str.w	r4, [sl, #1124]	; 0x464
 8003dd4:	e712      	b.n	8003bfc <GNSS_RX_Update+0x44>
 8003dd6:	bf00      	nop
 8003dd8:	20000d10 	.word	0x20000d10
 8003ddc:	20000c50 	.word	0x20000c50
 8003de0:	20000850 	.word	0x20000850
 8003de4:	0800c398 	.word	0x0800c398
 8003de8:	20000c4f 	.word	0x20000c4f
	        current_pos++;
 8003dec:	230c      	movs	r3, #12
        fields[current_field][current_pos]='\0';
 8003dee:	2100      	movs	r1, #0
 8003df0:	54d1      	strb	r1, [r2, r3]
			sscanf(fields[1],"%2d%2d%2d.%3d",&GNSS.GNGGA.UTC_Hour,&GNSS.GNGGA.UTC_Min,&GNSS.GNGGA.UTC_Second,&GNSS.GNGGA.UTC_Millis);
 8003df2:	4b79      	ldr	r3, [pc, #484]	; (8003fd8 <GNSS_RX_Update+0x420>)
 8003df4:	4979      	ldr	r1, [pc, #484]	; (8003fdc <GNSS_RX_Update+0x424>)
 8003df6:	f103 0208 	add.w	r2, r3, #8
 8003dfa:	9201      	str	r2, [sp, #4]
 8003dfc:	9a03      	ldr	r2, [sp, #12]
 8003dfe:	a80a      	add	r0, sp, #40	; 0x28
 8003e00:	9200      	str	r2, [sp, #0]
 8003e02:	1f1a      	subs	r2, r3, #4
 8003e04:	f004 fe10 	bl	8008a28 <siscanf>
			GNSS.GNGGA.lat_raw = atof(fields[2]);
 8003e08:	a80d      	add	r0, sp, #52	; 0x34
 8003e0a:	f004 fd9f 	bl	800894c <atof>
 8003e0e:	f7fc fe5b 	bl	8000ac8 <__aeabi_d2f>
			GNSS.GNGGA.North_South = fields[3][0];
 8003e12:	f89d 3040 	ldrb.w	r3, [sp, #64]	; 0x40
			GNSS.GNGGA.lat_raw = atof(fields[2]);
 8003e16:	f8ca 0478 	str.w	r0, [sl, #1144]	; 0x478
			GNSS.GNGGA.lon_raw = atof(fields[4]);
 8003e1a:	a813      	add	r0, sp, #76	; 0x4c
			GNSS.GNGGA.North_South = fields[3][0];
 8003e1c:	f88a 3488 	strb.w	r3, [sl, #1160]	; 0x488
			GNSS.GNGGA.lon_raw = atof(fields[4]);
 8003e20:	f004 fd94 	bl	800894c <atof>
 8003e24:	f8df 81cc 	ldr.w	r8, [pc, #460]	; 8003ff4 <GNSS_RX_Update+0x43c>
			GNSS.GNGGA.East_West = fields[5][0];
 8003e28:	f89d 3058 	ldrb.w	r3, [sp, #88]	; 0x58
			GNSS.GNGGA.lon_raw = atof(fields[4]);
 8003e2c:	e9c8 0100 	strd	r0, r1, [r8]
			GNSS.GNGGA.status = atoi(fields[6]);
 8003e30:	a819      	add	r0, sp, #100	; 0x64
			GNSS.GNGGA.East_West = fields[5][0];
 8003e32:	f88a 34a0 	strb.w	r3, [sl, #1184]	; 0x4a0
			GNSS.GNGGA.status = atoi(fields[6]);
 8003e36:	f004 fd8c 	bl	8008952 <atoi>
 8003e3a:	f8ca 04a4 	str.w	r0, [sl, #1188]	; 0x4a4
			GNSS.GNGGA.num_sat = atoi(fields[7]);
 8003e3e:	a81c      	add	r0, sp, #112	; 0x70
 8003e40:	f004 fd87 	bl	8008952 <atoi>
 8003e44:	f8ca 04a8 	str.w	r0, [sl, #1192]	; 0x4a8
			GNSS.GNGGA.HDOP = atof(fields[8]);
 8003e48:	a81f      	add	r0, sp, #124	; 0x7c
 8003e4a:	f004 fd7f 	bl	800894c <atof>
 8003e4e:	f7fc fe3b 	bl	8000ac8 <__aeabi_d2f>
 8003e52:	f8ca 04ac 	str.w	r0, [sl, #1196]	; 0x4ac
			GNSS.GNGGA.MSL_alt = atof(fields[9]);
 8003e56:	a822      	add	r0, sp, #136	; 0x88
 8003e58:	f004 fd78 	bl	800894c <atof>
 8003e5c:	f7fc fe34 	bl	8000ac8 <__aeabi_d2f>
			GNSS.GNGGA.MSL_Unit = fields[10][0];
 8003e60:	f89d 3094 	ldrb.w	r3, [sp, #148]	; 0x94
			GNSS.GNGGA.MSL_alt = atof(fields[9]);
 8003e64:	f8ca 04b0 	str.w	r0, [sl, #1200]	; 0x4b0
			GNSS.GNGGA.Geoid_Separation = atof(fields[11]);
 8003e68:	a828      	add	r0, sp, #160	; 0xa0
			GNSS.GNGGA.MSL_Unit = fields[10][0];
 8003e6a:	f88a 34b4 	strb.w	r3, [sl, #1204]	; 0x4b4
			GNSS.GNGGA.Geoid_Separation = atof(fields[11]);
 8003e6e:	f004 fd6d 	bl	800894c <atof>
 8003e72:	f7fc fe29 	bl	8000ac8 <__aeabi_d2f>
			GNSS.GNGGA.lat = convert_raw_lat_lon(GNSS.GNGGA.lat_raw);
 8003e76:	f8da 4478 	ldr.w	r4, [sl, #1144]	; 0x478
			GNSS.GNGGA.checksum[0] = fields[14][1];//fields[14][0] is always '*'
 8003e7a:	f89d 20c5 	ldrb.w	r2, [sp, #197]	; 0xc5
			GNSS.GNGGA.checksum[1] = fields[14][2];
 8003e7e:	f89d 30c6 	ldrb.w	r3, [sp, #198]	; 0xc6
			GNSS.GNGGA.Geoid_Unit = fields[12][0];
 8003e82:	f89d 10ac 	ldrb.w	r1, [sp, #172]	; 0xac
			GNSS.GNGGA.Geoid_Separation = atof(fields[11]);
 8003e86:	f8ca 04b8 	str.w	r0, [sl, #1208]	; 0x4b8
			GNSS.GNGGA.checksum[0] = fields[14][1];//fields[14][0] is always '*'
 8003e8a:	f88a 24bd 	strb.w	r2, [sl, #1213]	; 0x4bd
			GNSS.GNGGA.lat = convert_raw_lat_lon(GNSS.GNGGA.lat_raw);
 8003e8e:	4620      	mov	r0, r4
			GNSS.GNGGA.checksum[1] = fields[14][2];
 8003e90:	f88a 34be 	strb.w	r3, [sl, #1214]	; 0x4be
			GNSS.GNGGA.Geoid_Unit = fields[12][0];
 8003e94:	f88a 14bc 	strb.w	r1, [sl, #1212]	; 0x4bc
			GNSS.GNGGA.lat = convert_raw_lat_lon(GNSS.GNGGA.lat_raw);
 8003e98:	f7fc fac6 	bl	8000428 <__aeabi_f2d>
	return ((int)raw / 100) + (fmod(raw,100)/60);
 8003e9c:	2200      	movs	r2, #0
 8003e9e:	4b50      	ldr	r3, [pc, #320]	; (8003fe0 <GNSS_RX_Update+0x428>)
 8003ea0:	f007 f996 	bl	800b1d0 <fmod>
 8003ea4:	4606      	mov	r6, r0
 8003ea6:	4620      	mov	r0, r4
 8003ea8:	460f      	mov	r7, r1
 8003eaa:	f7fd f8bb 	bl	8001024 <__aeabi_f2iz>
 8003eae:	4b4d      	ldr	r3, [pc, #308]	; (8003fe4 <GNSS_RX_Update+0x42c>)
 8003eb0:	fb83 2300 	smull	r2, r3, r3, r0
 8003eb4:	17c0      	asrs	r0, r0, #31
 8003eb6:	ebc0 1063 	rsb	r0, r0, r3, asr #5
 8003eba:	f7fc faa3 	bl	8000404 <__aeabi_i2d>
 8003ebe:	f04f 3211 	mov.w	r2, #286331153	; 0x11111111
 8003ec2:	4604      	mov	r4, r0
 8003ec4:	460d      	mov	r5, r1
 8003ec6:	4b48      	ldr	r3, [pc, #288]	; (8003fe8 <GNSS_RX_Update+0x430>)
 8003ec8:	4630      	mov	r0, r6
 8003eca:	4639      	mov	r1, r7
 8003ecc:	f7fc fb04 	bl	80004d8 <__aeabi_dmul>
 8003ed0:	4602      	mov	r2, r0
 8003ed2:	460b      	mov	r3, r1
 8003ed4:	4620      	mov	r0, r4
 8003ed6:	4629      	mov	r1, r5
 8003ed8:	f7fc f948 	bl	800016c <__adddf3>
			GNSS.GNGGA.lon = convert_raw_lat_lon(GNSS.GNGGA.lon_raw);
 8003edc:	e9d8 6700 	ldrd	r6, r7, [r8]
	return ((int)raw / 100) + (fmod(raw,100)/60);
 8003ee0:	2200      	movs	r2, #0
 8003ee2:	460c      	mov	r4, r1
 8003ee4:	4605      	mov	r5, r0
 8003ee6:	4b3e      	ldr	r3, [pc, #248]	; (8003fe0 <GNSS_RX_Update+0x428>)
 8003ee8:	4630      	mov	r0, r6
 8003eea:	4639      	mov	r1, r7
 8003eec:	f007 f970 	bl	800b1d0 <fmod>
 8003ef0:	e9cd 0104 	strd	r0, r1, [sp, #16]
 8003ef4:	4639      	mov	r1, r7
 8003ef6:	4630      	mov	r0, r6
 8003ef8:	f7fc fd9e 	bl	8000a38 <__aeabi_d2iz>
 8003efc:	4b39      	ldr	r3, [pc, #228]	; (8003fe4 <GNSS_RX_Update+0x42c>)
			new_information = 1;
 8003efe:	f04f 0801 	mov.w	r8, #1
	return ((int)raw / 100) + (fmod(raw,100)/60);
 8003f02:	fb83 2300 	smull	r2, r3, r3, r0
 8003f06:	17c0      	asrs	r0, r0, #31
 8003f08:	ebc0 1063 	rsb	r0, r0, r3, asr #5
 8003f0c:	f7fc fa7a 	bl	8000404 <__aeabi_i2d>
 8003f10:	f04f 3211 	mov.w	r2, #286331153	; 0x11111111
 8003f14:	4606      	mov	r6, r0
 8003f16:	460f      	mov	r7, r1
 8003f18:	e9dd 0104 	ldrd	r0, r1, [sp, #16]
 8003f1c:	4b32      	ldr	r3, [pc, #200]	; (8003fe8 <GNSS_RX_Update+0x430>)
 8003f1e:	f7fc fadb 	bl	80004d8 <__aeabi_dmul>
 8003f22:	4602      	mov	r2, r0
 8003f24:	460b      	mov	r3, r1
 8003f26:	4630      	mov	r0, r6
 8003f28:	4639      	mov	r1, r7
 8003f2a:	f7fc f91f 	bl	800016c <__adddf3>
			GNSS.GNGGA.lat = GNSS.GNGGA.North_South == 'N' ? GNSS.GNGGA.lat : -GNSS.GNGGA.lat;
 8003f2e:	f89a 3488 	ldrb.w	r3, [sl, #1160]	; 0x488
 8003f32:	4a2e      	ldr	r2, [pc, #184]	; (8003fec <GNSS_RX_Update+0x434>)
 8003f34:	2b4e      	cmp	r3, #78	; 0x4e
 8003f36:	bf18      	it	ne
 8003f38:	f104 4400 	addne.w	r4, r4, #2147483648	; 0x80000000
 8003f3c:	4623      	mov	r3, r4
 8003f3e:	462c      	mov	r4, r5
 8003f40:	461d      	mov	r5, r3
			GNSS.GNGGA.lon = GNSS.GNGGA.East_West == 'E' ? GNSS.GNGGA.lon : -GNSS.GNGGA.lon;
 8003f42:	f89a 34a0 	ldrb.w	r3, [sl, #1184]	; 0x4a0
			GNSS.GNGGA.lat = GNSS.GNGGA.North_South == 'N' ? GNSS.GNGGA.lat : -GNSS.GNGGA.lat;
 8003f46:	e9c2 4500 	strd	r4, r5, [r2]
			GNSS.GNGGA.lon = GNSS.GNGGA.East_West == 'E' ? GNSS.GNGGA.lon : -GNSS.GNGGA.lon;
 8003f4a:	2b45      	cmp	r3, #69	; 0x45
 8003f4c:	bf18      	it	ne
 8003f4e:	f101 4100 	addne.w	r1, r1, #2147483648	; 0x80000000
 8003f52:	460b      	mov	r3, r1
 8003f54:	4602      	mov	r2, r0
 8003f56:	4926      	ldr	r1, [pc, #152]	; (8003ff0 <GNSS_RX_Update+0x438>)
 8003f58:	e9c1 2300 	strd	r2, r3, [r1]
 8003f5c:	e641      	b.n	8003be2 <GNSS_RX_Update+0x2a>
        while (*ch_ptr != ',' && *ch_ptr != '\0'){
 8003f5e:	4619      	mov	r1, r3
        current_pos = 0;
 8003f60:	2300      	movs	r3, #0
        fields[current_field][current_pos]='\0';
 8003f62:	54d5      	strb	r5, [r2, r3]
	        ch_ptr++;
 8003f64:	1c4b      	adds	r3, r1, #1
 8003f66:	320c      	adds	r2, #12
 8003f68:	7849      	ldrb	r1, [r1, #1]
 8003f6a:	e686      	b.n	8003c7a <GNSS_RX_Update+0xc2>
	        current_pos++;
 8003f6c:	2301      	movs	r3, #1
        fields[current_field][current_pos]='\0';
 8003f6e:	54d5      	strb	r5, [r2, r3]
	        ch_ptr++;
 8003f70:	1c4b      	adds	r3, r1, #1
 8003f72:	320c      	adds	r2, #12
 8003f74:	7849      	ldrb	r1, [r1, #1]
 8003f76:	e680      	b.n	8003c7a <GNSS_RX_Update+0xc2>
	        current_pos++;
 8003f78:	2301      	movs	r3, #1
 8003f7a:	e738      	b.n	8003dee <GNSS_RX_Update+0x236>
 8003f7c:	2302      	movs	r3, #2
        fields[current_field][current_pos]='\0';
 8003f7e:	54d5      	strb	r5, [r2, r3]
	        ch_ptr++;
 8003f80:	1c4b      	adds	r3, r1, #1
 8003f82:	320c      	adds	r2, #12
 8003f84:	7849      	ldrb	r1, [r1, #1]
 8003f86:	e678      	b.n	8003c7a <GNSS_RX_Update+0xc2>
	        current_pos++;
 8003f88:	2302      	movs	r3, #2
 8003f8a:	e730      	b.n	8003dee <GNSS_RX_Update+0x236>
 8003f8c:	2303      	movs	r3, #3
 8003f8e:	e700      	b.n	8003d92 <GNSS_RX_Update+0x1da>
 8003f90:	2303      	movs	r3, #3
 8003f92:	e72c      	b.n	8003dee <GNSS_RX_Update+0x236>
 8003f94:	2304      	movs	r3, #4
 8003f96:	e6fc      	b.n	8003d92 <GNSS_RX_Update+0x1da>
 8003f98:	2304      	movs	r3, #4
 8003f9a:	e728      	b.n	8003dee <GNSS_RX_Update+0x236>
 8003f9c:	2305      	movs	r3, #5
 8003f9e:	e6f8      	b.n	8003d92 <GNSS_RX_Update+0x1da>
 8003fa0:	2305      	movs	r3, #5
 8003fa2:	e724      	b.n	8003dee <GNSS_RX_Update+0x236>
 8003fa4:	2306      	movs	r3, #6
 8003fa6:	e722      	b.n	8003dee <GNSS_RX_Update+0x236>
 8003fa8:	2306      	movs	r3, #6
 8003faa:	e6f2      	b.n	8003d92 <GNSS_RX_Update+0x1da>
 8003fac:	2307      	movs	r3, #7
 8003fae:	e6f0      	b.n	8003d92 <GNSS_RX_Update+0x1da>
 8003fb0:	2307      	movs	r3, #7
 8003fb2:	e71c      	b.n	8003dee <GNSS_RX_Update+0x236>
 8003fb4:	2308      	movs	r3, #8
 8003fb6:	e6ec      	b.n	8003d92 <GNSS_RX_Update+0x1da>
 8003fb8:	2308      	movs	r3, #8
 8003fba:	e718      	b.n	8003dee <GNSS_RX_Update+0x236>
 8003fbc:	2309      	movs	r3, #9
 8003fbe:	e6e8      	b.n	8003d92 <GNSS_RX_Update+0x1da>
 8003fc0:	2309      	movs	r3, #9
 8003fc2:	e714      	b.n	8003dee <GNSS_RX_Update+0x236>
 8003fc4:	230a      	movs	r3, #10
 8003fc6:	e6e4      	b.n	8003d92 <GNSS_RX_Update+0x1da>
 8003fc8:	230a      	movs	r3, #10
 8003fca:	e710      	b.n	8003dee <GNSS_RX_Update+0x236>
 8003fcc:	230b      	movs	r3, #11
 8003fce:	e6e0      	b.n	8003d92 <GNSS_RX_Update+0x1da>
 8003fd0:	230b      	movs	r3, #11
 8003fd2:	e70c      	b.n	8003dee <GNSS_RX_Update+0x236>
 8003fd4:	230c      	movs	r3, #12
 8003fd6:	e6dc      	b.n	8003d92 <GNSS_RX_Update+0x1da>
 8003fd8:	20000cbc 	.word	0x20000cbc
 8003fdc:	0800c3a0 	.word	0x0800c3a0
 8003fe0:	40590000 	.word	0x40590000
 8003fe4:	51eb851f 	.word	0x51eb851f
 8003fe8:	3f911111 	.word	0x3f911111
 8003fec:	20000cd0 	.word	0x20000cd0
 8003ff0:	20000ce8 	.word	0x20000ce8
 8003ff4:	20000ce0 	.word	0x20000ce0

08003ff8 <I2C_read>:
 *      Author: yuche
 */

#include "i2c.h"

uint8_t I2C_read(I2C_HandleTypeDef* i2cx, uint8_t target_address, uint8_t register_address, uint8_t length, uint8_t* output){
 8003ff8:	b530      	push	{r4, r5, lr}
	int state = HAL_I2C_Mem_Read(i2cx,target_address << 1,register_address,sizeof(register_address),output,length,20);//timeout is magic. Do not touch
 8003ffa:	2514      	movs	r5, #20
uint8_t I2C_read(I2C_HandleTypeDef* i2cx, uint8_t target_address, uint8_t register_address, uint8_t length, uint8_t* output){
 8003ffc:	b085      	sub	sp, #20
 8003ffe:	9c08      	ldr	r4, [sp, #32]
	int state = HAL_I2C_Mem_Read(i2cx,target_address << 1,register_address,sizeof(register_address),output,length,20);//timeout is magic. Do not touch
 8004000:	9301      	str	r3, [sp, #4]
 8004002:	0049      	lsls	r1, r1, #1
 8004004:	9502      	str	r5, [sp, #8]
 8004006:	9400      	str	r4, [sp, #0]
 8004008:	2301      	movs	r3, #1
 800400a:	f001 fac3 	bl	8005594 <HAL_I2C_Mem_Read>
	if (state != HAL_OK){
 800400e:	b100      	cbz	r0, 8004012 <I2C_read+0x1a>
		__NOP();
 8004010:	bf00      	nop
	}
	return state;
}
 8004012:	b005      	add	sp, #20
 8004014:	bd30      	pop	{r4, r5, pc}
 8004016:	bf00      	nop

08004018 <I2C_write>:

uint8_t I2C_write(I2C_HandleTypeDef* i2cx, uint8_t target_address, uint8_t register_address, uint8_t length, uint8_t* input){
 8004018:	b530      	push	{r4, r5, lr}
	int state =  HAL_I2C_Mem_Write(i2cx,target_address << 1,register_address,sizeof(register_address),input,length,20);//timeout is magic. Do not touch
 800401a:	2514      	movs	r5, #20
uint8_t I2C_write(I2C_HandleTypeDef* i2cx, uint8_t target_address, uint8_t register_address, uint8_t length, uint8_t* input){
 800401c:	b085      	sub	sp, #20
 800401e:	9c08      	ldr	r4, [sp, #32]
	int state =  HAL_I2C_Mem_Write(i2cx,target_address << 1,register_address,sizeof(register_address),input,length,20);//timeout is magic. Do not touch
 8004020:	9301      	str	r3, [sp, #4]
 8004022:	0049      	lsls	r1, r1, #1
 8004024:	9502      	str	r5, [sp, #8]
 8004026:	9400      	str	r4, [sp, #0]
 8004028:	2301      	movs	r3, #1
 800402a:	f001 f997 	bl	800535c <HAL_I2C_Mem_Write>
	if (state != HAL_OK){
 800402e:	b100      	cbz	r0, 8004032 <I2C_write+0x1a>
			__NOP();
 8004030:	bf00      	nop
		}
	return state;
}
 8004032:	b005      	add	sp, #20
 8004034:	bd30      	pop	{r4, r5, pc}
 8004036:	bf00      	nop

08004038 <led_update>:
#include "stm32f1xx_hal.h"

uint8_t led_pattern = LED_DISCONNECTED;
uint8_t led_state = 0;

void led_update(){
 8004038:	b510      	push	{r4, lr}
	HAL_GPIO_WritePin(GPIOC, GPIO_PIN_13,  1 - (led_pattern>>led_state) & 0x01);
 800403a:	4b0a      	ldr	r3, [pc, #40]	; (8004064 <led_update+0x2c>)
 800403c:	4c0a      	ldr	r4, [pc, #40]	; (8004068 <led_update+0x30>)
 800403e:	781a      	ldrb	r2, [r3, #0]
 8004040:	7823      	ldrb	r3, [r4, #0]
 8004042:	f44f 5100 	mov.w	r1, #8192	; 0x2000
 8004046:	411a      	asrs	r2, r3
 8004048:	f1c2 0201 	rsb	r2, r2, #1
 800404c:	f002 0201 	and.w	r2, r2, #1
 8004050:	4806      	ldr	r0, [pc, #24]	; (800406c <led_update+0x34>)
 8004052:	f000 fea7 	bl	8004da4 <HAL_GPIO_WritePin>
	led_state++;
 8004056:	7823      	ldrb	r3, [r4, #0]
 8004058:	3301      	adds	r3, #1
	led_state = led_state % 8;
 800405a:	f003 0307 	and.w	r3, r3, #7
 800405e:	7023      	strb	r3, [r4, #0]
}
 8004060:	bd10      	pop	{r4, pc}
 8004062:	bf00      	nop
 8004064:	200003bc 	.word	0x200003bc
 8004068:	200003bd 	.word	0x200003bd
 800406c:	40011000 	.word	0x40011000

08004070 <led_set>:

void led_set(uint8_t led_pattern_){
	led_pattern = led_pattern_;
 8004070:	4b01      	ldr	r3, [pc, #4]	; (8004078 <led_set+0x8>)
 8004072:	7018      	strb	r0, [r3, #0]
}
 8004074:	4770      	bx	lr
 8004076:	bf00      	nop
 8004078:	200003bc 	.word	0x200003bc

0800407c <mpu_set_i2c>:

enum MPU9250_GYRO_FSR gyro_fsr = MPU9250_NUM_GYRO_FSR;
enum MPU9250_ACCEL_FSR accel_fsr = MPU9250_NUM_ACCEL_FSR;

void mpu_set_i2c(I2C_HandleTypeDef* i2cx){
	mpu_i2cx = i2cx;
 800407c:	4b01      	ldr	r3, [pc, #4]	; (8004084 <mpu_set_i2c+0x8>)
 800407e:	6018      	str	r0, [r3, #0]
}
 8004080:	4770      	bx	lr
 8004082:	bf00      	nop
 8004084:	200005f0 	.word	0x200005f0

08004088 <i2c_write>:
}

// Functions implemented for this platform(STM32F103) for DMP

int i2c_write(unsigned char slave_addr, unsigned char reg_addr,
		unsigned char length, unsigned char const *data){
 8004088:	b510      	push	{r4, lr}
	return I2C_write(mpu_i2cx,slave_addr,reg_addr,length,data);
 800408a:	4c06      	ldr	r4, [pc, #24]	; (80040a4 <i2c_write+0x1c>)
		unsigned char length, unsigned char const *data){
 800408c:	b082      	sub	sp, #8
	return I2C_write(mpu_i2cx,slave_addr,reg_addr,length,data);
 800408e:	9300      	str	r3, [sp, #0]
 8004090:	6824      	ldr	r4, [r4, #0]
 8004092:	4613      	mov	r3, r2
 8004094:	460a      	mov	r2, r1
 8004096:	4601      	mov	r1, r0
 8004098:	4620      	mov	r0, r4
 800409a:	f7ff ffbd 	bl	8004018 <I2C_write>
}
 800409e:	b002      	add	sp, #8
 80040a0:	bd10      	pop	{r4, pc}
 80040a2:	bf00      	nop
 80040a4:	200005f0 	.word	0x200005f0

080040a8 <i2c_read>:

int i2c_read(unsigned char slave_addr, unsigned char reg_addr,
		unsigned char length, unsigned char *data){
 80040a8:	b510      	push	{r4, lr}
	return I2C_read(mpu_i2cx,slave_addr,reg_addr,length,data);
 80040aa:	4c06      	ldr	r4, [pc, #24]	; (80040c4 <i2c_read+0x1c>)
		unsigned char length, unsigned char *data){
 80040ac:	b082      	sub	sp, #8
	return I2C_read(mpu_i2cx,slave_addr,reg_addr,length,data);
 80040ae:	9300      	str	r3, [sp, #0]
 80040b0:	6824      	ldr	r4, [r4, #0]
 80040b2:	4613      	mov	r3, r2
 80040b4:	460a      	mov	r2, r1
 80040b6:	4601      	mov	r1, r0
 80040b8:	4620      	mov	r0, r4
 80040ba:	f7ff ff9d 	bl	8003ff8 <I2C_read>
}
 80040be:	b002      	add	sp, #8
 80040c0:	bd10      	pop	{r4, pc}
 80040c2:	bf00      	nop
 80040c4:	200005f0 	.word	0x200005f0

080040c8 <delay_ms>:

void delay_ms(unsigned long num_ms){
	delay(num_ms);
 80040c8:	f000 bb8a 	b.w	80047e0 <delay>

080040cc <get_ms>:
}

unsigned long get_ms(unsigned long *count){
 80040cc:	b510      	push	{r4, lr}
 80040ce:	4604      	mov	r4, r0
	*count = millis();
 80040d0:	f000 fb80 	bl	80047d4 <millis>
 80040d4:	6020      	str	r0, [r4, #0]
}
 80040d6:	4618      	mov	r0, r3
 80040d8:	bd10      	pop	{r4, pc}
 80040da:	bf00      	nop

080040dc <ms5611_set_i2c>:
/**
 * select a hal I2C to talk to MS5611
 * @param i2cx The i2c port to talk to MS5611
 */
void ms5611_set_i2c(I2C_HandleTypeDef* i2cx){
	ms5611_i2cx = i2cx;
 80040dc:	4b01      	ldr	r3, [pc, #4]	; (80040e4 <ms5611_set_i2c+0x8>)
 80040de:	6018      	str	r0, [r3, #0]
}
 80040e0:	4770      	bx	lr
 80040e2:	bf00      	nop
 80040e4:	200007d4 	.word	0x200007d4

080040e8 <ms5611_init>:
/**
 * Initialize MS5611: read and store factory calibration data.
 *
 * request ADC to start convert temperature data
 */
void ms5611_init(){
 80040e8:	b5f0      	push	{r4, r5, r6, r7, lr}
 80040ea:	24a2      	movs	r4, #162	; 0xa2
 80040ec:	b085      	sub	sp, #20
 80040ee:	4d39      	ldr	r5, [pc, #228]	; (80041d4 <ms5611_init+0xec>)
 80040f0:	4f39      	ldr	r7, [pc, #228]	; (80041d8 <ms5611_init+0xf0>)
 80040f2:	ae03      	add	r6, sp, #12
	return I2C_read(ms5611_i2cx,MS5611_I2C_ADDR,register_address,length,output);
 80040f4:	4622      	mov	r2, r4
 80040f6:	6838      	ldr	r0, [r7, #0]
 80040f8:	2302      	movs	r3, #2
 80040fa:	9600      	str	r6, [sp, #0]
 80040fc:	2177      	movs	r1, #119	; 0x77
 80040fe:	f7ff ff7b 	bl	8003ff8 <I2C_read>
 8004102:	3402      	adds	r4, #2
	for (int i = 0; i < NUM_CALIBRATION_DATA; i++){
		uint8_t reg_addr = MS5611_CMD_READ_PROM + (i << 1);//interval 2
		uint8_t buffer[2];
		ms5611_read_i2c(reg_addr,2,buffer);

		fc[i] = (uint16_t)(buffer[0] << 8 | buffer[1]);
 8004104:	f89d 200c 	ldrb.w	r2, [sp, #12]
 8004108:	f89d 300d 	ldrb.w	r3, [sp, #13]
 800410c:	b2e4      	uxtb	r4, r4
 800410e:	ea43 2302 	orr.w	r3, r3, r2, lsl #8
	for (int i = 0; i < NUM_CALIBRATION_DATA; i++){
 8004112:	2cae      	cmp	r4, #174	; 0xae
		fc[i] = (uint16_t)(buffer[0] << 8 | buffer[1]);
 8004114:	f825 3b02 	strh.w	r3, [r5], #2
	for (int i = 0; i < NUM_CALIBRATION_DATA; i++){
 8004118:	d1ec      	bne.n	80040f4 <ms5611_init+0xc>
/**
 * Start ADC conversion of raw temperature in MS5611.
 * The ADC data can be read 9.02ms later
 */
void ms5611_request_temperature(){
	uint8_t buffer[3] = {0x00,0x00,0x00};
 800411a:	2400      	movs	r4, #0
	ms5611_write_i2c(MS5611_CMD_CONVERT_D2 | (selected_osr << 1),0,buffer);
 800411c:	4d2f      	ldr	r5, [pc, #188]	; (80041dc <ms5611_init+0xf4>)
	return I2C_write(ms5611_i2cx,MS5611_I2C_ADDR,register_address,length,input);
 800411e:	4623      	mov	r3, r4
	ms5611_write_i2c(MS5611_CMD_CONVERT_D2 | (selected_osr << 1),0,buffer);
 8004120:	782a      	ldrb	r2, [r5, #0]
	return I2C_write(ms5611_i2cx,MS5611_I2C_ADDR,register_address,length,input);
 8004122:	6838      	ldr	r0, [r7, #0]
	ms5611_write_i2c(MS5611_CMD_CONVERT_D2 | (selected_osr << 1),0,buffer);
 8004124:	0052      	lsls	r2, r2, #1
 8004126:	f042 0250 	orr.w	r2, r2, #80	; 0x50
	return I2C_write(ms5611_i2cx,MS5611_I2C_ADDR,register_address,length,input);
 800412a:	f002 02fe 	and.w	r2, r2, #254	; 0xfe
 800412e:	2177      	movs	r1, #119	; 0x77
 8004130:	9600      	str	r6, [sp, #0]
	uint8_t buffer[3] = {0x00,0x00,0x00};
 8004132:	f8ad 400c 	strh.w	r4, [sp, #12]
 8004136:	f88d 400e 	strb.w	r4, [sp, #14]
	return I2C_write(ms5611_i2cx,MS5611_I2C_ADDR,register_address,length,input);
 800413a:	f7ff ff6d 	bl	8004018 <I2C_write>
 * Read raw temperature from MS5611.
 */
void ms5611_update_temperature(){

	ms5611_request_temperature();
	delay(12);//time delay necessary for ADC to convert, must be >= 9.02ms
 800413e:	200c      	movs	r0, #12
 8004140:	f000 fb4e 	bl	80047e0 <delay>
	return I2C_read(ms5611_i2cx,MS5611_I2C_ADDR,register_address,length,output);
 8004144:	4622      	mov	r2, r4
	uint8_t buffer[3] = {0x00,0x00,0x00};
 8004146:	f8ad 400c 	strh.w	r4, [sp, #12]
 800414a:	f88d 400e 	strb.w	r4, [sp, #14]
	uint8_t buffer[3] = {0x00,0x00,0x00};
 800414e:	2400      	movs	r4, #0
	return I2C_read(ms5611_i2cx,MS5611_I2C_ADDR,register_address,length,output);
 8004150:	6838      	ldr	r0, [r7, #0]
 8004152:	2303      	movs	r3, #3
 8004154:	9600      	str	r6, [sp, #0]
 8004156:	2177      	movs	r1, #119	; 0x77
 8004158:	f7ff ff4e 	bl	8003ff8 <I2C_read>
	uint32_t temp = ((uint32_t)buffer[0] << 16) | ((uint32_t)buffer[1] << 8) | ((uint32_t)buffer[2]);
 800415c:	f89d 300d 	ldrb.w	r3, [sp, #13]
 8004160:	f89d 100c 	ldrb.w	r1, [sp, #12]
 8004164:	f89d 200e 	ldrb.w	r2, [sp, #14]
 8004168:	021b      	lsls	r3, r3, #8
 800416a:	ea43 4301 	orr.w	r3, r3, r1, lsl #16
	if (temp != 0){
 800416e:	4313      	orrs	r3, r2
		raw_temperature = temp;
 8004170:	bf18      	it	ne
 8004172:	4a1b      	ldrne	r2, [pc, #108]	; (80041e0 <ms5611_init+0xf8>)
	return I2C_write(ms5611_i2cx,MS5611_I2C_ADDR,register_address,length,input);
 8004174:	6838      	ldr	r0, [r7, #0]
		raw_temperature = temp;
 8004176:	bf18      	it	ne
 8004178:	6013      	strne	r3, [r2, #0]
	ms5611_write_i2c(MS5611_CMD_CONVERT_D1 | (selected_osr << 1),0,buffer);
 800417a:	782a      	ldrb	r2, [r5, #0]
	return I2C_write(ms5611_i2cx,MS5611_I2C_ADDR,register_address,length,input);
 800417c:	4623      	mov	r3, r4
	ms5611_write_i2c(MS5611_CMD_CONVERT_D1 | (selected_osr << 1),0,buffer);
 800417e:	0052      	lsls	r2, r2, #1
 8004180:	f042 0240 	orr.w	r2, r2, #64	; 0x40
	return I2C_write(ms5611_i2cx,MS5611_I2C_ADDR,register_address,length,input);
 8004184:	f002 02fe 	and.w	r2, r2, #254	; 0xfe
 8004188:	2177      	movs	r1, #119	; 0x77
 800418a:	9600      	str	r6, [sp, #0]
	uint8_t buffer[3] = {0x00,0x00,0x00};
 800418c:	f8ad 400c 	strh.w	r4, [sp, #12]
 8004190:	f88d 400e 	strb.w	r4, [sp, #14]
	return I2C_write(ms5611_i2cx,MS5611_I2C_ADDR,register_address,length,input);
 8004194:	f7ff ff40 	bl	8004018 <I2C_write>
	delay(12);//time delay necessary for ADC to convert, must be >= 9.02ms
 8004198:	200c      	movs	r0, #12
 800419a:	f000 fb21 	bl	80047e0 <delay>
	return I2C_read(ms5611_i2cx,MS5611_I2C_ADDR,register_address,length,output);
 800419e:	6838      	ldr	r0, [r7, #0]
 80041a0:	4622      	mov	r2, r4
 80041a2:	9600      	str	r6, [sp, #0]
 80041a4:	2303      	movs	r3, #3
 80041a6:	2177      	movs	r1, #119	; 0x77
	uint8_t buffer[3] = {0x00,0x00,0x00};
 80041a8:	f8ad 400c 	strh.w	r4, [sp, #12]
 80041ac:	f88d 400e 	strb.w	r4, [sp, #14]
	return I2C_read(ms5611_i2cx,MS5611_I2C_ADDR,register_address,length,output);
 80041b0:	f7ff ff22 	bl	8003ff8 <I2C_read>
	uint32_t temp = ((uint32_t)buffer[0] << 16) | ((uint32_t)buffer[1] << 8) | ((uint32_t)buffer[2]);
 80041b4:	f89d 300d 	ldrb.w	r3, [sp, #13]
 80041b8:	f89d 100c 	ldrb.w	r1, [sp, #12]
 80041bc:	f89d 200e 	ldrb.w	r2, [sp, #14]
 80041c0:	021b      	lsls	r3, r3, #8
 80041c2:	ea43 4301 	orr.w	r3, r3, r1, lsl #16
	if (temp != 0){
 80041c6:	4313      	orrs	r3, r2
		raw_pressure = temp;
 80041c8:	bf1c      	itt	ne
 80041ca:	4a06      	ldrne	r2, [pc, #24]	; (80041e4 <ms5611_init+0xfc>)
 80041cc:	6013      	strne	r3, [r2, #0]
}
 80041ce:	b005      	add	sp, #20
 80041d0:	bdf0      	pop	{r4, r5, r6, r7, pc}
 80041d2:	bf00      	nop
 80041d4:	20000d18 	.word	0x20000d18
 80041d8:	200007d4 	.word	0x200007d4
 80041dc:	2000003c 	.word	0x2000003c
 80041e0:	20000d24 	.word	0x20000d24
 80041e4:	20000d14 	.word	0x20000d14

080041e8 <ms5611_update>:
}

/**
 *	Read raw temperature and pressure from MS5611
 */
void ms5611_update(){
 80041e8:	b5f0      	push	{r4, r5, r6, r7, lr}
	uint8_t buffer[3] = {0x00,0x00,0x00};
 80041ea:	2400      	movs	r4, #0
	ms5611_write_i2c(MS5611_CMD_CONVERT_D2 | (selected_osr << 1),0,buffer);
 80041ec:	4f2f      	ldr	r7, [pc, #188]	; (80042ac <ms5611_update+0xc4>)
void ms5611_update(){
 80041ee:	b085      	sub	sp, #20
	ms5611_write_i2c(MS5611_CMD_CONVERT_D2 | (selected_osr << 1),0,buffer);
 80041f0:	783a      	ldrb	r2, [r7, #0]
	return I2C_write(ms5611_i2cx,MS5611_I2C_ADDR,register_address,length,input);
 80041f2:	4e2f      	ldr	r6, [pc, #188]	; (80042b0 <ms5611_update+0xc8>)
	ms5611_write_i2c(MS5611_CMD_CONVERT_D2 | (selected_osr << 1),0,buffer);
 80041f4:	0052      	lsls	r2, r2, #1
	return I2C_write(ms5611_i2cx,MS5611_I2C_ADDR,register_address,length,input);
 80041f6:	ad03      	add	r5, sp, #12
	ms5611_write_i2c(MS5611_CMD_CONVERT_D2 | (selected_osr << 1),0,buffer);
 80041f8:	f042 0250 	orr.w	r2, r2, #80	; 0x50
	return I2C_write(ms5611_i2cx,MS5611_I2C_ADDR,register_address,length,input);
 80041fc:	4623      	mov	r3, r4
 80041fe:	f002 02fe 	and.w	r2, r2, #254	; 0xfe
 8004202:	2177      	movs	r1, #119	; 0x77
 8004204:	6830      	ldr	r0, [r6, #0]
 8004206:	9500      	str	r5, [sp, #0]
	uint8_t buffer[3] = {0x00,0x00,0x00};
 8004208:	f8ad 400c 	strh.w	r4, [sp, #12]
 800420c:	f88d 400e 	strb.w	r4, [sp, #14]
	return I2C_write(ms5611_i2cx,MS5611_I2C_ADDR,register_address,length,input);
 8004210:	f7ff ff02 	bl	8004018 <I2C_write>
	delay(12);//time delay necessary for ADC to convert, must be >= 9.02ms
 8004214:	200c      	movs	r0, #12
 8004216:	f000 fae3 	bl	80047e0 <delay>
	return I2C_read(ms5611_i2cx,MS5611_I2C_ADDR,register_address,length,output);
 800421a:	4622      	mov	r2, r4
	uint8_t buffer[3] = {0x00,0x00,0x00};
 800421c:	f8ad 400c 	strh.w	r4, [sp, #12]
 8004220:	f88d 400e 	strb.w	r4, [sp, #14]
	uint8_t buffer[3] = {0x00,0x00,0x00};
 8004224:	2400      	movs	r4, #0
	return I2C_read(ms5611_i2cx,MS5611_I2C_ADDR,register_address,length,output);
 8004226:	6830      	ldr	r0, [r6, #0]
 8004228:	9500      	str	r5, [sp, #0]
 800422a:	2303      	movs	r3, #3
 800422c:	2177      	movs	r1, #119	; 0x77
 800422e:	f7ff fee3 	bl	8003ff8 <I2C_read>
	uint32_t temp = ((uint32_t)buffer[0] << 16) | ((uint32_t)buffer[1] << 8) | ((uint32_t)buffer[2]);
 8004232:	f89d 300d 	ldrb.w	r3, [sp, #13]
 8004236:	f89d 100c 	ldrb.w	r1, [sp, #12]
 800423a:	f89d 200e 	ldrb.w	r2, [sp, #14]
 800423e:	021b      	lsls	r3, r3, #8
 8004240:	ea43 4301 	orr.w	r3, r3, r1, lsl #16
	if (temp != 0){
 8004244:	4313      	orrs	r3, r2
		raw_temperature = temp;
 8004246:	bf18      	it	ne
 8004248:	4a1a      	ldrne	r2, [pc, #104]	; (80042b4 <ms5611_update+0xcc>)
	return I2C_write(ms5611_i2cx,MS5611_I2C_ADDR,register_address,length,input);
 800424a:	f04f 0177 	mov.w	r1, #119	; 0x77
		raw_temperature = temp;
 800424e:	bf18      	it	ne
 8004250:	6013      	strne	r3, [r2, #0]
	ms5611_write_i2c(MS5611_CMD_CONVERT_D1 | (selected_osr << 1),0,buffer);
 8004252:	783a      	ldrb	r2, [r7, #0]
	return I2C_write(ms5611_i2cx,MS5611_I2C_ADDR,register_address,length,input);
 8004254:	4623      	mov	r3, r4
	ms5611_write_i2c(MS5611_CMD_CONVERT_D1 | (selected_osr << 1),0,buffer);
 8004256:	0052      	lsls	r2, r2, #1
 8004258:	f042 0240 	orr.w	r2, r2, #64	; 0x40
	return I2C_write(ms5611_i2cx,MS5611_I2C_ADDR,register_address,length,input);
 800425c:	f002 02fe 	and.w	r2, r2, #254	; 0xfe
 8004260:	6830      	ldr	r0, [r6, #0]
 8004262:	9500      	str	r5, [sp, #0]
	uint8_t buffer[3] = {0x00,0x00,0x00};
 8004264:	f8ad 400c 	strh.w	r4, [sp, #12]
 8004268:	f88d 400e 	strb.w	r4, [sp, #14]
	return I2C_write(ms5611_i2cx,MS5611_I2C_ADDR,register_address,length,input);
 800426c:	f7ff fed4 	bl	8004018 <I2C_write>
	delay(12);//time delay necessary for ADC to convert, must be >= 9.02ms
 8004270:	200c      	movs	r0, #12
 8004272:	f000 fab5 	bl	80047e0 <delay>
	return I2C_read(ms5611_i2cx,MS5611_I2C_ADDR,register_address,length,output);
 8004276:	4622      	mov	r2, r4
 8004278:	6830      	ldr	r0, [r6, #0]
 800427a:	9500      	str	r5, [sp, #0]
 800427c:	2303      	movs	r3, #3
 800427e:	2177      	movs	r1, #119	; 0x77
	uint8_t buffer[3] = {0x00,0x00,0x00};
 8004280:	f8ad 400c 	strh.w	r4, [sp, #12]
 8004284:	f88d 400e 	strb.w	r4, [sp, #14]
	return I2C_read(ms5611_i2cx,MS5611_I2C_ADDR,register_address,length,output);
 8004288:	f7ff feb6 	bl	8003ff8 <I2C_read>
	uint32_t temp = ((uint32_t)buffer[0] << 16) | ((uint32_t)buffer[1] << 8) | ((uint32_t)buffer[2]);
 800428c:	f89d 300d 	ldrb.w	r3, [sp, #13]
 8004290:	f89d 100c 	ldrb.w	r1, [sp, #12]
 8004294:	f89d 200e 	ldrb.w	r2, [sp, #14]
 8004298:	021b      	lsls	r3, r3, #8
 800429a:	ea43 4301 	orr.w	r3, r3, r1, lsl #16
	if (temp != 0){
 800429e:	4313      	orrs	r3, r2
		raw_pressure = temp;
 80042a0:	bf1c      	itt	ne
 80042a2:	4a05      	ldrne	r2, [pc, #20]	; (80042b8 <ms5611_update+0xd0>)
 80042a4:	6013      	strne	r3, [r2, #0]
	ms5611_update_temperature();
	ms5611_update_pressure();
}
 80042a6:	b005      	add	sp, #20
 80042a8:	bdf0      	pop	{r4, r5, r6, r7, pc}
 80042aa:	bf00      	nop
 80042ac:	2000003c 	.word	0x2000003c
 80042b0:	200007d4 	.word	0x200007d4
 80042b4:	20000d24 	.word	0x20000d24
 80042b8:	20000d14 	.word	0x20000d14
 80042bc:	00000000 	.word	0x00000000

080042c0 <ms5611_get_pressure>:

/**
 * Get calibrated pressure, unit: mBar
 * @return calibrated pressure
 */
double ms5611_get_pressure(){
 80042c0:	e92d 4ff0 	stmdb	sp!, {r4, r5, r6, r7, r8, r9, sl, fp, lr}

	uint32_t dT = raw_temperature - ((uint32_t)fc[4] * 256);
 80042c4:	4b74      	ldr	r3, [pc, #464]	; (8004498 <ms5611_get_pressure+0x1d8>)
 80042c6:	f8df 81f4 	ldr.w	r8, [pc, #500]	; 80044bc <ms5611_get_pressure+0x1fc>
 80042ca:	681a      	ldr	r2, [r3, #0]
 80042cc:	f8b8 3008 	ldrh.w	r3, [r8, #8]
double ms5611_get_pressure(){
 80042d0:	b085      	sub	sp, #20
	double TEMP = 2000.0 + dT * (fc[5] / (8388608.0));//unit 0.01 C
 80042d2:	f8b8 000a 	ldrh.w	r0, [r8, #10]
	uint32_t dT = raw_temperature - ((uint32_t)fc[4] * 256);
 80042d6:	eba2 2903 	sub.w	r9, r2, r3, lsl #8
	double TEMP = 2000.0 + dT * (fc[5] / (8388608.0));//unit 0.01 C
 80042da:	f7fc f893 	bl	8000404 <__aeabi_i2d>
 80042de:	2200      	movs	r2, #0
 80042e0:	f04f 537a 	mov.w	r3, #1048576000	; 0x3e800000
 80042e4:	f7fc f8f8 	bl	80004d8 <__aeabi_dmul>
 80042e8:	4604      	mov	r4, r0
 80042ea:	4648      	mov	r0, r9
 80042ec:	460d      	mov	r5, r1
 80042ee:	f7fc f879 	bl	80003e4 <__aeabi_ui2d>
 80042f2:	4602      	mov	r2, r0
 80042f4:	460b      	mov	r3, r1
 80042f6:	4620      	mov	r0, r4
 80042f8:	4629      	mov	r1, r5
 80042fa:	f7fc f8ed 	bl	80004d8 <__aeabi_dmul>
 80042fe:	4604      	mov	r4, r0

	double OFF = fc[1] * (65536.0) + fc[3] * dT / (128);
 8004300:	f8b8 0006 	ldrh.w	r0, [r8, #6]
	double TEMP = 2000.0 + dT * (fc[5] / (8388608.0));//unit 0.01 C
 8004304:	460d      	mov	r5, r1
	double OFF = fc[1] * (65536.0) + fc[3] * dT / (128);
 8004306:	fb09 f000 	mul.w	r0, r9, r0
 800430a:	09c0      	lsrs	r0, r0, #7
 800430c:	f7fc f86a 	bl	80003e4 <__aeabi_ui2d>
 8004310:	4606      	mov	r6, r0
 8004312:	f8b8 0002 	ldrh.w	r0, [r8, #2]
 8004316:	460f      	mov	r7, r1
 8004318:	f7fc f874 	bl	8000404 <__aeabi_i2d>
 800431c:	2200      	movs	r2, #0
 800431e:	4b5f      	ldr	r3, [pc, #380]	; (800449c <ms5611_get_pressure+0x1dc>)
 8004320:	f7fc f8da 	bl	80004d8 <__aeabi_dmul>
 8004324:	4602      	mov	r2, r0
 8004326:	460b      	mov	r3, r1
 8004328:	4630      	mov	r0, r6
 800432a:	4639      	mov	r1, r7
 800432c:	f7fb ff1e 	bl	800016c <__adddf3>
 8004330:	4682      	mov	sl, r0
	double SENS = fc[0] * (32768.0) + fc[2] * dT / (256);
 8004332:	f8b8 0004 	ldrh.w	r0, [r8, #4]
 8004336:	468b      	mov	fp, r1
 8004338:	fb09 f000 	mul.w	r0, r9, r0
 800433c:	0a00      	lsrs	r0, r0, #8
 800433e:	f7fc f851 	bl	80003e4 <__aeabi_ui2d>
 8004342:	4606      	mov	r6, r0
 8004344:	f8b8 0000 	ldrh.w	r0, [r8]
 8004348:	460f      	mov	r7, r1
 800434a:	f7fc f85b 	bl	8000404 <__aeabi_i2d>
 800434e:	2200      	movs	r2, #0
 8004350:	4b53      	ldr	r3, [pc, #332]	; (80044a0 <ms5611_get_pressure+0x1e0>)
 8004352:	f7fc f8c1 	bl	80004d8 <__aeabi_dmul>
 8004356:	4602      	mov	r2, r0
 8004358:	460b      	mov	r3, r1
 800435a:	4630      	mov	r0, r6
 800435c:	4639      	mov	r1, r7
 800435e:	f7fb ff05 	bl	800016c <__adddf3>

	double P = (raw_pressure * SENS / (2097152.0) - OFF) / (32768.0);//unit 0.01mbar
 8004362:	4b50      	ldr	r3, [pc, #320]	; (80044a4 <ms5611_get_pressure+0x1e4>)
	double SENS = fc[0] * (32768.0) + fc[2] * dT / (256);
 8004364:	4606      	mov	r6, r0
	double P = (raw_pressure * SENS / (2097152.0) - OFF) / (32768.0);//unit 0.01mbar
 8004366:	6818      	ldr	r0, [r3, #0]
	double SENS = fc[0] * (32768.0) + fc[2] * dT / (256);
 8004368:	460f      	mov	r7, r1
	double P = (raw_pressure * SENS / (2097152.0) - OFF) / (32768.0);//unit 0.01mbar
 800436a:	f7fc f83b 	bl	80003e4 <__aeabi_ui2d>

	double T2=0, OFF2=0, SENS2=0;
	if (TEMP < 2000){
 800436e:	2200      	movs	r2, #0
	double P = (raw_pressure * SENS / (2097152.0) - OFF) / (32768.0);//unit 0.01mbar
 8004370:	e9cd 0100 	strd	r0, r1, [sp]
	if (TEMP < 2000){
 8004374:	2300      	movs	r3, #0
 8004376:	4620      	mov	r0, r4
 8004378:	4629      	mov	r1, r5
 800437a:	f7fc fb1f 	bl	80009bc <__aeabi_dcmplt>
 800437e:	b9a8      	cbnz	r0, 80043ac <ms5611_get_pressure+0xec>

	TEMP = TEMP - T2;
	OFF = OFF - OFF2;
	SENS = SENS - SENS2;

	P = (raw_pressure * SENS / (2097152.0) - OFF) / (32768.0);//unit mbar
 8004380:	e9dd 0100 	ldrd	r0, r1, [sp]
 8004384:	2200      	movs	r2, #0
 8004386:	4b48      	ldr	r3, [pc, #288]	; (80044a8 <ms5611_get_pressure+0x1e8>)
 8004388:	f7fc f8a6 	bl	80004d8 <__aeabi_dmul>
 800438c:	4632      	mov	r2, r6
 800438e:	463b      	mov	r3, r7
 8004390:	f7fc f8a2 	bl	80004d8 <__aeabi_dmul>
 8004394:	4652      	mov	r2, sl
 8004396:	465b      	mov	r3, fp
 8004398:	f7fb fee6 	bl	8000168 <__aeabi_dsub>
	return P / 100;//unit mbar
 800439c:	a338      	add	r3, pc, #224	; (adr r3, 8004480 <ms5611_get_pressure+0x1c0>)
 800439e:	e9d3 2300 	ldrd	r2, r3, [r3]
 80043a2:	f7fc f899 	bl	80004d8 <__aeabi_dmul>
}
 80043a6:	b005      	add	sp, #20
 80043a8:	e8bd 8ff0 	ldmia.w	sp!, {r4, r5, r6, r7, r8, r9, sl, fp, pc}
		OFF2 = 5 * (TEMP-2000) * (TEMP-2000) / 2;
 80043ac:	4622      	mov	r2, r4
 80043ae:	462b      	mov	r3, r5
 80043b0:	4620      	mov	r0, r4
 80043b2:	4629      	mov	r1, r5
 80043b4:	f7fc f890 	bl	80004d8 <__aeabi_dmul>
 80043b8:	2200      	movs	r2, #0
 80043ba:	4b3c      	ldr	r3, [pc, #240]	; (80044ac <ms5611_get_pressure+0x1ec>)
 80043bc:	4680      	mov	r8, r0
 80043be:	4689      	mov	r9, r1
 80043c0:	f7fc f88a 	bl	80004d8 <__aeabi_dmul>
		SENS2 = 5 * (TEMP-2000) * (TEMP-2000) / 4;
 80043c4:	2200      	movs	r2, #0
		OFF2 = 5 * (TEMP-2000) * (TEMP-2000) / 2;
 80043c6:	e9cd 0102 	strd	r0, r1, [sp, #8]
		SENS2 = 5 * (TEMP-2000) * (TEMP-2000) / 4;
 80043ca:	4b39      	ldr	r3, [pc, #228]	; (80044b0 <ms5611_get_pressure+0x1f0>)
 80043cc:	4640      	mov	r0, r8
 80043ce:	4649      	mov	r1, r9
 80043d0:	f7fc f882 	bl	80004d8 <__aeabi_dmul>
		if (TEMP < -1500){
 80043d4:	a32c      	add	r3, pc, #176	; (adr r3, 8004488 <ms5611_get_pressure+0x1c8>)
 80043d6:	e9d3 2300 	ldrd	r2, r3, [r3]
		SENS2 = 5 * (TEMP-2000) * (TEMP-2000) / 4;
 80043da:	4680      	mov	r8, r0
 80043dc:	4689      	mov	r9, r1
		if (TEMP < -1500){
 80043de:	4620      	mov	r0, r4
 80043e0:	4629      	mov	r1, r5
 80043e2:	f7fc faeb 	bl	80009bc <__aeabi_dcmplt>
 80043e6:	b3c8      	cbz	r0, 800445c <ms5611_get_pressure+0x19c>
			OFF2 = OFF2 + 7 * (TEMP + 1500) * (TEMP + 1500);
 80043e8:	a329      	add	r3, pc, #164	; (adr r3, 8004490 <ms5611_get_pressure+0x1d0>)
 80043ea:	e9d3 2300 	ldrd	r2, r3, [r3]
 80043ee:	4620      	mov	r0, r4
 80043f0:	4629      	mov	r1, r5
 80043f2:	f7fb febb 	bl	800016c <__adddf3>
 80043f6:	4602      	mov	r2, r0
 80043f8:	460b      	mov	r3, r1
 80043fa:	f7fc f86d 	bl	80004d8 <__aeabi_dmul>
 80043fe:	4642      	mov	r2, r8
 8004400:	4604      	mov	r4, r0
 8004402:	460d      	mov	r5, r1
 8004404:	464b      	mov	r3, r9
 8004406:	4630      	mov	r0, r6
 8004408:	4639      	mov	r1, r7
 800440a:	f7fb fead 	bl	8000168 <__aeabi_dsub>
			SENS2 = SENS2 + 11/2 * (TEMP + 1500) * (TEMP + 1500);
 800440e:	2200      	movs	r2, #0
 8004410:	4606      	mov	r6, r0
 8004412:	460f      	mov	r7, r1
 8004414:	4b27      	ldr	r3, [pc, #156]	; (80044b4 <ms5611_get_pressure+0x1f4>)
 8004416:	4620      	mov	r0, r4
 8004418:	4629      	mov	r1, r5
 800441a:	f7fc f85d 	bl	80004d8 <__aeabi_dmul>
 800441e:	4602      	mov	r2, r0
 8004420:	460b      	mov	r3, r1
 8004422:	4630      	mov	r0, r6
 8004424:	4639      	mov	r1, r7
 8004426:	f7fb fe9f 	bl	8000168 <__aeabi_dsub>
 800442a:	e9dd 2302 	ldrd	r2, r3, [sp, #8]
 800442e:	4606      	mov	r6, r0
 8004430:	460f      	mov	r7, r1
 8004432:	4650      	mov	r0, sl
 8004434:	4659      	mov	r1, fp
 8004436:	f7fb fe97 	bl	8000168 <__aeabi_dsub>
			OFF2 = OFF2 + 7 * (TEMP + 1500) * (TEMP + 1500);
 800443a:	2200      	movs	r2, #0
 800443c:	4680      	mov	r8, r0
 800443e:	4689      	mov	r9, r1
 8004440:	4b1d      	ldr	r3, [pc, #116]	; (80044b8 <ms5611_get_pressure+0x1f8>)
 8004442:	4620      	mov	r0, r4
 8004444:	4629      	mov	r1, r5
 8004446:	f7fc f847 	bl	80004d8 <__aeabi_dmul>
 800444a:	4602      	mov	r2, r0
 800444c:	460b      	mov	r3, r1
 800444e:	4640      	mov	r0, r8
 8004450:	4649      	mov	r1, r9
 8004452:	f7fb fe89 	bl	8000168 <__aeabi_dsub>
 8004456:	4682      	mov	sl, r0
 8004458:	468b      	mov	fp, r1
 800445a:	e791      	b.n	8004380 <ms5611_get_pressure+0xc0>
 800445c:	4642      	mov	r2, r8
 800445e:	464b      	mov	r3, r9
 8004460:	4630      	mov	r0, r6
 8004462:	4639      	mov	r1, r7
 8004464:	f7fb fe80 	bl	8000168 <__aeabi_dsub>
 8004468:	e9dd 2302 	ldrd	r2, r3, [sp, #8]
 800446c:	4606      	mov	r6, r0
 800446e:	460f      	mov	r7, r1
 8004470:	4650      	mov	r0, sl
 8004472:	4659      	mov	r1, fp
 8004474:	f7fb fe78 	bl	8000168 <__aeabi_dsub>
 8004478:	4682      	mov	sl, r0
 800447a:	468b      	mov	fp, r1
 800447c:	e780      	b.n	8004380 <ms5611_get_pressure+0xc0>
 800447e:	bf00      	nop
 8004480:	47ae147b 	.word	0x47ae147b
 8004484:	3e947ae1 	.word	0x3e947ae1
 8004488:	00000000 	.word	0x00000000
 800448c:	c0ab5800 	.word	0xc0ab5800
 8004490:	00000000 	.word	0x00000000
 8004494:	40ab5800 	.word	0x40ab5800
 8004498:	20000d24 	.word	0x20000d24
 800449c:	40f00000 	.word	0x40f00000
 80044a0:	40e00000 	.word	0x40e00000
 80044a4:	20000d14 	.word	0x20000d14
 80044a8:	3ea00000 	.word	0x3ea00000
 80044ac:	40040000 	.word	0x40040000
 80044b0:	3ff40000 	.word	0x3ff40000
 80044b4:	40140000 	.word	0x40140000
 80044b8:	401c0000 	.word	0x401c0000
 80044bc:	20000d18 	.word	0x20000d18

080044c0 <ms5611_timer_update>:
void ms5611_timer_update(){
 80044c0:	e92d 47f0 	stmdb	sp!, {r4, r5, r6, r7, r8, r9, sl, lr}
	if (read_index == 0){
 80044c4:	4c74      	ldr	r4, [pc, #464]	; (8004698 <ms5611_timer_update+0x1d8>)
 80044c6:	4d75      	ldr	r5, [pc, #468]	; (800469c <ms5611_timer_update+0x1dc>)
 80044c8:	7826      	ldrb	r6, [r4, #0]
void ms5611_timer_update(){
 80044ca:	b086      	sub	sp, #24
 80044cc:	6828      	ldr	r0, [r5, #0]
	if (read_index == 0){
 80044ce:	2e00      	cmp	r6, #0
 80044d0:	d076      	beq.n	80045c0 <ms5611_timer_update+0x100>
	}else if (read_index == TEMP_READ_INTERVAL - 1){
 80044d2:	2e09      	cmp	r6, #9
	uint8_t buffer[3] = {0x00,0x00,0x00};
 80044d4:	f04f 0600 	mov.w	r6, #0
	return I2C_read(ms5611_i2cx,MS5611_I2C_ADDR,register_address,length,output);
 80044d8:	f10d 0a14 	add.w	sl, sp, #20
 80044dc:	4632      	mov	r2, r6
 80044de:	f8cd a000 	str.w	sl, [sp]
 80044e2:	f04f 0303 	mov.w	r3, #3
 80044e6:	f04f 0177 	mov.w	r1, #119	; 0x77
	uint8_t buffer[3] = {0x00,0x00,0x00};
 80044ea:	f8ad 6014 	strh.w	r6, [sp, #20]
 80044ee:	f88d 6016 	strb.w	r6, [sp, #22]
	}else if (read_index == TEMP_READ_INTERVAL - 1){
 80044f2:	d033      	beq.n	800455c <ms5611_timer_update+0x9c>
	return I2C_read(ms5611_i2cx,MS5611_I2C_ADDR,register_address,length,output);
 80044f4:	f7ff fd80 	bl	8003ff8 <I2C_read>
	uint32_t temp = ((uint32_t)buffer[0] << 16) | ((uint32_t)buffer[1] << 8) | ((uint32_t)buffer[2]);
 80044f8:	f89d 3015 	ldrb.w	r3, [sp, #21]
 80044fc:	f89d 1014 	ldrb.w	r1, [sp, #20]
 8004500:	f89d 2016 	ldrb.w	r2, [sp, #22]
 8004504:	021b      	lsls	r3, r3, #8
 8004506:	ea43 4301 	orr.w	r3, r3, r1, lsl #16
	if (temp != 0){
 800450a:	4313      	orrs	r3, r2
		raw_pressure = temp;
 800450c:	bf18      	it	ne
 800450e:	4a64      	ldrne	r2, [pc, #400]	; (80046a0 <ms5611_timer_update+0x1e0>)
	uint8_t buffer[3] = {0x00,0x00,0x00};
 8004510:	f04f 0600 	mov.w	r6, #0
		raw_pressure = temp;
 8004514:	bf18      	it	ne
 8004516:	6013      	strne	r3, [r2, #0]
		XIMU_sens.pressure = ms5611_get_pressure();
 8004518:	f7ff fed2 	bl	80042c0 <ms5611_get_pressure>
	ms5611_write_i2c(MS5611_CMD_CONVERT_D1 | (selected_osr << 1),0,buffer);
 800451c:	4a61      	ldr	r2, [pc, #388]	; (80046a4 <ms5611_timer_update+0x1e4>)
	return I2C_write(ms5611_i2cx,MS5611_I2C_ADDR,register_address,length,input);
 800451e:	682b      	ldr	r3, [r5, #0]
		XIMU_sens.pressure = ms5611_get_pressure();
 8004520:	4d61      	ldr	r5, [pc, #388]	; (80046a8 <ms5611_timer_update+0x1e8>)
	ms5611_write_i2c(MS5611_CMD_CONVERT_D1 | (selected_osr << 1),0,buffer);
 8004522:	7812      	ldrb	r2, [r2, #0]
	return I2C_write(ms5611_i2cx,MS5611_I2C_ADDR,register_address,length,input);
 8004524:	f8cd a000 	str.w	sl, [sp]
		XIMU_sens.pressure = ms5611_get_pressure();
 8004528:	e9c5 011e 	strd	r0, r1, [r5, #120]	; 0x78
	ms5611_write_i2c(MS5611_CMD_CONVERT_D1 | (selected_osr << 1),0,buffer);
 800452c:	0052      	lsls	r2, r2, #1
 800452e:	f042 0240 	orr.w	r2, r2, #64	; 0x40
	return I2C_write(ms5611_i2cx,MS5611_I2C_ADDR,register_address,length,input);
 8004532:	f002 02fe 	and.w	r2, r2, #254	; 0xfe
 8004536:	2177      	movs	r1, #119	; 0x77
 8004538:	4618      	mov	r0, r3
 800453a:	4633      	mov	r3, r6
	uint8_t buffer[3] = {0x00,0x00,0x00};
 800453c:	f8ad 6014 	strh.w	r6, [sp, #20]
 8004540:	f88d 6016 	strb.w	r6, [sp, #22]
	return I2C_write(ms5611_i2cx,MS5611_I2C_ADDR,register_address,length,input);
 8004544:	f7ff fd68 	bl	8004018 <I2C_write>
		read_index++;
 8004548:	7823      	ldrb	r3, [r4, #0]
 800454a:	3301      	adds	r3, #1
 800454c:	7023      	strb	r3, [r4, #0]
	XIMU_sens.pt_ts = millis();
 800454e:	f000 f941 	bl	80047d4 <millis>
 8004552:	f8c5 0088 	str.w	r0, [r5, #136]	; 0x88
}
 8004556:	b006      	add	sp, #24
 8004558:	e8bd 87f0 	ldmia.w	sp!, {r4, r5, r6, r7, r8, r9, sl, pc}
	return I2C_read(ms5611_i2cx,MS5611_I2C_ADDR,register_address,length,output);
 800455c:	f7ff fd4c 	bl	8003ff8 <I2C_read>
	uint32_t temp = ((uint32_t)buffer[0] << 16) | ((uint32_t)buffer[1] << 8) | ((uint32_t)buffer[2]);
 8004560:	f89d 3015 	ldrb.w	r3, [sp, #21]
 8004564:	f89d 1014 	ldrb.w	r1, [sp, #20]
 8004568:	f89d 2016 	ldrb.w	r2, [sp, #22]
 800456c:	021b      	lsls	r3, r3, #8
 800456e:	ea43 4301 	orr.w	r3, r3, r1, lsl #16
	if (temp != 0){
 8004572:	4313      	orrs	r3, r2
		raw_pressure = temp;
 8004574:	bf18      	it	ne
 8004576:	4a4a      	ldrne	r2, [pc, #296]	; (80046a0 <ms5611_timer_update+0x1e0>)
	uint8_t buffer[3] = {0x00,0x00,0x00};
 8004578:	f04f 0600 	mov.w	r6, #0
		raw_pressure = temp;
 800457c:	bf18      	it	ne
 800457e:	6013      	strne	r3, [r2, #0]
		XIMU_sens.pressure = ms5611_get_pressure();
 8004580:	f7ff fe9e 	bl	80042c0 <ms5611_get_pressure>
	ms5611_write_i2c(MS5611_CMD_CONVERT_D2 | (selected_osr << 1),0,buffer);
 8004584:	4a47      	ldr	r2, [pc, #284]	; (80046a4 <ms5611_timer_update+0x1e4>)
	return I2C_write(ms5611_i2cx,MS5611_I2C_ADDR,register_address,length,input);
 8004586:	682b      	ldr	r3, [r5, #0]
	ms5611_write_i2c(MS5611_CMD_CONVERT_D2 | (selected_osr << 1),0,buffer);
 8004588:	7812      	ldrb	r2, [r2, #0]
		XIMU_sens.pressure = ms5611_get_pressure();
 800458a:	4d47      	ldr	r5, [pc, #284]	; (80046a8 <ms5611_timer_update+0x1e8>)
	ms5611_write_i2c(MS5611_CMD_CONVERT_D2 | (selected_osr << 1),0,buffer);
 800458c:	0052      	lsls	r2, r2, #1
 800458e:	f042 0250 	orr.w	r2, r2, #80	; 0x50
	return I2C_write(ms5611_i2cx,MS5611_I2C_ADDR,register_address,length,input);
 8004592:	f8cd a000 	str.w	sl, [sp]
 8004596:	f002 02fe 	and.w	r2, r2, #254	; 0xfe
		XIMU_sens.pressure = ms5611_get_pressure();
 800459a:	e9c5 011e 	strd	r0, r1, [r5, #120]	; 0x78
	return I2C_write(ms5611_i2cx,MS5611_I2C_ADDR,register_address,length,input);
 800459e:	2177      	movs	r1, #119	; 0x77
 80045a0:	4618      	mov	r0, r3
 80045a2:	4633      	mov	r3, r6
	uint8_t buffer[3] = {0x00,0x00,0x00};
 80045a4:	f8ad 6014 	strh.w	r6, [sp, #20]
 80045a8:	f88d 6016 	strb.w	r6, [sp, #22]
	return I2C_write(ms5611_i2cx,MS5611_I2C_ADDR,register_address,length,input);
 80045ac:	f7ff fd34 	bl	8004018 <I2C_write>
		read_index = 0;
 80045b0:	7026      	strb	r6, [r4, #0]
	XIMU_sens.pt_ts = millis();
 80045b2:	f000 f90f 	bl	80047d4 <millis>
 80045b6:	f8c5 0088 	str.w	r0, [r5, #136]	; 0x88
}
 80045ba:	b006      	add	sp, #24
 80045bc:	e8bd 87f0 	ldmia.w	sp!, {r4, r5, r6, r7, r8, r9, sl, pc}
	return I2C_read(ms5611_i2cx,MS5611_I2C_ADDR,register_address,length,output);
 80045c0:	f10d 0a14 	add.w	sl, sp, #20
 80045c4:	4632      	mov	r2, r6
 80045c6:	2303      	movs	r3, #3
 80045c8:	2177      	movs	r1, #119	; 0x77
 80045ca:	f8cd a000 	str.w	sl, [sp]
	uint8_t buffer[3] = {0x00,0x00,0x00};
 80045ce:	f8ad 6014 	strh.w	r6, [sp, #20]
 80045d2:	f88d 6016 	strb.w	r6, [sp, #22]
	return I2C_read(ms5611_i2cx,MS5611_I2C_ADDR,register_address,length,output);
 80045d6:	f7ff fd0f 	bl	8003ff8 <I2C_read>
	uint32_t temp = ((uint32_t)buffer[0] << 16) | ((uint32_t)buffer[1] << 8) | ((uint32_t)buffer[2]);
 80045da:	f89d 0015 	ldrb.w	r0, [sp, #21]
 80045de:	f89d 2014 	ldrb.w	r2, [sp, #20]
 80045e2:	f89d 3016 	ldrb.w	r3, [sp, #22]
 80045e6:	0200      	lsls	r0, r0, #8
 80045e8:	ea40 4002 	orr.w	r0, r0, r2, lsl #16
	if (temp != 0){
 80045ec:	4318      	orrs	r0, r3
	uint32_t dT = raw_temperature - ((uint32_t)fc[4] * 256);
 80045ee:	4e2f      	ldr	r6, [pc, #188]	; (80046ac <ms5611_timer_update+0x1ec>)
		raw_temperature = temp;
 80045f0:	4b2f      	ldr	r3, [pc, #188]	; (80046b0 <ms5611_timer_update+0x1f0>)
 80045f2:	bf0c      	ite	eq
 80045f4:	6818      	ldreq	r0, [r3, #0]
 80045f6:	6018      	strne	r0, [r3, #0]
	uint32_t dT = raw_temperature - ((uint32_t)fc[4] * 256);
 80045f8:	8933      	ldrh	r3, [r6, #8]
	double TEMP = 2000.0 + dT * (fc[5] / (8388608.0));//unit 0.01 C
 80045fa:	eba0 2003 	sub.w	r0, r0, r3, lsl #8
 80045fe:	f7fb fef1 	bl	80003e4 <__aeabi_ui2d>
 8004602:	4680      	mov	r8, r0
 8004604:	4689      	mov	r9, r1
 8004606:	8970      	ldrh	r0, [r6, #10]
 8004608:	f7fb fefc 	bl	8000404 <__aeabi_i2d>
 800460c:	2200      	movs	r2, #0
 800460e:	f04f 537a 	mov.w	r3, #1048576000	; 0x3e800000
 8004612:	f7fb ff61 	bl	80004d8 <__aeabi_dmul>
 8004616:	4642      	mov	r2, r8
 8004618:	464b      	mov	r3, r9
 800461a:	f7fb ff5d 	bl	80004d8 <__aeabi_dmul>
 800461e:	2200      	movs	r2, #0
 8004620:	4b24      	ldr	r3, [pc, #144]	; (80046b4 <ms5611_timer_update+0x1f4>)
 8004622:	e9cd 0102 	strd	r0, r1, [sp, #8]
 8004626:	f7fb fda1 	bl	800016c <__adddf3>
	if (TEMP < 2000.0){
 800462a:	2200      	movs	r2, #0
	double TEMP = 2000.0 + dT * (fc[5] / (8388608.0));//unit 0.01 C
 800462c:	4606      	mov	r6, r0
 800462e:	460f      	mov	r7, r1
	if (TEMP < 2000.0){
 8004630:	e9dd 0102 	ldrd	r0, r1, [sp, #8]
 8004634:	2300      	movs	r3, #0
 8004636:	f7fc f9c1 	bl	80009bc <__aeabi_dcmplt>
 800463a:	b998      	cbnz	r0, 8004664 <ms5611_timer_update+0x1a4>
	return TEMP / 100.0;
 800463c:	a314      	add	r3, pc, #80	; (adr r3, 8004690 <ms5611_timer_update+0x1d0>)
 800463e:	e9d3 2300 	ldrd	r2, r3, [r3]
 8004642:	4630      	mov	r0, r6
 8004644:	4639      	mov	r1, r7
 8004646:	f7fb ff47 	bl	80004d8 <__aeabi_dmul>
	ms5611_write_i2c(MS5611_CMD_CONVERT_D1 | (selected_osr << 1),0,buffer);
 800464a:	4a16      	ldr	r2, [pc, #88]	; (80046a4 <ms5611_timer_update+0x1e4>)
	return I2C_write(ms5611_i2cx,MS5611_I2C_ADDR,register_address,length,input);
 800464c:	682b      	ldr	r3, [r5, #0]
	ms5611_write_i2c(MS5611_CMD_CONVERT_D1 | (selected_osr << 1),0,buffer);
 800464e:	7812      	ldrb	r2, [r2, #0]
		XIMU_sens.temperature = ms5611_get_temperature();
 8004650:	4d15      	ldr	r5, [pc, #84]	; (80046a8 <ms5611_timer_update+0x1e8>)
	ms5611_write_i2c(MS5611_CMD_CONVERT_D1 | (selected_osr << 1),0,buffer);
 8004652:	0052      	lsls	r2, r2, #1
	return I2C_write(ms5611_i2cx,MS5611_I2C_ADDR,register_address,length,input);
 8004654:	f8cd a000 	str.w	sl, [sp]
	uint8_t buffer[3] = {0x00,0x00,0x00};
 8004658:	2600      	movs	r6, #0
	ms5611_write_i2c(MS5611_CMD_CONVERT_D1 | (selected_osr << 1),0,buffer);
 800465a:	f042 0240 	orr.w	r2, r2, #64	; 0x40
		XIMU_sens.temperature = ms5611_get_temperature();
 800465e:	e9c5 0120 	strd	r0, r1, [r5, #128]	; 0x80
 8004662:	e766      	b.n	8004532 <ms5611_timer_update+0x72>
		T2 = dT * (dT / (2147483648.0));
 8004664:	4642      	mov	r2, r8
 8004666:	464b      	mov	r3, r9
 8004668:	4640      	mov	r0, r8
 800466a:	4649      	mov	r1, r9
 800466c:	f7fb ff34 	bl	80004d8 <__aeabi_dmul>
 8004670:	2200      	movs	r2, #0
 8004672:	f04f 5378 	mov.w	r3, #1040187392	; 0x3e000000
 8004676:	f7fb ff2f 	bl	80004d8 <__aeabi_dmul>
 800467a:	4602      	mov	r2, r0
 800467c:	460b      	mov	r3, r1
 800467e:	4630      	mov	r0, r6
 8004680:	4639      	mov	r1, r7
 8004682:	f7fb fd71 	bl	8000168 <__aeabi_dsub>
 8004686:	4606      	mov	r6, r0
 8004688:	460f      	mov	r7, r1
 800468a:	e7d7      	b.n	800463c <ms5611_timer_update+0x17c>
 800468c:	f3af 8000 	nop.w
 8004690:	47ae147b 	.word	0x47ae147b
 8004694:	3f847ae1 	.word	0x3f847ae1
 8004698:	200003be 	.word	0x200003be
 800469c:	200007d4 	.word	0x200007d4
 80046a0:	20000d14 	.word	0x20000d14
 80046a4:	2000003c 	.word	0x2000003c
 80046a8:	200005f8 	.word	0x200005f8
 80046ac:	20000d18 	.word	0x20000d18
 80046b0:	20000d24 	.word	0x20000d24
 80046b4:	409f4000 	.word	0x409f4000

080046b8 <otimes>:
}

/**
 * quaternion multiplication
 */
void otimes(arm_matrix_instance_f32* q1,arm_matrix_instance_f32* q2,arm_matrix_instance_f32* q_res){
 80046b8:	b570      	push	{r4, r5, r6, lr}
 80046ba:	4616      	mov	r6, r2
	arm_matrix_instance_f32 qL;
	float32_t qL_data[4*4];
	arm_mat_init_f32(&qL,4,4,qL_data);
 80046bc:	2204      	movs	r2, #4
void otimes(arm_matrix_instance_f32* q1,arm_matrix_instance_f32* q2,arm_matrix_instance_f32* q_res){
 80046be:	4604      	mov	r4, r0
 80046c0:	460d      	mov	r5, r1
 80046c2:	b092      	sub	sp, #72	; 0x48
	arm_mat_init_f32(&qL,4,4,qL_data);
 80046c4:	4668      	mov	r0, sp
 80046c6:	4611      	mov	r1, r2
 80046c8:	ab02      	add	r3, sp, #8
 80046ca:	f004 f93b 	bl	8008944 <arm_mat_init_f32>
	float32_t* q = q_->pData;
 80046ce:	6864      	ldr	r4, [r4, #4]
	float32_t* qL = qL_->pData;
 80046d0:	9b01      	ldr	r3, [sp, #4]
	qL[0] = q[0];		qL[1] = -q[1];		qL[2] = -q[2];		qL[3] = -q[3];
 80046d2:	6821      	ldr	r1, [r4, #0]

	quat_L(q1,&qL);
	arm_mat_mult_f32(&qL,q2,q_res);
 80046d4:	4632      	mov	r2, r6
	qL[0] = q[0];		qL[1] = -q[1];		qL[2] = -q[2];		qL[3] = -q[3];
 80046d6:	6019      	str	r1, [r3, #0]
 80046d8:	6860      	ldr	r0, [r4, #4]
	arm_mat_mult_f32(&qL,q2,q_res);
 80046da:	4629      	mov	r1, r5
	qL[0] = q[0];		qL[1] = -q[1];		qL[2] = -q[2];		qL[3] = -q[3];
 80046dc:	f100 4000 	add.w	r0, r0, #2147483648	; 0x80000000
 80046e0:	6058      	str	r0, [r3, #4]
 80046e2:	68a5      	ldr	r5, [r4, #8]
	arm_mat_mult_f32(&qL,q2,q_res);
 80046e4:	4668      	mov	r0, sp
	qL[0] = q[0];		qL[1] = -q[1];		qL[2] = -q[2];		qL[3] = -q[3];
 80046e6:	f105 4500 	add.w	r5, r5, #2147483648	; 0x80000000
 80046ea:	609d      	str	r5, [r3, #8]
 80046ec:	68e5      	ldr	r5, [r4, #12]
 80046ee:	f105 4500 	add.w	r5, r5, #2147483648	; 0x80000000
 80046f2:	60dd      	str	r5, [r3, #12]
	qL[4] = q[1];		qL[5] = q[0];		qL[6] = -q[3];		qL[7] = q[2];
 80046f4:	6865      	ldr	r5, [r4, #4]
 80046f6:	611d      	str	r5, [r3, #16]
 80046f8:	6825      	ldr	r5, [r4, #0]
 80046fa:	615d      	str	r5, [r3, #20]
 80046fc:	68e5      	ldr	r5, [r4, #12]
 80046fe:	f105 4500 	add.w	r5, r5, #2147483648	; 0x80000000
 8004702:	619d      	str	r5, [r3, #24]
 8004704:	68a5      	ldr	r5, [r4, #8]
 8004706:	61dd      	str	r5, [r3, #28]
	qL[8] = q[2];		qL[9] = q[3];		qL[10] = q[0];		qL[11] = -q[1];
 8004708:	68a5      	ldr	r5, [r4, #8]
 800470a:	621d      	str	r5, [r3, #32]
 800470c:	68e5      	ldr	r5, [r4, #12]
 800470e:	625d      	str	r5, [r3, #36]	; 0x24
 8004710:	6825      	ldr	r5, [r4, #0]
 8004712:	629d      	str	r5, [r3, #40]	; 0x28
 8004714:	6865      	ldr	r5, [r4, #4]
 8004716:	f105 4500 	add.w	r5, r5, #2147483648	; 0x80000000
 800471a:	62dd      	str	r5, [r3, #44]	; 0x2c
	qL[12] = q[3];		qL[13] = -q[2];		qL[14] = q[1];		qL[15] = q[0];
 800471c:	68e5      	ldr	r5, [r4, #12]
 800471e:	631d      	str	r5, [r3, #48]	; 0x30
 8004720:	68a5      	ldr	r5, [r4, #8]
 8004722:	f105 4500 	add.w	r5, r5, #2147483648	; 0x80000000
 8004726:	635d      	str	r5, [r3, #52]	; 0x34
 8004728:	6865      	ldr	r5, [r4, #4]
 800472a:	639d      	str	r5, [r3, #56]	; 0x38
 800472c:	6824      	ldr	r4, [r4, #0]
 800472e:	63dc      	str	r4, [r3, #60]	; 0x3c
	arm_mat_mult_f32(&qL,q2,q_res);
 8004730:	f004 f854 	bl	80087dc <arm_mat_mult_f32>
}
 8004734:	b012      	add	sp, #72	; 0x48
 8004736:	bd70      	pop	{r4, r5, r6, pc}

08004738 <diff_q_diff_dtheta>:
}

/**
 * Jacobian w.r.t. quaternion perturbation. i.e. diff q \oplus \delta\theta diff \delta\theta
 */
void diff_q_diff_dtheta(arm_matrix_instance_f32* q_, arm_matrix_instance_f32* jacob_){
 8004738:	b430      	push	{r4, r5}
	float32_t* q = q_->pData;
 800473a:	6844      	ldr	r4, [r0, #4]
	float32_t* jacob = jacob_->pData;
 800473c:	684b      	ldr	r3, [r1, #4]

	jacob[0] = -q[1];	jacob[1] = -q[2];	jacob[2] = -q[3];
 800473e:	6860      	ldr	r0, [r4, #4]
void diff_q_diff_dtheta(arm_matrix_instance_f32* q_, arm_matrix_instance_f32* jacob_){
 8004740:	460a      	mov	r2, r1
	jacob[0] = -q[1];	jacob[1] = -q[2];	jacob[2] = -q[3];
 8004742:	f100 4000 	add.w	r0, r0, #2147483648	; 0x80000000
 8004746:	6018      	str	r0, [r3, #0]
 8004748:	68a1      	ldr	r1, [r4, #8]
	jacob[3] = q[0];	jacob[4] = -q[3];	jacob[5] = q[2];
	jacob[6] = q[3];	jacob[7] = q[0];	jacob[8] = -q[1];
	jacob[9] = -q[2];	jacob[10] = q[1];	jacob[11] = q[0];

	arm_mat_scale_f32(jacob_,0.5,jacob_);
 800474a:	4610      	mov	r0, r2
	jacob[0] = -q[1];	jacob[1] = -q[2];	jacob[2] = -q[3];
 800474c:	f101 4100 	add.w	r1, r1, #2147483648	; 0x80000000
 8004750:	6059      	str	r1, [r3, #4]
 8004752:	68e5      	ldr	r5, [r4, #12]
	arm_mat_scale_f32(jacob_,0.5,jacob_);
 8004754:	f04f 517c 	mov.w	r1, #1056964608	; 0x3f000000
	jacob[0] = -q[1];	jacob[1] = -q[2];	jacob[2] = -q[3];
 8004758:	f105 4500 	add.w	r5, r5, #2147483648	; 0x80000000
 800475c:	609d      	str	r5, [r3, #8]
	jacob[3] = q[0];	jacob[4] = -q[3];	jacob[5] = q[2];
 800475e:	6825      	ldr	r5, [r4, #0]
 8004760:	60dd      	str	r5, [r3, #12]
 8004762:	68e5      	ldr	r5, [r4, #12]
 8004764:	f105 4500 	add.w	r5, r5, #2147483648	; 0x80000000
 8004768:	611d      	str	r5, [r3, #16]
 800476a:	68a5      	ldr	r5, [r4, #8]
 800476c:	615d      	str	r5, [r3, #20]
	jacob[6] = q[3];	jacob[7] = q[0];	jacob[8] = -q[1];
 800476e:	68e5      	ldr	r5, [r4, #12]
 8004770:	619d      	str	r5, [r3, #24]
 8004772:	6825      	ldr	r5, [r4, #0]
 8004774:	61dd      	str	r5, [r3, #28]
 8004776:	6865      	ldr	r5, [r4, #4]
 8004778:	f105 4500 	add.w	r5, r5, #2147483648	; 0x80000000
 800477c:	621d      	str	r5, [r3, #32]
	jacob[9] = -q[2];	jacob[10] = q[1];	jacob[11] = q[0];
 800477e:	68a5      	ldr	r5, [r4, #8]
 8004780:	f105 4500 	add.w	r5, r5, #2147483648	; 0x80000000
 8004784:	625d      	str	r5, [r3, #36]	; 0x24
 8004786:	6865      	ldr	r5, [r4, #4]
 8004788:	629d      	str	r5, [r3, #40]	; 0x28
 800478a:	6824      	ldr	r4, [r4, #0]
 800478c:	62dc      	str	r4, [r3, #44]	; 0x2c
}
 800478e:	bc30      	pop	{r4, r5}
	arm_mat_scale_f32(jacob_,0.5,jacob_);
 8004790:	f003 bfc2 	b.w	8008718 <arm_mat_scale_f32>

08004794 <systickInit>:

static volatile uint32_t ticks = 0;

void systickInit(){

	   if (SysTick_Config(SystemCoreClock / SYSTICK_FREQ)){
 8004794:	4b0b      	ldr	r3, [pc, #44]	; (80047c4 <systickInit+0x30>)
 8004796:	4a0c      	ldr	r2, [pc, #48]	; (80047c8 <systickInit+0x34>)
 8004798:	681b      	ldr	r3, [r3, #0]
 800479a:	fba2 2303 	umull	r2, r3, r2, r3
 800479e:	099b      	lsrs	r3, r3, #6
           function <b>SysTick_Config</b> is not included. In this case, the file <b><i>device</i>.h</b>
           must contain a vendor-specific implementation of this function.
 */
__STATIC_INLINE uint32_t SysTick_Config(uint32_t ticks)
{
  if ((ticks - 1UL) > SysTick_LOAD_RELOAD_Msk)
 80047a0:	3b01      	subs	r3, #1
 80047a2:	f1b3 7f80 	cmp.w	r3, #16777216	; 0x1000000
 80047a6:	d300      	bcc.n	80047aa <systickInit+0x16>
 80047a8:	e7fe      	b.n	80047a8 <systickInit+0x14>
void systickInit(){
 80047aa:	b430      	push	{r4, r5}
    SCB->SHP[(((uint32_t)IRQn) & 0xFUL)-4UL] = (uint8_t)((priority << (8U - __NVIC_PRIO_BITS)) & (uint32_t)0xFFUL);
 80047ac:	25f0      	movs	r5, #240	; 0xf0
    return (1UL);                                                   /* Reload value impossible */
  }

  SysTick->LOAD  = (uint32_t)(ticks - 1UL);                         /* set reload register */
  NVIC_SetPriority (SysTick_IRQn, (1UL << __NVIC_PRIO_BITS) - 1UL); /* set Priority for Systick Interrupt */
  SysTick->VAL   = 0UL;                                             /* Load the SysTick Counter Value */
 80047ae:	2000      	movs	r0, #0
  SysTick->CTRL  = SysTick_CTRL_CLKSOURCE_Msk |
 80047b0:	2107      	movs	r1, #7
  SysTick->LOAD  = (uint32_t)(ticks - 1UL);                         /* set reload register */
 80047b2:	4a06      	ldr	r2, [pc, #24]	; (80047cc <systickInit+0x38>)
    SCB->SHP[(((uint32_t)IRQn) & 0xFUL)-4UL] = (uint8_t)((priority << (8U - __NVIC_PRIO_BITS)) & (uint32_t)0xFFUL);
 80047b4:	4c06      	ldr	r4, [pc, #24]	; (80047d0 <systickInit+0x3c>)
  SysTick->LOAD  = (uint32_t)(ticks - 1UL);                         /* set reload register */
 80047b6:	6053      	str	r3, [r2, #4]
    SCB->SHP[(((uint32_t)IRQn) & 0xFUL)-4UL] = (uint8_t)((priority << (8U - __NVIC_PRIO_BITS)) & (uint32_t)0xFFUL);
 80047b8:	f884 5023 	strb.w	r5, [r4, #35]	; 0x23
		   while (1){ /* Error in initializing Systick */ }
	   }
}
 80047bc:	bc30      	pop	{r4, r5}
  SysTick->VAL   = 0UL;                                             /* Load the SysTick Counter Value */
 80047be:	6090      	str	r0, [r2, #8]
  SysTick->CTRL  = SysTick_CTRL_CLKSOURCE_Msk |
 80047c0:	6011      	str	r1, [r2, #0]
 80047c2:	4770      	bx	lr
 80047c4:	20000038 	.word	0x20000038
 80047c8:	10624dd3 	.word	0x10624dd3
 80047cc:	e000e010 	.word	0xe000e010
 80047d0:	e000ed00 	.word	0xe000ed00

080047d4 <millis>:
/**
 * return milliseconds
 * @return time since systickInit in milliseconds
 */
uint32_t millis(){
	return ticks;
 80047d4:	4b01      	ldr	r3, [pc, #4]	; (80047dc <millis+0x8>)
 80047d6:	6818      	ldr	r0, [r3, #0]
}
 80047d8:	4770      	bx	lr
 80047da:	bf00      	nop
 80047dc:	200003c0 	.word	0x200003c0

080047e0 <delay>:
	return ticks;
 80047e0:	4a03      	ldr	r2, [pc, #12]	; (80047f0 <delay+0x10>)
 80047e2:	6811      	ldr	r1, [r2, #0]
 80047e4:	6813      	ldr	r3, [r2, #0]
 * delay milliseconds
 * @param ms milliseconds to delay
 */
void delay(uint32_t ms){
	uint32_t start = millis();
	while(millis() - start < ms){
 80047e6:	1a5b      	subs	r3, r3, r1
 80047e8:	4283      	cmp	r3, r0
 80047ea:	d3fb      	bcc.n	80047e4 <delay+0x4>
		//do nothing
	}
}
 80047ec:	4770      	bx	lr
 80047ee:	bf00      	nop
 80047f0:	200003c0 	.word	0x200003c0

080047f4 <systick_Inc>:
/**
 * add this function in stm32f1xx_it
 * called by the system to update systick accordingly
 */
void systick_Inc(void) {
  ticks++;
 80047f4:	4a02      	ldr	r2, [pc, #8]	; (8004800 <systick_Inc+0xc>)
 80047f6:	6813      	ldr	r3, [r2, #0]
 80047f8:	3301      	adds	r3, #1
 80047fa:	6013      	str	r3, [r2, #0]
}
 80047fc:	4770      	bx	lr
 80047fe:	bf00      	nop
 8004800:	200003c0 	.word	0x200003c0

08004804 <HAL_InitTick>:
  *       implementation  in user file.
  * @param TickPriority Tick interrupt priority.
  * @retval HAL status
  */
__weak HAL_StatusTypeDef HAL_InitTick(uint32_t TickPriority)
{
 8004804:	b538      	push	{r3, r4, r5, lr}
  /* Configure the SysTick to have interrupt in 1ms time basis*/
  if (HAL_SYSTICK_Config(SystemCoreClock / (1000U / uwTickFreq)) > 0U)
 8004806:	f44f 737a 	mov.w	r3, #1000	; 0x3e8
 800480a:	490d      	ldr	r1, [pc, #52]	; (8004840 <HAL_InitTick+0x3c>)
 800480c:	4a0d      	ldr	r2, [pc, #52]	; (8004844 <HAL_InitTick+0x40>)
 800480e:	7809      	ldrb	r1, [r1, #0]
 8004810:	6812      	ldr	r2, [r2, #0]
 8004812:	fbb3 f3f1 	udiv	r3, r3, r1
{
 8004816:	4605      	mov	r5, r0
  if (HAL_SYSTICK_Config(SystemCoreClock / (1000U / uwTickFreq)) > 0U)
 8004818:	fbb2 f0f3 	udiv	r0, r2, r3
 800481c:	f000 f8a2 	bl	8004964 <HAL_SYSTICK_Config>
 8004820:	b908      	cbnz	r0, 8004826 <HAL_InitTick+0x22>
  {
    return HAL_ERROR;
  }

  /* Configure the SysTick IRQ priority */
  if (TickPriority < (1UL << __NVIC_PRIO_BITS))
 8004822:	2d0f      	cmp	r5, #15
 8004824:	d901      	bls.n	800482a <HAL_InitTick+0x26>
    return HAL_ERROR;
 8004826:	2001      	movs	r0, #1
    return HAL_ERROR;
  }

  /* Return function status */
  return HAL_OK;
}
 8004828:	bd38      	pop	{r3, r4, r5, pc}
 800482a:	4604      	mov	r4, r0
    HAL_NVIC_SetPriority(SysTick_IRQn, TickPriority, 0U);
 800482c:	4602      	mov	r2, r0
 800482e:	4629      	mov	r1, r5
 8004830:	f04f 30ff 	mov.w	r0, #4294967295
 8004834:	f000 f852 	bl	80048dc <HAL_NVIC_SetPriority>
    uwTickPrio = TickPriority;
 8004838:	4b03      	ldr	r3, [pc, #12]	; (8004848 <HAL_InitTick+0x44>)
 800483a:	4620      	mov	r0, r4
 800483c:	601d      	str	r5, [r3, #0]
}
 800483e:	bd38      	pop	{r3, r4, r5, pc}
 8004840:	2000003d 	.word	0x2000003d
 8004844:	20000038 	.word	0x20000038
 8004848:	20000040 	.word	0x20000040

0800484c <HAL_Init>:
  __HAL_FLASH_PREFETCH_BUFFER_ENABLE();
 800484c:	4a07      	ldr	r2, [pc, #28]	; (800486c <HAL_Init+0x20>)
{
 800484e:	b508      	push	{r3, lr}
  __HAL_FLASH_PREFETCH_BUFFER_ENABLE();
 8004850:	6813      	ldr	r3, [r2, #0]
  HAL_NVIC_SetPriorityGrouping(NVIC_PRIORITYGROUP_4);
 8004852:	2003      	movs	r0, #3
  __HAL_FLASH_PREFETCH_BUFFER_ENABLE();
 8004854:	f043 0310 	orr.w	r3, r3, #16
 8004858:	6013      	str	r3, [r2, #0]
  HAL_NVIC_SetPriorityGrouping(NVIC_PRIORITYGROUP_4);
 800485a:	f000 f82d 	bl	80048b8 <HAL_NVIC_SetPriorityGrouping>
  HAL_InitTick(TICK_INT_PRIORITY);
 800485e:	2000      	movs	r0, #0
 8004860:	f7ff ffd0 	bl	8004804 <HAL_InitTick>
  HAL_MspInit();
 8004864:	f7fe f80c 	bl	8002880 <HAL_MspInit>
}
 8004868:	2000      	movs	r0, #0
 800486a:	bd08      	pop	{r3, pc}
 800486c:	40022000 	.word	0x40022000

08004870 <HAL_IncTick>:
  *      implementations in user file.
  * @retval None
  */
__weak void HAL_IncTick(void)
{
  uwTick += uwTickFreq;
 8004870:	4a03      	ldr	r2, [pc, #12]	; (8004880 <HAL_IncTick+0x10>)
 8004872:	4b04      	ldr	r3, [pc, #16]	; (8004884 <HAL_IncTick+0x14>)
 8004874:	6811      	ldr	r1, [r2, #0]
 8004876:	781b      	ldrb	r3, [r3, #0]
 8004878:	440b      	add	r3, r1
 800487a:	6013      	str	r3, [r2, #0]
}
 800487c:	4770      	bx	lr
 800487e:	bf00      	nop
 8004880:	20000d28 	.word	0x20000d28
 8004884:	2000003d 	.word	0x2000003d

08004888 <HAL_GetTick>:
  *       implementations in user file.
  * @retval tick value
  */
__weak uint32_t HAL_GetTick(void)
{
  return uwTick;
 8004888:	4b01      	ldr	r3, [pc, #4]	; (8004890 <HAL_GetTick+0x8>)
 800488a:	6818      	ldr	r0, [r3, #0]
}
 800488c:	4770      	bx	lr
 800488e:	bf00      	nop
 8004890:	20000d28 	.word	0x20000d28

08004894 <HAL_Delay>:
  *       implementations in user file.
  * @param Delay specifies the delay time length, in milliseconds.
  * @retval None
  */
__weak void HAL_Delay(uint32_t Delay)
{
 8004894:	b538      	push	{r3, r4, r5, lr}
 8004896:	4604      	mov	r4, r0
  uint32_t tickstart = HAL_GetTick();
 8004898:	f7ff fff6 	bl	8004888 <HAL_GetTick>
  uint32_t wait = Delay;

  /* Add a freq to guarantee minimum wait */
  if (wait < HAL_MAX_DELAY)
 800489c:	1c63      	adds	r3, r4, #1
  uint32_t tickstart = HAL_GetTick();
 800489e:	4605      	mov	r5, r0
  if (wait < HAL_MAX_DELAY)
 80048a0:	d002      	beq.n	80048a8 <HAL_Delay+0x14>
  {
    wait += (uint32_t)(uwTickFreq);
 80048a2:	4b04      	ldr	r3, [pc, #16]	; (80048b4 <HAL_Delay+0x20>)
 80048a4:	781b      	ldrb	r3, [r3, #0]
 80048a6:	441c      	add	r4, r3
  }

  while ((HAL_GetTick() - tickstart) < wait)
 80048a8:	f7ff ffee 	bl	8004888 <HAL_GetTick>
 80048ac:	1b40      	subs	r0, r0, r5
 80048ae:	42a0      	cmp	r0, r4
 80048b0:	d3fa      	bcc.n	80048a8 <HAL_Delay+0x14>
  {
  }
}
 80048b2:	bd38      	pop	{r3, r4, r5, pc}
 80048b4:	2000003d 	.word	0x2000003d

080048b8 <HAL_NVIC_SetPriorityGrouping>:
  reg_value &= ~((uint32_t)(SCB_AIRCR_VECTKEY_Msk | SCB_AIRCR_PRIGROUP_Msk)); /* clear bits to change               */
 80048b8:	f64f 01ff 	movw	r1, #63743	; 0xf8ff
  reg_value  =  SCB->AIRCR;                                                   /* read old register configuration    */
 80048bc:	4a06      	ldr	r2, [pc, #24]	; (80048d8 <HAL_NVIC_SetPriorityGrouping+0x20>)
                (PriorityGroupTmp << SCB_AIRCR_PRIGROUP_Pos) );               /* Insert write key and priority group */
 80048be:	0200      	lsls	r0, r0, #8
  reg_value  =  SCB->AIRCR;                                                   /* read old register configuration    */
 80048c0:	68d3      	ldr	r3, [r2, #12]
                (PriorityGroupTmp << SCB_AIRCR_PRIGROUP_Pos) );               /* Insert write key and priority group */
 80048c2:	f400 60e0 	and.w	r0, r0, #1792	; 0x700
  reg_value &= ~((uint32_t)(SCB_AIRCR_VECTKEY_Msk | SCB_AIRCR_PRIGROUP_Msk)); /* clear bits to change               */
 80048c6:	400b      	ands	r3, r1
 80048c8:	f043 63bf 	orr.w	r3, r3, #100139008	; 0x5f80000
 80048cc:	f443 3300 	orr.w	r3, r3, #131072	; 0x20000
  reg_value  =  (reg_value                                   |
 80048d0:	4303      	orrs	r3, r0
  SCB->AIRCR =  reg_value;
 80048d2:	60d3      	str	r3, [r2, #12]
  /* Check the parameters */
  assert_param(IS_NVIC_PRIORITY_GROUP(PriorityGroup));
  
  /* Set the PRIGROUP[10:8] bits according to the PriorityGroup parameter value */
  NVIC_SetPriorityGrouping(PriorityGroup);
}
 80048d4:	4770      	bx	lr
 80048d6:	bf00      	nop
 80048d8:	e000ed00 	.word	0xe000ed00

080048dc <HAL_NVIC_SetPriority>:
  return ((uint32_t)((SCB->AIRCR & SCB_AIRCR_PRIGROUP_Msk) >> SCB_AIRCR_PRIGROUP_Pos));
 80048dc:	4b18      	ldr	r3, [pc, #96]	; (8004940 <HAL_NVIC_SetPriority+0x64>)
  *         This parameter can be a value between 0 and 15
  *         A lower priority value indicates a higher priority.          
  * @retval None
  */
void HAL_NVIC_SetPriority(IRQn_Type IRQn, uint32_t PreemptPriority, uint32_t SubPriority)
{ 
 80048de:	b430      	push	{r4, r5}
 80048e0:	68db      	ldr	r3, [r3, #12]
 80048e2:	f3c3 2302 	ubfx	r3, r3, #8, #3
  PreemptPriorityBits = ((7UL - PriorityGroupTmp) > (uint32_t)(__NVIC_PRIO_BITS)) ? (uint32_t)(__NVIC_PRIO_BITS) : (uint32_t)(7UL - PriorityGroupTmp);
 80048e6:	f1c3 0507 	rsb	r5, r3, #7
 80048ea:	2d04      	cmp	r5, #4
  SubPriorityBits     = ((PriorityGroupTmp + (uint32_t)(__NVIC_PRIO_BITS)) < (uint32_t)7UL) ? (uint32_t)0UL : (uint32_t)((PriorityGroupTmp - 7UL) + (uint32_t)(__NVIC_PRIO_BITS));
 80048ec:	f103 0404 	add.w	r4, r3, #4
  PreemptPriorityBits = ((7UL - PriorityGroupTmp) > (uint32_t)(__NVIC_PRIO_BITS)) ? (uint32_t)(__NVIC_PRIO_BITS) : (uint32_t)(7UL - PriorityGroupTmp);
 80048f0:	bf28      	it	cs
 80048f2:	2504      	movcs	r5, #4
  SubPriorityBits     = ((PriorityGroupTmp + (uint32_t)(__NVIC_PRIO_BITS)) < (uint32_t)7UL) ? (uint32_t)0UL : (uint32_t)((PriorityGroupTmp - 7UL) + (uint32_t)(__NVIC_PRIO_BITS));
 80048f4:	2c06      	cmp	r4, #6
 80048f6:	d919      	bls.n	800492c <HAL_NVIC_SetPriority+0x50>
 80048f8:	f04f 34ff 	mov.w	r4, #4294967295
 80048fc:	3b03      	subs	r3, #3
 80048fe:	409c      	lsls	r4, r3
 8004900:	ea22 0404 	bic.w	r4, r2, r4
           ((PreemptPriority & (uint32_t)((1UL << (PreemptPriorityBits)) - 1UL)) << SubPriorityBits) |
 8004904:	f04f 32ff 	mov.w	r2, #4294967295
 8004908:	40aa      	lsls	r2, r5
 800490a:	ea21 0102 	bic.w	r1, r1, r2
 800490e:	fa01 f203 	lsl.w	r2, r1, r3
 8004912:	4322      	orrs	r2, r4
 8004914:	0112      	lsls	r2, r2, #4
  if ((int32_t)(IRQn) >= 0)
 8004916:	2800      	cmp	r0, #0
 8004918:	b2d2      	uxtb	r2, r2
 800491a:	db0a      	blt.n	8004932 <HAL_NVIC_SetPriority+0x56>
    NVIC->IP[((uint32_t)IRQn)]               = (uint8_t)((priority << (8U - __NVIC_PRIO_BITS)) & (uint32_t)0xFFUL);
 800491c:	f100 4060 	add.w	r0, r0, #3758096384	; 0xe0000000
 8004920:	f500 4061 	add.w	r0, r0, #57600	; 0xe100
 8004924:	f880 2300 	strb.w	r2, [r0, #768]	; 0x300
  assert_param(IS_NVIC_PREEMPTION_PRIORITY(PreemptPriority));
  
  prioritygroup = NVIC_GetPriorityGrouping();
  
  NVIC_SetPriority(IRQn, NVIC_EncodePriority(prioritygroup, PreemptPriority, SubPriority));
}
 8004928:	bc30      	pop	{r4, r5}
 800492a:	4770      	bx	lr
  SubPriorityBits     = ((PriorityGroupTmp + (uint32_t)(__NVIC_PRIO_BITS)) < (uint32_t)7UL) ? (uint32_t)0UL : (uint32_t)((PriorityGroupTmp - 7UL) + (uint32_t)(__NVIC_PRIO_BITS));
 800492c:	2400      	movs	r4, #0
 800492e:	4623      	mov	r3, r4
 8004930:	e7e8      	b.n	8004904 <HAL_NVIC_SetPriority+0x28>
    SCB->SHP[(((uint32_t)IRQn) & 0xFUL)-4UL] = (uint8_t)((priority << (8U - __NVIC_PRIO_BITS)) & (uint32_t)0xFFUL);
 8004932:	4b04      	ldr	r3, [pc, #16]	; (8004944 <HAL_NVIC_SetPriority+0x68>)
 8004934:	f000 000f 	and.w	r0, r0, #15
 8004938:	4403      	add	r3, r0
 800493a:	761a      	strb	r2, [r3, #24]
 800493c:	bc30      	pop	{r4, r5}
 800493e:	4770      	bx	lr
 8004940:	e000ed00 	.word	0xe000ed00
 8004944:	e000ecfc 	.word	0xe000ecfc

08004948 <HAL_NVIC_EnableIRQ>:
  if ((int32_t)(IRQn) >= 0)
 8004948:	2800      	cmp	r0, #0
 800494a:	db07      	blt.n	800495c <HAL_NVIC_EnableIRQ+0x14>
    NVIC->ISER[(((uint32_t)IRQn) >> 5UL)] = (uint32_t)(1UL << (((uint32_t)IRQn) & 0x1FUL));
 800494c:	2301      	movs	r3, #1
 800494e:	f000 011f 	and.w	r1, r0, #31
 8004952:	4a03      	ldr	r2, [pc, #12]	; (8004960 <HAL_NVIC_EnableIRQ+0x18>)
 8004954:	408b      	lsls	r3, r1
 8004956:	0940      	lsrs	r0, r0, #5
 8004958:	f842 3020 	str.w	r3, [r2, r0, lsl #2]
  /* Check the parameters */
  assert_param(IS_NVIC_DEVICE_IRQ(IRQn));

  /* Enable interrupt */
  NVIC_EnableIRQ(IRQn);
}
 800495c:	4770      	bx	lr
 800495e:	bf00      	nop
 8004960:	e000e100 	.word	0xe000e100

08004964 <HAL_SYSTICK_Config>:
  if ((ticks - 1UL) > SysTick_LOAD_RELOAD_Msk)
 8004964:	3801      	subs	r0, #1
 8004966:	f1b0 7f80 	cmp.w	r0, #16777216	; 0x1000000
 800496a:	d20d      	bcs.n	8004988 <HAL_SYSTICK_Config+0x24>
  * @param  TicksNumb: Specifies the ticks Number of ticks between two interrupts.
  * @retval status:  - 0  Function succeeded.
  *                  - 1  Function failed.
  */
uint32_t HAL_SYSTICK_Config(uint32_t TicksNumb)
{
 800496c:	b430      	push	{r4, r5}
    SCB->SHP[(((uint32_t)IRQn) & 0xFUL)-4UL] = (uint8_t)((priority << (8U - __NVIC_PRIO_BITS)) & (uint32_t)0xFFUL);
 800496e:	25f0      	movs	r5, #240	; 0xf0
  SysTick->VAL   = 0UL;                                             /* Load the SysTick Counter Value */
 8004970:	2200      	movs	r2, #0
  SysTick->CTRL  = SysTick_CTRL_CLKSOURCE_Msk |
 8004972:	2107      	movs	r1, #7
  SysTick->LOAD  = (uint32_t)(ticks - 1UL);                         /* set reload register */
 8004974:	4b05      	ldr	r3, [pc, #20]	; (800498c <HAL_SYSTICK_Config+0x28>)
    SCB->SHP[(((uint32_t)IRQn) & 0xFUL)-4UL] = (uint8_t)((priority << (8U - __NVIC_PRIO_BITS)) & (uint32_t)0xFFUL);
 8004976:	4c06      	ldr	r4, [pc, #24]	; (8004990 <HAL_SYSTICK_Config+0x2c>)
  SysTick->LOAD  = (uint32_t)(ticks - 1UL);                         /* set reload register */
 8004978:	6058      	str	r0, [r3, #4]
    SCB->SHP[(((uint32_t)IRQn) & 0xFUL)-4UL] = (uint8_t)((priority << (8U - __NVIC_PRIO_BITS)) & (uint32_t)0xFFUL);
 800497a:	f884 5023 	strb.w	r5, [r4, #35]	; 0x23
                   SysTick_CTRL_TICKINT_Msk   |
                   SysTick_CTRL_ENABLE_Msk;                         /* Enable SysTick IRQ and SysTick Timer */
  return (0UL);                                                     /* Function successful */
 800497e:	4610      	mov	r0, r2
   return SysTick_Config(TicksNumb);
}
 8004980:	bc30      	pop	{r4, r5}
  SysTick->VAL   = 0UL;                                             /* Load the SysTick Counter Value */
 8004982:	609a      	str	r2, [r3, #8]
  SysTick->CTRL  = SysTick_CTRL_CLKSOURCE_Msk |
 8004984:	6019      	str	r1, [r3, #0]
 8004986:	4770      	bx	lr
    return (1UL);                                                   /* Reload value impossible */
 8004988:	2001      	movs	r0, #1
 800498a:	4770      	bx	lr
 800498c:	e000e010 	.word	0xe000e010
 8004990:	e000ed00 	.word	0xe000ed00

08004994 <HAL_DMA_Init>:
HAL_StatusTypeDef HAL_DMA_Init(DMA_HandleTypeDef *hdma)
{
  uint32_t tmp = 0U;

  /* Check the DMA handle allocation */
  if(hdma == NULL)
 8004994:	b350      	cbz	r0, 80049ec <HAL_DMA_Init+0x58>
 8004996:	4602      	mov	r2, r0
{
 8004998:	b4f0      	push	{r4, r5, r6, r7}
  tmp &= ((uint32_t)~(DMA_CCR_PL    | DMA_CCR_MSIZE  | DMA_CCR_PSIZE  | \
                      DMA_CCR_MINC  | DMA_CCR_PINC   | DMA_CCR_CIRC   | \
                      DMA_CCR_DIR));

  /* Prepare the DMA Channel configuration */
  tmp |=  hdma->Init.Direction        |
 800499a:	e9d0 3601 	ldrd	r3, r6, [r0, #4]

  /* Write to DMA Channel CR register */
  hdma->Instance->CCR = tmp;

  /* Initialise the error code */
  hdma->ErrorCode = HAL_DMA_ERROR_NONE;
 800499e:	2400      	movs	r4, #0

  /* Initialize the DMA state*/
  hdma->State = HAL_DMA_STATE_READY;
 80049a0:	2501      	movs	r5, #1
  tmp |=  hdma->Init.Direction        |
 80049a2:	4333      	orrs	r3, r6
          hdma->Init.PeriphInc           | hdma->Init.MemInc           |
 80049a4:	68d6      	ldr	r6, [r2, #12]
  hdma->ChannelIndex = (((uint32_t)hdma->Instance - (uint32_t)DMA1_Channel1) / ((uint32_t)DMA1_Channel2 - (uint32_t)DMA1_Channel1)) << 2;
 80049a6:	6800      	ldr	r0, [r0, #0]
          hdma->Init.PeriphInc           | hdma->Init.MemInc           |
 80049a8:	4333      	orrs	r3, r6
  hdma->ChannelIndex = (((uint32_t)hdma->Instance - (uint32_t)DMA1_Channel1) / ((uint32_t)DMA1_Channel2 - (uint32_t)DMA1_Channel1)) << 2;
 80049aa:	4911      	ldr	r1, [pc, #68]	; (80049f0 <HAL_DMA_Init+0x5c>)
          hdma->Init.PeriphInc           | hdma->Init.MemInc           |
 80049ac:	6916      	ldr	r6, [r2, #16]
  hdma->ChannelIndex = (((uint32_t)hdma->Instance - (uint32_t)DMA1_Channel1) / ((uint32_t)DMA1_Channel2 - (uint32_t)DMA1_Channel1)) << 2;
 80049ae:	4f11      	ldr	r7, [pc, #68]	; (80049f4 <HAL_DMA_Init+0x60>)
 80049b0:	4401      	add	r1, r0
          hdma->Init.PeriphInc           | hdma->Init.MemInc           |
 80049b2:	4333      	orrs	r3, r6
          hdma->Init.PeriphDataAlignment | hdma->Init.MemDataAlignment |
 80049b4:	6956      	ldr	r6, [r2, #20]
  hdma->ChannelIndex = (((uint32_t)hdma->Instance - (uint32_t)DMA1_Channel1) / ((uint32_t)DMA1_Channel2 - (uint32_t)DMA1_Channel1)) << 2;
 80049b6:	fba7 7101 	umull	r7, r1, r7, r1
          hdma->Init.PeriphDataAlignment | hdma->Init.MemDataAlignment |
 80049ba:	4333      	orrs	r3, r6
 80049bc:	6996      	ldr	r6, [r2, #24]
          hdma->Init.Mode                | hdma->Init.Priority;
 80049be:	69d7      	ldr	r7, [r2, #28]
          hdma->Init.PeriphDataAlignment | hdma->Init.MemDataAlignment |
 80049c0:	4333      	orrs	r3, r6
  tmp = hdma->Instance->CCR;
 80049c2:	6806      	ldr	r6, [r0, #0]
  hdma->ChannelIndex = (((uint32_t)hdma->Instance - (uint32_t)DMA1_Channel1) / ((uint32_t)DMA1_Channel2 - (uint32_t)DMA1_Channel1)) << 2;
 80049c4:	0909      	lsrs	r1, r1, #4
 80049c6:	0089      	lsls	r1, r1, #2
  tmp &= ((uint32_t)~(DMA_CCR_PL    | DMA_CCR_MSIZE  | DMA_CCR_PSIZE  | \
 80049c8:	f426 567f 	bic.w	r6, r6, #16320	; 0x3fc0
          hdma->Init.Mode                | hdma->Init.Priority;
 80049cc:	433b      	orrs	r3, r7
  tmp &= ((uint32_t)~(DMA_CCR_PL    | DMA_CCR_MSIZE  | DMA_CCR_PSIZE  | \
 80049ce:	f026 0630 	bic.w	r6, r6, #48	; 0x30
  hdma->ChannelIndex = (((uint32_t)hdma->Instance - (uint32_t)DMA1_Channel1) / ((uint32_t)DMA1_Channel2 - (uint32_t)DMA1_Channel1)) << 2;
 80049d2:	6411      	str	r1, [r2, #64]	; 0x40
  hdma->DmaBaseAddress = DMA1;
 80049d4:	4908      	ldr	r1, [pc, #32]	; (80049f8 <HAL_DMA_Init+0x64>)
  tmp |=  hdma->Init.Direction        |
 80049d6:	4333      	orrs	r3, r6
  hdma->DmaBaseAddress = DMA1;
 80049d8:	63d1      	str	r1, [r2, #60]	; 0x3c
  hdma->Instance->CCR = tmp;
 80049da:	6003      	str	r3, [r0, #0]
  /* Allocate lock resource and initialize it */
  hdma->Lock = HAL_UNLOCKED;

  return HAL_OK;
 80049dc:	4620      	mov	r0, r4
  hdma->ErrorCode = HAL_DMA_ERROR_NONE;
 80049de:	6394      	str	r4, [r2, #56]	; 0x38
  hdma->Lock = HAL_UNLOCKED;
 80049e0:	f882 4020 	strb.w	r4, [r2, #32]
  hdma->State = HAL_DMA_STATE_READY;
 80049e4:	f882 5021 	strb.w	r5, [r2, #33]	; 0x21
}
 80049e8:	bcf0      	pop	{r4, r5, r6, r7}
 80049ea:	4770      	bx	lr
    return HAL_ERROR;
 80049ec:	2001      	movs	r0, #1
}
 80049ee:	4770      	bx	lr
 80049f0:	bffdfff8 	.word	0xbffdfff8
 80049f4:	cccccccd 	.word	0xcccccccd
 80049f8:	40020000 	.word	0x40020000

080049fc <HAL_DMA_Start_IT>:
  * @param  DstAddress: The destination memory Buffer address
  * @param  DataLength: The length of data to be transferred from source to destination
  * @retval HAL status
  */
HAL_StatusTypeDef HAL_DMA_Start_IT(DMA_HandleTypeDef *hdma, uint32_t SrcAddress, uint32_t DstAddress, uint32_t DataLength)
{
 80049fc:	b5f0      	push	{r4, r5, r6, r7, lr}

  /* Check the parameters */
  assert_param(IS_DMA_BUFFER_SIZE(DataLength));

  /* Process locked */
  __HAL_LOCK(hdma);
 80049fe:	f890 4020 	ldrb.w	r4, [r0, #32]
 8004a02:	2c01      	cmp	r4, #1
 8004a04:	d032      	beq.n	8004a6c <HAL_DMA_Start_IT+0x70>
 8004a06:	2401      	movs	r4, #1
  
  if(HAL_DMA_STATE_READY == hdma->State)
 8004a08:	f890 5021 	ldrb.w	r5, [r0, #33]	; 0x21
  __HAL_LOCK(hdma);
 8004a0c:	f880 4020 	strb.w	r4, [r0, #32]
  if(HAL_DMA_STATE_READY == hdma->State)
 8004a10:	42a5      	cmp	r5, r4
 8004a12:	d125      	bne.n	8004a60 <HAL_DMA_Start_IT+0x64>
  {
    /* Change DMA peripheral state */
    hdma->State = HAL_DMA_STATE_BUSY;
    hdma->ErrorCode = HAL_DMA_ERROR_NONE;
 8004a14:	2600      	movs	r6, #0
    hdma->State = HAL_DMA_STATE_BUSY;
 8004a16:	f04f 0e02 	mov.w	lr, #2
    
    /* Disable the peripheral */
    __HAL_DMA_DISABLE(hdma);
 8004a1a:	6804      	ldr	r4, [r0, #0]
    hdma->ErrorCode = HAL_DMA_ERROR_NONE;
 8004a1c:	6386      	str	r6, [r0, #56]	; 0x38
    __HAL_DMA_DISABLE(hdma);
 8004a1e:	6826      	ldr	r6, [r4, #0]
  * @retval HAL status
  */
static void DMA_SetConfig(DMA_HandleTypeDef *hdma, uint32_t SrcAddress, uint32_t DstAddress, uint32_t DataLength)
{
  /* Clear all flags */
  hdma->DmaBaseAddress->IFCR = (DMA_ISR_GIF1 << hdma->ChannelIndex);
 8004a20:	6c07      	ldr	r7, [r0, #64]	; 0x40
 8004a22:	f8d0 c03c 	ldr.w	ip, [r0, #60]	; 0x3c
 8004a26:	40bd      	lsls	r5, r7
    __HAL_DMA_DISABLE(hdma);
 8004a28:	f026 0601 	bic.w	r6, r6, #1

  /* Configure DMA Channel data length */
  hdma->Instance->CNDTR = DataLength;

  /* Memory to Peripheral */
  if((hdma->Init.Direction) == DMA_MEMORY_TO_PERIPH)
 8004a2c:	6847      	ldr	r7, [r0, #4]
    hdma->State = HAL_DMA_STATE_BUSY;
 8004a2e:	f880 e021 	strb.w	lr, [r0, #33]	; 0x21
    __HAL_DMA_DISABLE(hdma);
 8004a32:	6026      	str	r6, [r4, #0]
  hdma->DmaBaseAddress->IFCR = (DMA_ISR_GIF1 << hdma->ChannelIndex);
 8004a34:	f8cc 5004 	str.w	r5, [ip, #4]
  hdma->Instance->CNDTR = DataLength;
 8004a38:	6063      	str	r3, [r4, #4]
    if(NULL != hdma->XferHalfCpltCallback)
 8004a3a:	6ac3      	ldr	r3, [r0, #44]	; 0x2c
  if((hdma->Init.Direction) == DMA_MEMORY_TO_PERIPH)
 8004a3c:	2f10      	cmp	r7, #16
  {
    /* Configure DMA Channel destination address */
    hdma->Instance->CPAR = DstAddress;
 8004a3e:	bf0b      	itete	eq
 8004a40:	60a2      	streq	r2, [r4, #8]
  }
  /* Peripheral to Memory */
  else
  {
    /* Configure DMA Channel source address */
    hdma->Instance->CPAR = SrcAddress;
 8004a42:	60a1      	strne	r1, [r4, #8]
    hdma->Instance->CMAR = SrcAddress;
 8004a44:	60e1      	streq	r1, [r4, #12]

    /* Configure DMA Channel destination address */
    hdma->Instance->CMAR = DstAddress;
 8004a46:	60e2      	strne	r2, [r4, #12]
    if(NULL != hdma->XferHalfCpltCallback)
 8004a48:	b19b      	cbz	r3, 8004a72 <HAL_DMA_Start_IT+0x76>
      __HAL_DMA_ENABLE_IT(hdma, (DMA_IT_TC | DMA_IT_HT | DMA_IT_TE));
 8004a4a:	6823      	ldr	r3, [r4, #0]
 8004a4c:	f043 030e 	orr.w	r3, r3, #14
 8004a50:	6023      	str	r3, [r4, #0]
  HAL_StatusTypeDef status = HAL_OK;
 8004a52:	2300      	movs	r3, #0
    __HAL_DMA_ENABLE(hdma);
 8004a54:	6822      	ldr	r2, [r4, #0]
}
 8004a56:	4618      	mov	r0, r3
    __HAL_DMA_ENABLE(hdma);
 8004a58:	f042 0201 	orr.w	r2, r2, #1
 8004a5c:	6022      	str	r2, [r4, #0]
}
 8004a5e:	bdf0      	pop	{r4, r5, r6, r7, pc}
    __HAL_UNLOCK(hdma); 
 8004a60:	2200      	movs	r2, #0
    status = HAL_BUSY;
 8004a62:	2302      	movs	r3, #2
    __HAL_UNLOCK(hdma); 
 8004a64:	f880 2020 	strb.w	r2, [r0, #32]
}
 8004a68:	4618      	mov	r0, r3
 8004a6a:	bdf0      	pop	{r4, r5, r6, r7, pc}
  __HAL_LOCK(hdma);
 8004a6c:	2302      	movs	r3, #2
}
 8004a6e:	4618      	mov	r0, r3
 8004a70:	bdf0      	pop	{r4, r5, r6, r7, pc}
      __HAL_DMA_DISABLE_IT(hdma, DMA_IT_HT);
 8004a72:	6823      	ldr	r3, [r4, #0]
 8004a74:	f023 0304 	bic.w	r3, r3, #4
 8004a78:	6023      	str	r3, [r4, #0]
      __HAL_DMA_ENABLE_IT(hdma, (DMA_IT_TC | DMA_IT_TE));
 8004a7a:	6823      	ldr	r3, [r4, #0]
 8004a7c:	f043 030a 	orr.w	r3, r3, #10
 8004a80:	6023      	str	r3, [r4, #0]
 8004a82:	e7e6      	b.n	8004a52 <HAL_DMA_Start_IT+0x56>

08004a84 <HAL_DMA_IRQHandler>:
  if (((flag_it & (DMA_FLAG_HT1 << hdma->ChannelIndex)) != RESET) && ((source_it & DMA_IT_HT) != RESET))
 8004a84:	2204      	movs	r2, #4
{
 8004a86:	b470      	push	{r4, r5, r6}
  if (((flag_it & (DMA_FLAG_HT1 << hdma->ChannelIndex)) != RESET) && ((source_it & DMA_IT_HT) != RESET))
 8004a88:	e9d0 610f 	ldrd	r6, r1, [r0, #60]	; 0x3c
  uint32_t flag_it = hdma->DmaBaseAddress->ISR;
 8004a8c:	6834      	ldr	r4, [r6, #0]
  uint32_t source_it = hdma->Instance->CCR;
 8004a8e:	6803      	ldr	r3, [r0, #0]
  if (((flag_it & (DMA_FLAG_HT1 << hdma->ChannelIndex)) != RESET) && ((source_it & DMA_IT_HT) != RESET))
 8004a90:	408a      	lsls	r2, r1
 8004a92:	4222      	tst	r2, r4
  uint32_t source_it = hdma->Instance->CCR;
 8004a94:	681d      	ldr	r5, [r3, #0]
  if (((flag_it & (DMA_FLAG_HT1 << hdma->ChannelIndex)) != RESET) && ((source_it & DMA_IT_HT) != RESET))
 8004a96:	d01f      	beq.n	8004ad8 <HAL_DMA_IRQHandler+0x54>
 8004a98:	076a      	lsls	r2, r5, #29
 8004a9a:	d51d      	bpl.n	8004ad8 <HAL_DMA_IRQHandler+0x54>
    if((hdma->Instance->CCR & DMA_CCR_CIRC) == 0U)
 8004a9c:	681a      	ldr	r2, [r3, #0]
 8004a9e:	0691      	lsls	r1, r2, #26
 8004aa0:	d403      	bmi.n	8004aaa <HAL_DMA_IRQHandler+0x26>
      __HAL_DMA_DISABLE_IT(hdma, DMA_IT_HT);
 8004aa2:	681a      	ldr	r2, [r3, #0]
 8004aa4:	f022 0204 	bic.w	r2, r2, #4
 8004aa8:	601a      	str	r2, [r3, #0]
    __HAL_DMA_CLEAR_FLAG(hdma, __HAL_DMA_GET_HT_FLAG_INDEX(hdma));
 8004aaa:	4a3f      	ldr	r2, [pc, #252]	; (8004ba8 <HAL_DMA_IRQHandler+0x124>)
 8004aac:	4293      	cmp	r3, r2
 8004aae:	d05c      	beq.n	8004b6a <HAL_DMA_IRQHandler+0xe6>
 8004ab0:	3214      	adds	r2, #20
 8004ab2:	4293      	cmp	r3, r2
 8004ab4:	d061      	beq.n	8004b7a <HAL_DMA_IRQHandler+0xf6>
 8004ab6:	3214      	adds	r2, #20
 8004ab8:	4293      	cmp	r3, r2
 8004aba:	d068      	beq.n	8004b8e <HAL_DMA_IRQHandler+0x10a>
 8004abc:	3214      	adds	r2, #20
 8004abe:	4293      	cmp	r3, r2
 8004ac0:	d06b      	beq.n	8004b9a <HAL_DMA_IRQHandler+0x116>
 8004ac2:	3214      	adds	r2, #20
 8004ac4:	4293      	cmp	r3, r2
 8004ac6:	d05d      	beq.n	8004b84 <HAL_DMA_IRQHandler+0x100>
 8004ac8:	3214      	adds	r2, #20
 8004aca:	4293      	cmp	r3, r2
 8004acc:	bf0c      	ite	eq
 8004ace:	f44f 0380 	moveq.w	r3, #4194304	; 0x400000
 8004ad2:	f04f 6380 	movne.w	r3, #67108864	; 0x4000000
 8004ad6:	e049      	b.n	8004b6c <HAL_DMA_IRQHandler+0xe8>
  else if (((flag_it & (DMA_FLAG_TC1 << hdma->ChannelIndex)) != RESET) && ((source_it & DMA_IT_TC) != RESET))
 8004ad8:	2202      	movs	r2, #2
 8004ada:	408a      	lsls	r2, r1
 8004adc:	4222      	tst	r2, r4
 8004ade:	d022      	beq.n	8004b26 <HAL_DMA_IRQHandler+0xa2>
 8004ae0:	07aa      	lsls	r2, r5, #30
 8004ae2:	d520      	bpl.n	8004b26 <HAL_DMA_IRQHandler+0xa2>
    if((hdma->Instance->CCR & DMA_CCR_CIRC) == 0U)
 8004ae4:	681a      	ldr	r2, [r3, #0]
 8004ae6:	0691      	lsls	r1, r2, #26
 8004ae8:	d406      	bmi.n	8004af8 <HAL_DMA_IRQHandler+0x74>
      hdma->State = HAL_DMA_STATE_READY;
 8004aea:	2101      	movs	r1, #1
      __HAL_DMA_DISABLE_IT(hdma, DMA_IT_TE | DMA_IT_TC);  
 8004aec:	681a      	ldr	r2, [r3, #0]
 8004aee:	f022 020a 	bic.w	r2, r2, #10
 8004af2:	601a      	str	r2, [r3, #0]
      hdma->State = HAL_DMA_STATE_READY;
 8004af4:	f880 1021 	strb.w	r1, [r0, #33]	; 0x21
      __HAL_DMA_CLEAR_FLAG(hdma, __HAL_DMA_GET_TC_FLAG_INDEX(hdma));
 8004af8:	4a2b      	ldr	r2, [pc, #172]	; (8004ba8 <HAL_DMA_IRQHandler+0x124>)
 8004afa:	4293      	cmp	r3, r2
 8004afc:	d02b      	beq.n	8004b56 <HAL_DMA_IRQHandler+0xd2>
 8004afe:	3214      	adds	r2, #20
 8004b00:	4293      	cmp	r3, r2
 8004b02:	d042      	beq.n	8004b8a <HAL_DMA_IRQHandler+0x106>
 8004b04:	3214      	adds	r2, #20
 8004b06:	4293      	cmp	r3, r2
 8004b08:	d044      	beq.n	8004b94 <HAL_DMA_IRQHandler+0x110>
 8004b0a:	3214      	adds	r2, #20
 8004b0c:	4293      	cmp	r3, r2
 8004b0e:	d036      	beq.n	8004b7e <HAL_DMA_IRQHandler+0xfa>
 8004b10:	3214      	adds	r2, #20
 8004b12:	4293      	cmp	r3, r2
 8004b14:	d044      	beq.n	8004ba0 <HAL_DMA_IRQHandler+0x11c>
 8004b16:	3214      	adds	r2, #20
 8004b18:	4293      	cmp	r3, r2
 8004b1a:	bf0c      	ite	eq
 8004b1c:	f44f 1300 	moveq.w	r3, #2097152	; 0x200000
 8004b20:	f04f 7300 	movne.w	r3, #33554432	; 0x2000000
 8004b24:	e018      	b.n	8004b58 <HAL_DMA_IRQHandler+0xd4>
  else if (( RESET != (flag_it & (DMA_FLAG_TE1 << hdma->ChannelIndex))) && (RESET != (source_it & DMA_IT_TE)))
 8004b26:	2208      	movs	r2, #8
 8004b28:	408a      	lsls	r2, r1
 8004b2a:	4222      	tst	r2, r4
 8004b2c:	d01b      	beq.n	8004b66 <HAL_DMA_IRQHandler+0xe2>
 8004b2e:	072a      	lsls	r2, r5, #28
 8004b30:	d519      	bpl.n	8004b66 <HAL_DMA_IRQHandler+0xe2>
    hdma->DmaBaseAddress->IFCR = (DMA_ISR_GIF1 << hdma->ChannelIndex);
 8004b32:	2201      	movs	r2, #1
    __HAL_UNLOCK(hdma);
 8004b34:	2500      	movs	r5, #0
    __HAL_DMA_DISABLE_IT(hdma, (DMA_IT_TC | DMA_IT_HT | DMA_IT_TE));
 8004b36:	681c      	ldr	r4, [r3, #0]
    hdma->DmaBaseAddress->IFCR = (DMA_ISR_GIF1 << hdma->ChannelIndex);
 8004b38:	fa02 f101 	lsl.w	r1, r2, r1
    __HAL_DMA_DISABLE_IT(hdma, (DMA_IT_TC | DMA_IT_HT | DMA_IT_TE));
 8004b3c:	f024 040e 	bic.w	r4, r4, #14
 8004b40:	601c      	str	r4, [r3, #0]
    if (hdma->XferErrorCallback != NULL)
 8004b42:	6b03      	ldr	r3, [r0, #48]	; 0x30
    hdma->DmaBaseAddress->IFCR = (DMA_ISR_GIF1 << hdma->ChannelIndex);
 8004b44:	6071      	str	r1, [r6, #4]
    hdma->ErrorCode = HAL_DMA_ERROR_TE;
 8004b46:	6382      	str	r2, [r0, #56]	; 0x38
    hdma->State = HAL_DMA_STATE_READY;
 8004b48:	f880 2021 	strb.w	r2, [r0, #33]	; 0x21
    __HAL_UNLOCK(hdma);
 8004b4c:	f880 5020 	strb.w	r5, [r0, #32]
    if (hdma->XferErrorCallback != NULL)
 8004b50:	b14b      	cbz	r3, 8004b66 <HAL_DMA_IRQHandler+0xe2>
}
 8004b52:	bc70      	pop	{r4, r5, r6}
      hdma->XferErrorCallback(hdma);
 8004b54:	4718      	bx	r3
      __HAL_DMA_CLEAR_FLAG(hdma, __HAL_DMA_GET_TC_FLAG_INDEX(hdma));
 8004b56:	2302      	movs	r3, #2
    __HAL_UNLOCK(hdma);
 8004b58:	2100      	movs	r1, #0
      __HAL_DMA_CLEAR_FLAG(hdma, __HAL_DMA_GET_TC_FLAG_INDEX(hdma));
 8004b5a:	4c14      	ldr	r4, [pc, #80]	; (8004bac <HAL_DMA_IRQHandler+0x128>)
    if(hdma->XferCpltCallback != NULL)
 8004b5c:	6a82      	ldr	r2, [r0, #40]	; 0x28
      __HAL_DMA_CLEAR_FLAG(hdma, __HAL_DMA_GET_TC_FLAG_INDEX(hdma));
 8004b5e:	6063      	str	r3, [r4, #4]
    __HAL_UNLOCK(hdma);
 8004b60:	f880 1020 	strb.w	r1, [r0, #32]
    if(hdma->XferCpltCallback != NULL)
 8004b64:	b93a      	cbnz	r2, 8004b76 <HAL_DMA_IRQHandler+0xf2>
}
 8004b66:	bc70      	pop	{r4, r5, r6}
 8004b68:	4770      	bx	lr
    __HAL_DMA_CLEAR_FLAG(hdma, __HAL_DMA_GET_HT_FLAG_INDEX(hdma));
 8004b6a:	2304      	movs	r3, #4
 8004b6c:	490f      	ldr	r1, [pc, #60]	; (8004bac <HAL_DMA_IRQHandler+0x128>)
    if(hdma->XferHalfCpltCallback != NULL)
 8004b6e:	6ac2      	ldr	r2, [r0, #44]	; 0x2c
    __HAL_DMA_CLEAR_FLAG(hdma, __HAL_DMA_GET_HT_FLAG_INDEX(hdma));
 8004b70:	604b      	str	r3, [r1, #4]
    if(hdma->XferHalfCpltCallback != NULL)
 8004b72:	2a00      	cmp	r2, #0
 8004b74:	d0f7      	beq.n	8004b66 <HAL_DMA_IRQHandler+0xe2>
}
 8004b76:	bc70      	pop	{r4, r5, r6}
      hdma->XferCpltCallback(hdma);
 8004b78:	4710      	bx	r2
    __HAL_DMA_CLEAR_FLAG(hdma, __HAL_DMA_GET_HT_FLAG_INDEX(hdma));
 8004b7a:	2340      	movs	r3, #64	; 0x40
 8004b7c:	e7f6      	b.n	8004b6c <HAL_DMA_IRQHandler+0xe8>
      __HAL_DMA_CLEAR_FLAG(hdma, __HAL_DMA_GET_TC_FLAG_INDEX(hdma));
 8004b7e:	f44f 5300 	mov.w	r3, #8192	; 0x2000
 8004b82:	e7e9      	b.n	8004b58 <HAL_DMA_IRQHandler+0xd4>
    __HAL_DMA_CLEAR_FLAG(hdma, __HAL_DMA_GET_HT_FLAG_INDEX(hdma));
 8004b84:	f44f 2380 	mov.w	r3, #262144	; 0x40000
 8004b88:	e7f0      	b.n	8004b6c <HAL_DMA_IRQHandler+0xe8>
      __HAL_DMA_CLEAR_FLAG(hdma, __HAL_DMA_GET_TC_FLAG_INDEX(hdma));
 8004b8a:	2320      	movs	r3, #32
 8004b8c:	e7e4      	b.n	8004b58 <HAL_DMA_IRQHandler+0xd4>
    __HAL_DMA_CLEAR_FLAG(hdma, __HAL_DMA_GET_HT_FLAG_INDEX(hdma));
 8004b8e:	f44f 6380 	mov.w	r3, #1024	; 0x400
 8004b92:	e7eb      	b.n	8004b6c <HAL_DMA_IRQHandler+0xe8>
      __HAL_DMA_CLEAR_FLAG(hdma, __HAL_DMA_GET_TC_FLAG_INDEX(hdma));
 8004b94:	f44f 7300 	mov.w	r3, #512	; 0x200
 8004b98:	e7de      	b.n	8004b58 <HAL_DMA_IRQHandler+0xd4>
    __HAL_DMA_CLEAR_FLAG(hdma, __HAL_DMA_GET_HT_FLAG_INDEX(hdma));
 8004b9a:	f44f 4380 	mov.w	r3, #16384	; 0x4000
 8004b9e:	e7e5      	b.n	8004b6c <HAL_DMA_IRQHandler+0xe8>
      __HAL_DMA_CLEAR_FLAG(hdma, __HAL_DMA_GET_TC_FLAG_INDEX(hdma));
 8004ba0:	f44f 3300 	mov.w	r3, #131072	; 0x20000
 8004ba4:	e7d8      	b.n	8004b58 <HAL_DMA_IRQHandler+0xd4>
 8004ba6:	bf00      	nop
 8004ba8:	40020008 	.word	0x40020008
 8004bac:	40020000 	.word	0x40020000

08004bb0 <HAL_GPIO_Init>:
  assert_param(IS_GPIO_ALL_INSTANCE(GPIOx));
  assert_param(IS_GPIO_PIN(GPIO_Init->Pin));
  assert_param(IS_GPIO_MODE(GPIO_Init->Mode));

  /* Configure the port pins */
  while (((GPIO_Init->Pin) >> position) != 0x00u)
 8004bb0:	680a      	ldr	r2, [r1, #0]
 8004bb2:	2a00      	cmp	r2, #0
 8004bb4:	f000 80db 	beq.w	8004d6e <HAL_GPIO_Init+0x1be>
{
 8004bb8:	e92d 4ff0 	stmdb	sp!, {r4, r5, r6, r7, r8, r9, sl, fp, lr}
  uint32_t config = 0x00u;
 8004bbc:	f04f 0a00 	mov.w	sl, #0
{
 8004bc0:	b085      	sub	sp, #20
  uint32_t position = 0x00u;
 8004bc2:	4655      	mov	r5, sl
      /*--------------------- EXTI Mode Configuration ------------------------*/
      /* Configure the External Interrupt or event for the current IO */
      if ((GPIO_Init->Mode & EXTI_MODE) == EXTI_MODE)
      {
        /* Enable AFIO Clock */
        __HAL_RCC_AFIO_CLK_ENABLE();
 8004bc4:	f8df c1d0 	ldr.w	ip, [pc, #464]	; 8004d98 <HAL_GPIO_Init+0x1e8>
        temp = AFIO->EXTICR[position >> 2u];
        CLEAR_BIT(temp, (0x0Fu) << (4u * (position & 0x03u)));
        SET_BIT(temp, (GPIO_GET_INDEX(GPIOx)) << (4u * (position & 0x03u)));
 8004bc8:	f8df e1d0 	ldr.w	lr, [pc, #464]	; 8004d9c <HAL_GPIO_Init+0x1ec>
        {
          SET_BIT(EXTI->FTSR, iocurrent);
        }
        else
        {
          CLEAR_BIT(EXTI->FTSR, iocurrent);
 8004bcc:	4f6d      	ldr	r7, [pc, #436]	; (8004d84 <HAL_GPIO_Init+0x1d4>)
        SET_BIT(temp, (GPIO_GET_INDEX(GPIOx)) << (4u * (position & 0x03u)));
 8004bce:	f8df 81d0 	ldr.w	r8, [pc, #464]	; 8004da0 <HAL_GPIO_Init+0x1f0>
 8004bd2:	e003      	b.n	8004bdc <HAL_GPIO_Init+0x2c>
        }
      }
    }

	position++;
 8004bd4:	3501      	adds	r5, #1
  while (((GPIO_Init->Pin) >> position) != 0x00u)
 8004bd6:	fa32 f305 	lsrs.w	r3, r2, r5
 8004bda:	d078      	beq.n	8004cce <HAL_GPIO_Init+0x11e>
    ioposition = (0x01uL << position);
 8004bdc:	2301      	movs	r3, #1
 8004bde:	40ab      	lsls	r3, r5
    iocurrent = (uint32_t)(GPIO_Init->Pin) & ioposition;
 8004be0:	ea02 0403 	and.w	r4, r2, r3
    if (iocurrent == ioposition)
 8004be4:	42a3      	cmp	r3, r4
 8004be6:	d1f5      	bne.n	8004bd4 <HAL_GPIO_Init+0x24>
      switch (GPIO_Init->Mode)
 8004be8:	684a      	ldr	r2, [r1, #4]
 8004bea:	2a12      	cmp	r2, #18
 8004bec:	f000 809e 	beq.w	8004d2c <HAL_GPIO_Init+0x17c>
 8004bf0:	f200 8087 	bhi.w	8004d02 <HAL_GPIO_Init+0x152>
 8004bf4:	2a02      	cmp	r2, #2
 8004bf6:	f000 809d 	beq.w	8004d34 <HAL_GPIO_Init+0x184>
 8004bfa:	d97c      	bls.n	8004cf6 <HAL_GPIO_Init+0x146>
 8004bfc:	2a03      	cmp	r2, #3
 8004bfe:	d069      	beq.n	8004cd4 <HAL_GPIO_Init+0x124>
 8004c00:	2a11      	cmp	r2, #17
 8004c02:	d102      	bne.n	8004c0a <HAL_GPIO_Init+0x5a>
          config = GPIO_Init->Speed + GPIO_CR_CNF_GP_OUTPUT_OD;
 8004c04:	68cb      	ldr	r3, [r1, #12]
 8004c06:	f103 0a04 	add.w	sl, r3, #4
      configregister = (iocurrent < GPIO_PIN_8) ? &GPIOx->CRL     : &GPIOx->CRH;
 8004c0a:	2cff      	cmp	r4, #255	; 0xff
 8004c0c:	d866      	bhi.n	8004cdc <HAL_GPIO_Init+0x12c>
 8004c0e:	4681      	mov	r9, r0
 8004c10:	6803      	ldr	r3, [r0, #0]
 8004c12:	00aa      	lsls	r2, r5, #2
      MODIFY_REG((*configregister), ((GPIO_CRL_MODE0 | GPIO_CRL_CNF0) << registeroffset), (config << registeroffset));
 8004c14:	260f      	movs	r6, #15
 8004c16:	fa06 fb02 	lsl.w	fp, r6, r2
 8004c1a:	ea23 030b 	bic.w	r3, r3, fp
 8004c1e:	fa0a f202 	lsl.w	r2, sl, r2
 8004c22:	4313      	orrs	r3, r2
 8004c24:	f8c9 3000 	str.w	r3, [r9]
      if ((GPIO_Init->Mode & EXTI_MODE) == EXTI_MODE)
 8004c28:	684a      	ldr	r2, [r1, #4]
 8004c2a:	00d3      	lsls	r3, r2, #3
 8004c2c:	d561      	bpl.n	8004cf2 <HAL_GPIO_Init+0x142>
        __HAL_RCC_AFIO_CLK_ENABLE();
 8004c2e:	f8dc 9018 	ldr.w	r9, [ip, #24]
 8004c32:	f025 0303 	bic.w	r3, r5, #3
 8004c36:	f049 0901 	orr.w	r9, r9, #1
 8004c3a:	f8cc 9018 	str.w	r9, [ip, #24]
 8004c3e:	f8dc 9018 	ldr.w	r9, [ip, #24]
 8004c42:	f103 4380 	add.w	r3, r3, #1073741824	; 0x40000000
 8004c46:	f009 0901 	and.w	r9, r9, #1
 8004c4a:	f8cd 900c 	str.w	r9, [sp, #12]
 8004c4e:	f503 3380 	add.w	r3, r3, #65536	; 0x10000
        CLEAR_BIT(temp, (0x0Fu) << (4u * (position & 0x03u)));
 8004c52:	f005 0903 	and.w	r9, r5, #3
        __HAL_RCC_AFIO_CLK_ENABLE();
 8004c56:	f8dd b00c 	ldr.w	fp, [sp, #12]
        CLEAR_BIT(temp, (0x0Fu) << (4u * (position & 0x03u)));
 8004c5a:	ea4f 0989 	mov.w	r9, r9, lsl #2
        temp = AFIO->EXTICR[position >> 2u];
 8004c5e:	f8d3 b008 	ldr.w	fp, [r3, #8]
        CLEAR_BIT(temp, (0x0Fu) << (4u * (position & 0x03u)));
 8004c62:	fa06 f609 	lsl.w	r6, r6, r9
 8004c66:	ea2b 0606 	bic.w	r6, fp, r6
        SET_BIT(temp, (GPIO_GET_INDEX(GPIOx)) << (4u * (position & 0x03u)));
 8004c6a:	4570      	cmp	r0, lr
        CLEAR_BIT(temp, (0x0Fu) << (4u * (position & 0x03u)));
 8004c6c:	9601      	str	r6, [sp, #4]
        SET_BIT(temp, (GPIO_GET_INDEX(GPIOx)) << (4u * (position & 0x03u)));
 8004c6e:	d011      	beq.n	8004c94 <HAL_GPIO_Init+0xe4>
 8004c70:	4540      	cmp	r0, r8
 8004c72:	d063      	beq.n	8004d3c <HAL_GPIO_Init+0x18c>
 8004c74:	4e44      	ldr	r6, [pc, #272]	; (8004d88 <HAL_GPIO_Init+0x1d8>)
 8004c76:	42b0      	cmp	r0, r6
 8004c78:	d07a      	beq.n	8004d70 <HAL_GPIO_Init+0x1c0>
 8004c7a:	4e44      	ldr	r6, [pc, #272]	; (8004d8c <HAL_GPIO_Init+0x1dc>)
 8004c7c:	42b0      	cmp	r0, r6
 8004c7e:	bf0c      	ite	eq
 8004c80:	f04f 0b03 	moveq.w	fp, #3
 8004c84:	f04f 0b04 	movne.w	fp, #4
 8004c88:	9e01      	ldr	r6, [sp, #4]
 8004c8a:	fa0b f909 	lsl.w	r9, fp, r9
 8004c8e:	ea46 0609 	orr.w	r6, r6, r9
 8004c92:	9601      	str	r6, [sp, #4]
        AFIO->EXTICR[position >> 2u] = temp;
 8004c94:	609e      	str	r6, [r3, #8]
          SET_BIT(EXTI->IMR, iocurrent);
 8004c96:	683b      	ldr	r3, [r7, #0]
        if ((GPIO_Init->Mode & GPIO_MODE_IT) == GPIO_MODE_IT)
 8004c98:	03d6      	lsls	r6, r2, #15
          SET_BIT(EXTI->IMR, iocurrent);
 8004c9a:	bf4c      	ite	mi
 8004c9c:	4323      	orrmi	r3, r4
          CLEAR_BIT(EXTI->IMR, iocurrent);
 8004c9e:	43a3      	bicpl	r3, r4
 8004ca0:	603b      	str	r3, [r7, #0]
          SET_BIT(EXTI->EMR, iocurrent);
 8004ca2:	687b      	ldr	r3, [r7, #4]
        if ((GPIO_Init->Mode & GPIO_MODE_EVT) == GPIO_MODE_EVT)
 8004ca4:	0396      	lsls	r6, r2, #14
          SET_BIT(EXTI->EMR, iocurrent);
 8004ca6:	bf4c      	ite	mi
 8004ca8:	4323      	orrmi	r3, r4
          CLEAR_BIT(EXTI->EMR, iocurrent);
 8004caa:	43a3      	bicpl	r3, r4
 8004cac:	607b      	str	r3, [r7, #4]
          SET_BIT(EXTI->RTSR, iocurrent);
 8004cae:	68bb      	ldr	r3, [r7, #8]
        if ((GPIO_Init->Mode & RISING_EDGE) == RISING_EDGE)
 8004cb0:	02d6      	lsls	r6, r2, #11
          SET_BIT(EXTI->RTSR, iocurrent);
 8004cb2:	bf4c      	ite	mi
 8004cb4:	4323      	orrmi	r3, r4
          CLEAR_BIT(EXTI->RTSR, iocurrent);
 8004cb6:	43a3      	bicpl	r3, r4
 8004cb8:	60bb      	str	r3, [r7, #8]
        if ((GPIO_Init->Mode & FALLING_EDGE) == FALLING_EDGE)
 8004cba:	0292      	lsls	r2, r2, #10
          SET_BIT(EXTI->FTSR, iocurrent);
 8004cbc:	68fb      	ldr	r3, [r7, #12]
        if ((GPIO_Init->Mode & FALLING_EDGE) == FALLING_EDGE)
 8004cbe:	d515      	bpl.n	8004cec <HAL_GPIO_Init+0x13c>
          SET_BIT(EXTI->FTSR, iocurrent);
 8004cc0:	431c      	orrs	r4, r3
 8004cc2:	60fc      	str	r4, [r7, #12]
 8004cc4:	680a      	ldr	r2, [r1, #0]
	position++;
 8004cc6:	3501      	adds	r5, #1
  while (((GPIO_Init->Pin) >> position) != 0x00u)
 8004cc8:	fa32 f305 	lsrs.w	r3, r2, r5
 8004ccc:	d186      	bne.n	8004bdc <HAL_GPIO_Init+0x2c>
  }
}
 8004cce:	b005      	add	sp, #20
 8004cd0:	e8bd 8ff0 	ldmia.w	sp!, {r4, r5, r6, r7, r8, r9, sl, fp, pc}
      configregister = (iocurrent < GPIO_PIN_8) ? &GPIOx->CRL     : &GPIOx->CRH;
 8004cd4:	2cff      	cmp	r4, #255	; 0xff
          config = GPIO_CR_MODE_INPUT + GPIO_CR_CNF_ANALOG;
 8004cd6:	f04f 0a00 	mov.w	sl, #0
      configregister = (iocurrent < GPIO_PIN_8) ? &GPIOx->CRL     : &GPIOx->CRH;
 8004cda:	d998      	bls.n	8004c0e <HAL_GPIO_Init+0x5e>
 8004cdc:	f105 4280 	add.w	r2, r5, #1073741824	; 0x40000000
 8004ce0:	3a08      	subs	r2, #8
 8004ce2:	6843      	ldr	r3, [r0, #4]
 8004ce4:	0092      	lsls	r2, r2, #2
 8004ce6:	f100 0904 	add.w	r9, r0, #4
 8004cea:	e793      	b.n	8004c14 <HAL_GPIO_Init+0x64>
          CLEAR_BIT(EXTI->FTSR, iocurrent);
 8004cec:	ea23 0404 	bic.w	r4, r3, r4
 8004cf0:	60fc      	str	r4, [r7, #12]
 8004cf2:	680a      	ldr	r2, [r1, #0]
 8004cf4:	e76e      	b.n	8004bd4 <HAL_GPIO_Init+0x24>
      switch (GPIO_Init->Mode)
 8004cf6:	b1a2      	cbz	r2, 8004d22 <HAL_GPIO_Init+0x172>
 8004cf8:	2a01      	cmp	r2, #1
 8004cfa:	d186      	bne.n	8004c0a <HAL_GPIO_Init+0x5a>
          config = GPIO_Init->Speed + GPIO_CR_CNF_GP_OUTPUT_PP;
 8004cfc:	f8d1 a00c 	ldr.w	sl, [r1, #12]
          break;
 8004d00:	e783      	b.n	8004c0a <HAL_GPIO_Init+0x5a>
      switch (GPIO_Init->Mode)
 8004d02:	4e23      	ldr	r6, [pc, #140]	; (8004d90 <HAL_GPIO_Init+0x1e0>)
 8004d04:	42b2      	cmp	r2, r6
 8004d06:	d00c      	beq.n	8004d22 <HAL_GPIO_Init+0x172>
 8004d08:	d920      	bls.n	8004d4c <HAL_GPIO_Init+0x19c>
 8004d0a:	4e22      	ldr	r6, [pc, #136]	; (8004d94 <HAL_GPIO_Init+0x1e4>)
 8004d0c:	42b2      	cmp	r2, r6
 8004d0e:	d008      	beq.n	8004d22 <HAL_GPIO_Init+0x172>
 8004d10:	f506 3680 	add.w	r6, r6, #65536	; 0x10000
 8004d14:	42b2      	cmp	r2, r6
 8004d16:	d004      	beq.n	8004d22 <HAL_GPIO_Init+0x172>
 8004d18:	f5a6 1680 	sub.w	r6, r6, #1048576	; 0x100000
 8004d1c:	42b2      	cmp	r2, r6
 8004d1e:	f47f af74 	bne.w	8004c0a <HAL_GPIO_Init+0x5a>
          if (GPIO_Init->Pull == GPIO_NOPULL)
 8004d22:	688a      	ldr	r2, [r1, #8]
 8004d24:	b9e2      	cbnz	r2, 8004d60 <HAL_GPIO_Init+0x1b0>
            config = GPIO_CR_MODE_INPUT + GPIO_CR_CNF_INPUT_FLOATING;
 8004d26:	f04f 0a04 	mov.w	sl, #4
 8004d2a:	e76e      	b.n	8004c0a <HAL_GPIO_Init+0x5a>
          config = GPIO_Init->Speed + GPIO_CR_CNF_AF_OUTPUT_OD;
 8004d2c:	68cb      	ldr	r3, [r1, #12]
 8004d2e:	f103 0a0c 	add.w	sl, r3, #12
          break;
 8004d32:	e76a      	b.n	8004c0a <HAL_GPIO_Init+0x5a>
          config = GPIO_Init->Speed + GPIO_CR_CNF_AF_OUTPUT_PP;
 8004d34:	68cb      	ldr	r3, [r1, #12]
 8004d36:	f103 0a08 	add.w	sl, r3, #8
          break;
 8004d3a:	e766      	b.n	8004c0a <HAL_GPIO_Init+0x5a>
 8004d3c:	f04f 0b01 	mov.w	fp, #1
 8004d40:	fa0b f909 	lsl.w	r9, fp, r9
 8004d44:	ea46 0609 	orr.w	r6, r6, r9
 8004d48:	9601      	str	r6, [sp, #4]
 8004d4a:	e7a3      	b.n	8004c94 <HAL_GPIO_Init+0xe4>
      switch (GPIO_Init->Mode)
 8004d4c:	f5a6 1680 	sub.w	r6, r6, #1048576	; 0x100000
 8004d50:	42b2      	cmp	r2, r6
 8004d52:	d0e6      	beq.n	8004d22 <HAL_GPIO_Init+0x172>
 8004d54:	f506 3680 	add.w	r6, r6, #65536	; 0x10000
 8004d58:	42b2      	cmp	r2, r6
 8004d5a:	f47f af56 	bne.w	8004c0a <HAL_GPIO_Init+0x5a>
 8004d5e:	e7e0      	b.n	8004d22 <HAL_GPIO_Init+0x172>
          else if (GPIO_Init->Pull == GPIO_PULLUP)
 8004d60:	2a01      	cmp	r2, #1
            GPIOx->BSRR = ioposition;
 8004d62:	bf0c      	ite	eq
 8004d64:	6103      	streq	r3, [r0, #16]
            GPIOx->BRR = ioposition;
 8004d66:	6143      	strne	r3, [r0, #20]
            config = GPIO_CR_MODE_INPUT + GPIO_CR_CNF_INPUT_PU_PD;
 8004d68:	f04f 0a08 	mov.w	sl, #8
 8004d6c:	e74d      	b.n	8004c0a <HAL_GPIO_Init+0x5a>
 8004d6e:	4770      	bx	lr
 8004d70:	f04f 0b02 	mov.w	fp, #2
 8004d74:	9e01      	ldr	r6, [sp, #4]
 8004d76:	fa0b f909 	lsl.w	r9, fp, r9
 8004d7a:	ea46 0609 	orr.w	r6, r6, r9
 8004d7e:	9601      	str	r6, [sp, #4]
 8004d80:	e788      	b.n	8004c94 <HAL_GPIO_Init+0xe4>
 8004d82:	bf00      	nop
 8004d84:	40010400 	.word	0x40010400
 8004d88:	40011000 	.word	0x40011000
 8004d8c:	40011400 	.word	0x40011400
 8004d90:	10210000 	.word	0x10210000
 8004d94:	10310000 	.word	0x10310000
 8004d98:	40021000 	.word	0x40021000
 8004d9c:	40010800 	.word	0x40010800
 8004da0:	40010c00 	.word	0x40010c00

08004da4 <HAL_GPIO_WritePin>:
{
  /* Check the parameters */
  assert_param(IS_GPIO_PIN(GPIO_Pin));
  assert_param(IS_GPIO_PIN_ACTION(PinState));

  if (PinState != GPIO_PIN_RESET)
 8004da4:	b902      	cbnz	r2, 8004da8 <HAL_GPIO_WritePin+0x4>
  {
    GPIOx->BSRR = GPIO_Pin;
  }
  else
  {
    GPIOx->BSRR = (uint32_t)GPIO_Pin << 16u;
 8004da6:	0409      	lsls	r1, r1, #16
 8004da8:	6101      	str	r1, [r0, #16]
  }
}
 8004daa:	4770      	bx	lr

08004dac <I2C_RequestMemoryWrite>:
  * @param  Timeout Timeout duration
  * @param  Tickstart Tick start value
  * @retval HAL status
  */
static HAL_StatusTypeDef I2C_RequestMemoryWrite(I2C_HandleTypeDef *hi2c, uint16_t DevAddress, uint16_t MemAddress, uint16_t MemAddSize, uint32_t Timeout, uint32_t Tickstart)
{
 8004dac:	e92d 42f0 	stmdb	sp!, {r4, r5, r6, r7, r9, lr}
 8004db0:	4689      	mov	r9, r1
 8004db2:	4616      	mov	r6, r2
 8004db4:	461f      	mov	r7, r3
 8004db6:	4605      	mov	r5, r0
  /* Generate Start */
  SET_BIT(hi2c->Instance->CR1, I2C_CR1_START);
 8004db8:	6800      	ldr	r0, [r0, #0]
{
 8004dba:	b082      	sub	sp, #8
  SET_BIT(hi2c->Instance->CR1, I2C_CR1_START);
 8004dbc:	6804      	ldr	r4, [r0, #0]
 8004dbe:	f444 7480 	orr.w	r4, r4, #256	; 0x100
 8004dc2:	6004      	str	r4, [r0, #0]
{
 8004dc4:	9c08      	ldr	r4, [sp, #32]
 8004dc6:	1c62      	adds	r2, r4, #1
 8004dc8:	d140      	bne.n	8004e4c <I2C_RequestMemoryWrite+0xa0>
  * @retval HAL status
  */
static HAL_StatusTypeDef I2C_WaitOnFlagUntilTimeout(I2C_HandleTypeDef *hi2c, uint32_t Flag, FlagStatus Status, uint32_t Timeout, uint32_t Tickstart)
{
  /* Wait until flag is set */
  while (__HAL_I2C_GET_FLAG(hi2c, Flag) == Status)
 8004dca:	6943      	ldr	r3, [r0, #20]
 8004dcc:	07db      	lsls	r3, r3, #31
 8004dce:	d5fc      	bpl.n	8004dca <I2C_RequestMemoryWrite+0x1e>
  hi2c->Instance->DR = I2C_7BIT_ADD_WRITE(DevAddress);
 8004dd0:	f009 01fe 	and.w	r1, r9, #254	; 0xfe
 8004dd4:	6101      	str	r1, [r0, #16]
 8004dd6:	1c63      	adds	r3, r4, #1
 8004dd8:	d012      	beq.n	8004e00 <I2C_RequestMemoryWrite+0x54>
  * @param  Tickstart Tick start value
  * @retval HAL status
  */
static HAL_StatusTypeDef I2C_WaitOnMasterAddressFlagUntilTimeout(I2C_HandleTypeDef *hi2c, uint32_t Flag, uint32_t Timeout, uint32_t Tickstart)
{
  while (__HAL_I2C_GET_FLAG(hi2c, Flag) == RESET)
 8004dda:	6943      	ldr	r3, [r0, #20]
 8004ddc:	079b      	lsls	r3, r3, #30
 8004dde:	d412      	bmi.n	8004e06 <I2C_RequestMemoryWrite+0x5a>
  {
    if (__HAL_I2C_GET_FLAG(hi2c, I2C_FLAG_AF) == SET)
 8004de0:	6943      	ldr	r3, [r0, #20]
 8004de2:	055a      	lsls	r2, r3, #21
 8004de4:	d43e      	bmi.n	8004e64 <I2C_RequestMemoryWrite+0xb8>
    }

    /* Check for the Timeout */
    if (Timeout != HAL_MAX_DELAY)
    {
      if (((HAL_GetTick() - Tickstart) > Timeout) || (Timeout == 0U))
 8004de6:	f7ff fd4f 	bl	8004888 <HAL_GetTick>
 8004dea:	9b09      	ldr	r3, [sp, #36]	; 0x24
 8004dec:	1ac0      	subs	r0, r0, r3
 8004dee:	4284      	cmp	r4, r0
 8004df0:	d350      	bcc.n	8004e94 <I2C_RequestMemoryWrite+0xe8>
 8004df2:	2c00      	cmp	r4, #0
 8004df4:	d04e      	beq.n	8004e94 <I2C_RequestMemoryWrite+0xe8>
 8004df6:	6828      	ldr	r0, [r5, #0]
 8004df8:	e7ed      	b.n	8004dd6 <I2C_RequestMemoryWrite+0x2a>
    if (__HAL_I2C_GET_FLAG(hi2c, I2C_FLAG_AF) == SET)
 8004dfa:	6943      	ldr	r3, [r0, #20]
 8004dfc:	055a      	lsls	r2, r3, #21
 8004dfe:	d431      	bmi.n	8004e64 <I2C_RequestMemoryWrite+0xb8>
  while (__HAL_I2C_GET_FLAG(hi2c, Flag) == RESET)
 8004e00:	6943      	ldr	r3, [r0, #20]
 8004e02:	0799      	lsls	r1, r3, #30
 8004e04:	d5f9      	bpl.n	8004dfa <I2C_RequestMemoryWrite+0x4e>
  __HAL_I2C_CLEAR_ADDRFLAG(hi2c);
 8004e06:	2300      	movs	r3, #0
 8004e08:	9301      	str	r3, [sp, #4]
 8004e0a:	6943      	ldr	r3, [r0, #20]
 8004e0c:	9301      	str	r3, [sp, #4]
 8004e0e:	6983      	ldr	r3, [r0, #24]
 8004e10:	9301      	str	r3, [sp, #4]
 8004e12:	9b01      	ldr	r3, [sp, #4]
 8004e14:	1c62      	adds	r2, r4, #1
 8004e16:	d003      	beq.n	8004e20 <I2C_RequestMemoryWrite+0x74>
 8004e18:	e04b      	b.n	8004eb2 <I2C_RequestMemoryWrite+0x106>
  *                the configuration information for the specified I2C.
  * @retval HAL status
  */
static HAL_StatusTypeDef I2C_IsAcknowledgeFailed(I2C_HandleTypeDef *hi2c)
{
  if (__HAL_I2C_GET_FLAG(hi2c, I2C_FLAG_AF) == SET)
 8004e1a:	6943      	ldr	r3, [r0, #20]
 8004e1c:	0559      	lsls	r1, r3, #21
 8004e1e:	d458      	bmi.n	8004ed2 <I2C_RequestMemoryWrite+0x126>
  while (__HAL_I2C_GET_FLAG(hi2c, I2C_FLAG_TXE) == RESET)
 8004e20:	6943      	ldr	r3, [r0, #20]
 8004e22:	061b      	lsls	r3, r3, #24
 8004e24:	d5f9      	bpl.n	8004e1a <I2C_RequestMemoryWrite+0x6e>
  if (MemAddSize == I2C_MEMADD_SIZE_8BIT)
 8004e26:	2f01      	cmp	r7, #1
 8004e28:	d00a      	beq.n	8004e40 <I2C_RequestMemoryWrite+0x94>
    hi2c->Instance->DR = I2C_MEM_ADD_MSB(MemAddress);
 8004e2a:	0a33      	lsrs	r3, r6, #8
 8004e2c:	6103      	str	r3, [r0, #16]
 8004e2e:	1c67      	adds	r7, r4, #1
 8004e30:	d003      	beq.n	8004e3a <I2C_RequestMemoryWrite+0x8e>
 8004e32:	e084      	b.n	8004f3e <I2C_RequestMemoryWrite+0x192>
  if (__HAL_I2C_GET_FLAG(hi2c, I2C_FLAG_AF) == SET)
 8004e34:	6943      	ldr	r3, [r0, #20]
 8004e36:	055a      	lsls	r2, r3, #21
 8004e38:	d467      	bmi.n	8004f0a <I2C_RequestMemoryWrite+0x15e>
  while (__HAL_I2C_GET_FLAG(hi2c, I2C_FLAG_TXE) == RESET)
 8004e3a:	6943      	ldr	r3, [r0, #20]
 8004e3c:	0619      	lsls	r1, r3, #24
 8004e3e:	d5f9      	bpl.n	8004e34 <I2C_RequestMemoryWrite+0x88>
    hi2c->Instance->DR = I2C_MEM_ADD_LSB(MemAddress);
 8004e40:	b2f6      	uxtb	r6, r6
 8004e42:	6106      	str	r6, [r0, #16]
  return HAL_OK;
 8004e44:	2000      	movs	r0, #0
}
 8004e46:	b002      	add	sp, #8
 8004e48:	e8bd 82f0 	ldmia.w	sp!, {r4, r5, r6, r7, r9, pc}
  while (__HAL_I2C_GET_FLAG(hi2c, Flag) == Status)
 8004e4c:	6943      	ldr	r3, [r0, #20]
 8004e4e:	07d9      	lsls	r1, r3, #31
 8004e50:	d4be      	bmi.n	8004dd0 <I2C_RequestMemoryWrite+0x24>
      if (((HAL_GetTick() - Tickstart) > Timeout) || (Timeout == 0U))
 8004e52:	f7ff fd19 	bl	8004888 <HAL_GetTick>
 8004e56:	9b09      	ldr	r3, [sp, #36]	; 0x24
 8004e58:	1ac0      	subs	r0, r0, r3
 8004e5a:	4284      	cmp	r4, r0
 8004e5c:	d31a      	bcc.n	8004e94 <I2C_RequestMemoryWrite+0xe8>
 8004e5e:	b1cc      	cbz	r4, 8004e94 <I2C_RequestMemoryWrite+0xe8>
 8004e60:	6828      	ldr	r0, [r5, #0]
 8004e62:	e7b0      	b.n	8004dc6 <I2C_RequestMemoryWrite+0x1a>
      __HAL_I2C_CLEAR_FLAG(hi2c, I2C_FLAG_AF);
 8004e64:	f46f 6480 	mvn.w	r4, #1024	; 0x400
      hi2c->PreviousState       = I2C_STATE_NONE;
 8004e68:	2200      	movs	r2, #0
      hi2c->State               = HAL_I2C_STATE_READY;
 8004e6a:	2120      	movs	r1, #32
      SET_BIT(hi2c->Instance->CR1, I2C_CR1_STOP);
 8004e6c:	6803      	ldr	r3, [r0, #0]
 8004e6e:	f443 7300 	orr.w	r3, r3, #512	; 0x200
 8004e72:	6003      	str	r3, [r0, #0]
      __HAL_I2C_CLEAR_FLAG(hi2c, I2C_FLAG_AF);
 8004e74:	6144      	str	r4, [r0, #20]
    return HAL_ERROR;
 8004e76:	2001      	movs	r0, #1
      hi2c->PreviousState       = I2C_STATE_NONE;
 8004e78:	632a      	str	r2, [r5, #48]	; 0x30
      hi2c->State               = HAL_I2C_STATE_READY;
 8004e7a:	f885 103d 	strb.w	r1, [r5, #61]	; 0x3d
      hi2c->Mode                = HAL_I2C_MODE_NONE;
 8004e7e:	f885 203e 	strb.w	r2, [r5, #62]	; 0x3e
      hi2c->ErrorCode           |= HAL_I2C_ERROR_AF;
 8004e82:	6c2b      	ldr	r3, [r5, #64]	; 0x40
      __HAL_UNLOCK(hi2c);
 8004e84:	f885 203c 	strb.w	r2, [r5, #60]	; 0x3c
      hi2c->ErrorCode           |= HAL_I2C_ERROR_AF;
 8004e88:	f043 0304 	orr.w	r3, r3, #4
 8004e8c:	642b      	str	r3, [r5, #64]	; 0x40
}
 8004e8e:	b002      	add	sp, #8
 8004e90:	e8bd 82f0 	ldmia.w	sp!, {r4, r5, r6, r7, r9, pc}
        hi2c->PreviousState       = I2C_STATE_NONE;
 8004e94:	2200      	movs	r2, #0
        hi2c->State               = HAL_I2C_STATE_READY;
 8004e96:	2320      	movs	r3, #32
        hi2c->PreviousState       = I2C_STATE_NONE;
 8004e98:	632a      	str	r2, [r5, #48]	; 0x30
        hi2c->State               = HAL_I2C_STATE_READY;
 8004e9a:	f885 303d 	strb.w	r3, [r5, #61]	; 0x3d
        hi2c->Mode                = HAL_I2C_MODE_NONE;
 8004e9e:	f885 203e 	strb.w	r2, [r5, #62]	; 0x3e
        hi2c->ErrorCode           |= HAL_I2C_ERROR_TIMEOUT;
 8004ea2:	6c2b      	ldr	r3, [r5, #64]	; 0x40
        __HAL_UNLOCK(hi2c);
 8004ea4:	f885 203c 	strb.w	r2, [r5, #60]	; 0x3c
        hi2c->ErrorCode           |= HAL_I2C_ERROR_TIMEOUT;
 8004ea8:	f043 0320 	orr.w	r3, r3, #32
 8004eac:	642b      	str	r3, [r5, #64]	; 0x40
    return HAL_ERROR;
 8004eae:	2001      	movs	r0, #1
 8004eb0:	e7c9      	b.n	8004e46 <I2C_RequestMemoryWrite+0x9a>
  while (__HAL_I2C_GET_FLAG(hi2c, I2C_FLAG_TXE) == RESET)
 8004eb2:	6943      	ldr	r3, [r0, #20]
 8004eb4:	061a      	lsls	r2, r3, #24
 8004eb6:	d4b6      	bmi.n	8004e26 <I2C_RequestMemoryWrite+0x7a>
  if (__HAL_I2C_GET_FLAG(hi2c, I2C_FLAG_AF) == SET)
 8004eb8:	6943      	ldr	r3, [r0, #20]
 8004eba:	0559      	lsls	r1, r3, #21
 8004ebc:	d409      	bmi.n	8004ed2 <I2C_RequestMemoryWrite+0x126>
      if (((HAL_GetTick() - Tickstart) > Timeout) || (Timeout == 0U))
 8004ebe:	f7ff fce3 	bl	8004888 <HAL_GetTick>
 8004ec2:	9b09      	ldr	r3, [sp, #36]	; 0x24
 8004ec4:	1ac0      	subs	r0, r0, r3
 8004ec6:	4284      	cmp	r4, r0
 8004ec8:	d349      	bcc.n	8004f5e <I2C_RequestMemoryWrite+0x1b2>
 8004eca:	2c00      	cmp	r4, #0
 8004ecc:	d047      	beq.n	8004f5e <I2C_RequestMemoryWrite+0x1b2>
 8004ece:	6828      	ldr	r0, [r5, #0]
 8004ed0:	e7a0      	b.n	8004e14 <I2C_RequestMemoryWrite+0x68>
  {
    /* Clear NACKF Flag */
    __HAL_I2C_CLEAR_FLAG(hi2c, I2C_FLAG_AF);

    hi2c->PreviousState       = I2C_STATE_NONE;
 8004ed2:	2200      	movs	r2, #0
    hi2c->State               = HAL_I2C_STATE_READY;
 8004ed4:	2320      	movs	r3, #32
    __HAL_I2C_CLEAR_FLAG(hi2c, I2C_FLAG_AF);
 8004ed6:	f46f 6180 	mvn.w	r1, #1024	; 0x400
 8004eda:	6141      	str	r1, [r0, #20]
    hi2c->PreviousState       = I2C_STATE_NONE;
 8004edc:	632a      	str	r2, [r5, #48]	; 0x30
    hi2c->State               = HAL_I2C_STATE_READY;
 8004ede:	f885 303d 	strb.w	r3, [r5, #61]	; 0x3d
    hi2c->Mode                = HAL_I2C_MODE_NONE;
 8004ee2:	f885 203e 	strb.w	r2, [r5, #62]	; 0x3e
    hi2c->ErrorCode           |= HAL_I2C_ERROR_AF;
 8004ee6:	6c2b      	ldr	r3, [r5, #64]	; 0x40

    /* Process Unlocked */
    __HAL_UNLOCK(hi2c);
 8004ee8:	f885 203c 	strb.w	r2, [r5, #60]	; 0x3c
    hi2c->ErrorCode           |= HAL_I2C_ERROR_AF;
 8004eec:	f043 0304 	orr.w	r3, r3, #4
 8004ef0:	642b      	str	r3, [r5, #64]	; 0x40
    if (hi2c->ErrorCode == HAL_I2C_ERROR_AF)
 8004ef2:	6c2b      	ldr	r3, [r5, #64]	; 0x40
 8004ef4:	2b04      	cmp	r3, #4
 8004ef6:	d001      	beq.n	8004efc <I2C_RequestMemoryWrite+0x150>
    return HAL_ERROR;
 8004ef8:	2001      	movs	r0, #1
 8004efa:	e7a4      	b.n	8004e46 <I2C_RequestMemoryWrite+0x9a>
      SET_BIT(hi2c->Instance->CR1, I2C_CR1_STOP);
 8004efc:	682a      	ldr	r2, [r5, #0]
    return HAL_ERROR;
 8004efe:	2001      	movs	r0, #1
      SET_BIT(hi2c->Instance->CR1, I2C_CR1_STOP);
 8004f00:	6813      	ldr	r3, [r2, #0]
 8004f02:	f443 7300 	orr.w	r3, r3, #512	; 0x200
 8004f06:	6013      	str	r3, [r2, #0]
 8004f08:	e79d      	b.n	8004e46 <I2C_RequestMemoryWrite+0x9a>
    hi2c->PreviousState       = I2C_STATE_NONE;
 8004f0a:	2200      	movs	r2, #0
    hi2c->State               = HAL_I2C_STATE_READY;
 8004f0c:	2320      	movs	r3, #32
    __HAL_I2C_CLEAR_FLAG(hi2c, I2C_FLAG_AF);
 8004f0e:	f46f 6180 	mvn.w	r1, #1024	; 0x400
 8004f12:	6141      	str	r1, [r0, #20]
    hi2c->PreviousState       = I2C_STATE_NONE;
 8004f14:	632a      	str	r2, [r5, #48]	; 0x30
    hi2c->State               = HAL_I2C_STATE_READY;
 8004f16:	f885 303d 	strb.w	r3, [r5, #61]	; 0x3d
    hi2c->Mode                = HAL_I2C_MODE_NONE;
 8004f1a:	f885 203e 	strb.w	r2, [r5, #62]	; 0x3e
    hi2c->ErrorCode           |= HAL_I2C_ERROR_AF;
 8004f1e:	6c2b      	ldr	r3, [r5, #64]	; 0x40
    __HAL_UNLOCK(hi2c);
 8004f20:	f885 203c 	strb.w	r2, [r5, #60]	; 0x3c
    hi2c->ErrorCode           |= HAL_I2C_ERROR_AF;
 8004f24:	f043 0304 	orr.w	r3, r3, #4
 8004f28:	642b      	str	r3, [r5, #64]	; 0x40
      if (hi2c->ErrorCode == HAL_I2C_ERROR_AF)
 8004f2a:	6c2b      	ldr	r3, [r5, #64]	; 0x40
 8004f2c:	2b04      	cmp	r3, #4
 8004f2e:	d1e3      	bne.n	8004ef8 <I2C_RequestMemoryWrite+0x14c>
        SET_BIT(hi2c->Instance->CR1, I2C_CR1_STOP);
 8004f30:	682a      	ldr	r2, [r5, #0]
      return HAL_ERROR;
 8004f32:	2001      	movs	r0, #1
        SET_BIT(hi2c->Instance->CR1, I2C_CR1_STOP);
 8004f34:	6813      	ldr	r3, [r2, #0]
 8004f36:	f443 7300 	orr.w	r3, r3, #512	; 0x200
 8004f3a:	6013      	str	r3, [r2, #0]
 8004f3c:	e783      	b.n	8004e46 <I2C_RequestMemoryWrite+0x9a>
  while (__HAL_I2C_GET_FLAG(hi2c, I2C_FLAG_TXE) == RESET)
 8004f3e:	6943      	ldr	r3, [r0, #20]
 8004f40:	061b      	lsls	r3, r3, #24
 8004f42:	f53f af7d 	bmi.w	8004e40 <I2C_RequestMemoryWrite+0x94>
  if (__HAL_I2C_GET_FLAG(hi2c, I2C_FLAG_AF) == SET)
 8004f46:	6943      	ldr	r3, [r0, #20]
 8004f48:	055b      	lsls	r3, r3, #21
 8004f4a:	d4de      	bmi.n	8004f0a <I2C_RequestMemoryWrite+0x15e>
      if (((HAL_GetTick() - Tickstart) > Timeout) || (Timeout == 0U))
 8004f4c:	f7ff fc9c 	bl	8004888 <HAL_GetTick>
 8004f50:	9b09      	ldr	r3, [sp, #36]	; 0x24
 8004f52:	1ac0      	subs	r0, r0, r3
 8004f54:	4284      	cmp	r4, r0
 8004f56:	d310      	bcc.n	8004f7a <I2C_RequestMemoryWrite+0x1ce>
 8004f58:	b17c      	cbz	r4, 8004f7a <I2C_RequestMemoryWrite+0x1ce>
 8004f5a:	6828      	ldr	r0, [r5, #0]
 8004f5c:	e767      	b.n	8004e2e <I2C_RequestMemoryWrite+0x82>
        hi2c->PreviousState     = I2C_STATE_NONE;
 8004f5e:	2200      	movs	r2, #0
        hi2c->State             = HAL_I2C_STATE_READY;
 8004f60:	2320      	movs	r3, #32
        hi2c->PreviousState     = I2C_STATE_NONE;
 8004f62:	632a      	str	r2, [r5, #48]	; 0x30
        hi2c->State             = HAL_I2C_STATE_READY;
 8004f64:	f885 303d 	strb.w	r3, [r5, #61]	; 0x3d
        hi2c->Mode              = HAL_I2C_MODE_NONE;
 8004f68:	f885 203e 	strb.w	r2, [r5, #62]	; 0x3e
        hi2c->ErrorCode         |= HAL_I2C_ERROR_TIMEOUT;
 8004f6c:	6c2b      	ldr	r3, [r5, #64]	; 0x40
        __HAL_UNLOCK(hi2c);
 8004f6e:	f885 203c 	strb.w	r2, [r5, #60]	; 0x3c
        hi2c->ErrorCode         |= HAL_I2C_ERROR_TIMEOUT;
 8004f72:	f043 0320 	orr.w	r3, r3, #32
 8004f76:	642b      	str	r3, [r5, #64]	; 0x40
 8004f78:	e7bb      	b.n	8004ef2 <I2C_RequestMemoryWrite+0x146>
        hi2c->PreviousState     = I2C_STATE_NONE;
 8004f7a:	2200      	movs	r2, #0
        hi2c->State             = HAL_I2C_STATE_READY;
 8004f7c:	2320      	movs	r3, #32
        hi2c->PreviousState     = I2C_STATE_NONE;
 8004f7e:	632a      	str	r2, [r5, #48]	; 0x30
        hi2c->State             = HAL_I2C_STATE_READY;
 8004f80:	f885 303d 	strb.w	r3, [r5, #61]	; 0x3d
        hi2c->Mode              = HAL_I2C_MODE_NONE;
 8004f84:	f885 203e 	strb.w	r2, [r5, #62]	; 0x3e
        hi2c->ErrorCode         |= HAL_I2C_ERROR_TIMEOUT;
 8004f88:	6c2b      	ldr	r3, [r5, #64]	; 0x40
        __HAL_UNLOCK(hi2c);
 8004f8a:	f885 203c 	strb.w	r2, [r5, #60]	; 0x3c
        hi2c->ErrorCode         |= HAL_I2C_ERROR_TIMEOUT;
 8004f8e:	f043 0320 	orr.w	r3, r3, #32
 8004f92:	642b      	str	r3, [r5, #64]	; 0x40
 8004f94:	e7c9      	b.n	8004f2a <I2C_RequestMemoryWrite+0x17e>
 8004f96:	bf00      	nop

08004f98 <I2C_RequestMemoryRead>:
{
 8004f98:	e92d 42f0 	stmdb	sp!, {r4, r5, r6, r7, r9, lr}
 8004f9c:	461f      	mov	r7, r3
 8004f9e:	4605      	mov	r5, r0
  SET_BIT(hi2c->Instance->CR1, I2C_CR1_ACK);
 8004fa0:	6800      	ldr	r0, [r0, #0]
{
 8004fa2:	4689      	mov	r9, r1
  SET_BIT(hi2c->Instance->CR1, I2C_CR1_ACK);
 8004fa4:	6801      	ldr	r1, [r0, #0]
{
 8004fa6:	4616      	mov	r6, r2
  SET_BIT(hi2c->Instance->CR1, I2C_CR1_ACK);
 8004fa8:	f441 6180 	orr.w	r1, r1, #1024	; 0x400
 8004fac:	6001      	str	r1, [r0, #0]
  SET_BIT(hi2c->Instance->CR1, I2C_CR1_START);
 8004fae:	6802      	ldr	r2, [r0, #0]
{
 8004fb0:	b082      	sub	sp, #8
  SET_BIT(hi2c->Instance->CR1, I2C_CR1_START);
 8004fb2:	f442 7280 	orr.w	r2, r2, #256	; 0x100
{
 8004fb6:	9c08      	ldr	r4, [sp, #32]
  SET_BIT(hi2c->Instance->CR1, I2C_CR1_START);
 8004fb8:	6002      	str	r2, [r0, #0]
 8004fba:	1c61      	adds	r1, r4, #1
 8004fbc:	d157      	bne.n	800506e <I2C_RequestMemoryRead+0xd6>
  while (__HAL_I2C_GET_FLAG(hi2c, Flag) == Status)
 8004fbe:	6943      	ldr	r3, [r0, #20]
 8004fc0:	07da      	lsls	r2, r3, #31
 8004fc2:	d5fc      	bpl.n	8004fbe <I2C_RequestMemoryRead+0x26>
  hi2c->Instance->DR = I2C_7BIT_ADD_WRITE(DevAddress);
 8004fc4:	fa5f f989 	uxtb.w	r9, r9
 8004fc8:	f009 03fe 	and.w	r3, r9, #254	; 0xfe
 8004fcc:	6103      	str	r3, [r0, #16]
 8004fce:	1c62      	adds	r2, r4, #1
 8004fd0:	d012      	beq.n	8004ff8 <I2C_RequestMemoryRead+0x60>
  while (__HAL_I2C_GET_FLAG(hi2c, Flag) == RESET)
 8004fd2:	6943      	ldr	r3, [r0, #20]
 8004fd4:	079a      	lsls	r2, r3, #30
 8004fd6:	d412      	bmi.n	8004ffe <I2C_RequestMemoryRead+0x66>
    if (__HAL_I2C_GET_FLAG(hi2c, I2C_FLAG_AF) == SET)
 8004fd8:	6943      	ldr	r3, [r0, #20]
 8004fda:	0559      	lsls	r1, r3, #21
 8004fdc:	d453      	bmi.n	8005086 <I2C_RequestMemoryRead+0xee>
      if (((HAL_GetTick() - Tickstart) > Timeout) || (Timeout == 0U))
 8004fde:	f7ff fc53 	bl	8004888 <HAL_GetTick>
 8004fe2:	9b09      	ldr	r3, [sp, #36]	; 0x24
 8004fe4:	1ac0      	subs	r0, r0, r3
 8004fe6:	4284      	cmp	r4, r0
 8004fe8:	d37c      	bcc.n	80050e4 <I2C_RequestMemoryRead+0x14c>
 8004fea:	2c00      	cmp	r4, #0
 8004fec:	d07a      	beq.n	80050e4 <I2C_RequestMemoryRead+0x14c>
 8004fee:	6828      	ldr	r0, [r5, #0]
 8004ff0:	e7ed      	b.n	8004fce <I2C_RequestMemoryRead+0x36>
    if (__HAL_I2C_GET_FLAG(hi2c, I2C_FLAG_AF) == SET)
 8004ff2:	6943      	ldr	r3, [r0, #20]
 8004ff4:	0559      	lsls	r1, r3, #21
 8004ff6:	d446      	bmi.n	8005086 <I2C_RequestMemoryRead+0xee>
  while (__HAL_I2C_GET_FLAG(hi2c, Flag) == RESET)
 8004ff8:	6943      	ldr	r3, [r0, #20]
 8004ffa:	079b      	lsls	r3, r3, #30
 8004ffc:	d5f9      	bpl.n	8004ff2 <I2C_RequestMemoryRead+0x5a>
  __HAL_I2C_CLEAR_ADDRFLAG(hi2c);
 8004ffe:	2300      	movs	r3, #0
 8005000:	9301      	str	r3, [sp, #4]
 8005002:	6943      	ldr	r3, [r0, #20]
 8005004:	9301      	str	r3, [sp, #4]
 8005006:	6983      	ldr	r3, [r0, #24]
 8005008:	9301      	str	r3, [sp, #4]
 800500a:	9b01      	ldr	r3, [sp, #4]
 800500c:	1c61      	adds	r1, r4, #1
 800500e:	d003      	beq.n	8005018 <I2C_RequestMemoryRead+0x80>
 8005010:	e076      	b.n	8005100 <I2C_RequestMemoryRead+0x168>
  if (__HAL_I2C_GET_FLAG(hi2c, I2C_FLAG_AF) == SET)
 8005012:	6943      	ldr	r3, [r0, #20]
 8005014:	055b      	lsls	r3, r3, #21
 8005016:	d44e      	bmi.n	80050b6 <I2C_RequestMemoryRead+0x11e>
  while (__HAL_I2C_GET_FLAG(hi2c, I2C_FLAG_TXE) == RESET)
 8005018:	6943      	ldr	r3, [r0, #20]
 800501a:	061a      	lsls	r2, r3, #24
 800501c:	d5f9      	bpl.n	8005012 <I2C_RequestMemoryRead+0x7a>
  if (MemAddSize == I2C_MEMADD_SIZE_8BIT)
 800501e:	2f01      	cmp	r7, #1
 8005020:	d17e      	bne.n	8005120 <I2C_RequestMemoryRead+0x188>
    hi2c->Instance->DR = I2C_MEM_ADD_LSB(MemAddress);
 8005022:	b2f6      	uxtb	r6, r6
 8005024:	6106      	str	r6, [r0, #16]
 8005026:	1c67      	adds	r7, r4, #1
 8005028:	d003      	beq.n	8005032 <I2C_RequestMemoryRead+0x9a>
 800502a:	e08d      	b.n	8005148 <I2C_RequestMemoryRead+0x1b0>
  if (__HAL_I2C_GET_FLAG(hi2c, I2C_FLAG_AF) == SET)
 800502c:	6943      	ldr	r3, [r0, #20]
 800502e:	0559      	lsls	r1, r3, #21
 8005030:	d441      	bmi.n	80050b6 <I2C_RequestMemoryRead+0x11e>
  while (__HAL_I2C_GET_FLAG(hi2c, I2C_FLAG_TXE) == RESET)
 8005032:	6943      	ldr	r3, [r0, #20]
 8005034:	061e      	lsls	r6, r3, #24
 8005036:	d5f9      	bpl.n	800502c <I2C_RequestMemoryRead+0x94>
  SET_BIT(hi2c->Instance->CR1, I2C_CR1_START);
 8005038:	6803      	ldr	r3, [r0, #0]
 800503a:	f443 7380 	orr.w	r3, r3, #256	; 0x100
 800503e:	6003      	str	r3, [r0, #0]
 8005040:	1c63      	adds	r3, r4, #1
 8005042:	f040 80a1 	bne.w	8005188 <I2C_RequestMemoryRead+0x1f0>
  while (__HAL_I2C_GET_FLAG(hi2c, Flag) == Status)
 8005046:	6943      	ldr	r3, [r0, #20]
 8005048:	07df      	lsls	r7, r3, #31
 800504a:	d5fc      	bpl.n	8005046 <I2C_RequestMemoryRead+0xae>
  hi2c->Instance->DR = I2C_7BIT_ADD_READ(DevAddress);
 800504c:	f049 0901 	orr.w	r9, r9, #1
 8005050:	f8c0 9010 	str.w	r9, [r0, #16]
 8005054:	1c62      	adds	r2, r4, #1
 8005056:	d003      	beq.n	8005060 <I2C_RequestMemoryRead+0xc8>
 8005058:	e0b2      	b.n	80051c0 <I2C_RequestMemoryRead+0x228>
    if (__HAL_I2C_GET_FLAG(hi2c, I2C_FLAG_AF) == SET)
 800505a:	6943      	ldr	r3, [r0, #20]
 800505c:	055b      	lsls	r3, r3, #21
 800505e:	d412      	bmi.n	8005086 <I2C_RequestMemoryRead+0xee>
  while (__HAL_I2C_GET_FLAG(hi2c, Flag) == RESET)
 8005060:	6943      	ldr	r3, [r0, #20]
 8005062:	43db      	mvns	r3, r3
 8005064:	f013 0302 	ands.w	r3, r3, #2
 8005068:	d1f7      	bne.n	800505a <I2C_RequestMemoryRead+0xc2>
  return HAL_OK;
 800506a:	4618      	mov	r0, r3
 800506c:	e020      	b.n	80050b0 <I2C_RequestMemoryRead+0x118>
  while (__HAL_I2C_GET_FLAG(hi2c, Flag) == Status)
 800506e:	6943      	ldr	r3, [r0, #20]
 8005070:	07db      	lsls	r3, r3, #31
 8005072:	d4a7      	bmi.n	8004fc4 <I2C_RequestMemoryRead+0x2c>
      if (((HAL_GetTick() - Tickstart) > Timeout) || (Timeout == 0U))
 8005074:	f7ff fc08 	bl	8004888 <HAL_GetTick>
 8005078:	9b09      	ldr	r3, [sp, #36]	; 0x24
 800507a:	1ac0      	subs	r0, r0, r3
 800507c:	4284      	cmp	r4, r0
 800507e:	d331      	bcc.n	80050e4 <I2C_RequestMemoryRead+0x14c>
 8005080:	b384      	cbz	r4, 80050e4 <I2C_RequestMemoryRead+0x14c>
 8005082:	6828      	ldr	r0, [r5, #0]
 8005084:	e799      	b.n	8004fba <I2C_RequestMemoryRead+0x22>
      __HAL_I2C_CLEAR_FLAG(hi2c, I2C_FLAG_AF);
 8005086:	f46f 6480 	mvn.w	r4, #1024	; 0x400
      hi2c->PreviousState       = I2C_STATE_NONE;
 800508a:	2200      	movs	r2, #0
      hi2c->State               = HAL_I2C_STATE_READY;
 800508c:	2120      	movs	r1, #32
      SET_BIT(hi2c->Instance->CR1, I2C_CR1_STOP);
 800508e:	6803      	ldr	r3, [r0, #0]
 8005090:	f443 7300 	orr.w	r3, r3, #512	; 0x200
 8005094:	6003      	str	r3, [r0, #0]
      __HAL_I2C_CLEAR_FLAG(hi2c, I2C_FLAG_AF);
 8005096:	6144      	str	r4, [r0, #20]
    return HAL_ERROR;
 8005098:	2001      	movs	r0, #1
      hi2c->PreviousState       = I2C_STATE_NONE;
 800509a:	632a      	str	r2, [r5, #48]	; 0x30
      hi2c->State               = HAL_I2C_STATE_READY;
 800509c:	f885 103d 	strb.w	r1, [r5, #61]	; 0x3d
      hi2c->Mode                = HAL_I2C_MODE_NONE;
 80050a0:	f885 203e 	strb.w	r2, [r5, #62]	; 0x3e
      hi2c->ErrorCode           |= HAL_I2C_ERROR_AF;
 80050a4:	6c2b      	ldr	r3, [r5, #64]	; 0x40
      __HAL_UNLOCK(hi2c);
 80050a6:	f885 203c 	strb.w	r2, [r5, #60]	; 0x3c
      hi2c->ErrorCode           |= HAL_I2C_ERROR_AF;
 80050aa:	f043 0304 	orr.w	r3, r3, #4
 80050ae:	642b      	str	r3, [r5, #64]	; 0x40
}
 80050b0:	b002      	add	sp, #8
 80050b2:	e8bd 82f0 	ldmia.w	sp!, {r4, r5, r6, r7, r9, pc}
    hi2c->PreviousState       = I2C_STATE_NONE;
 80050b6:	2200      	movs	r2, #0
    hi2c->State               = HAL_I2C_STATE_READY;
 80050b8:	2320      	movs	r3, #32
    __HAL_I2C_CLEAR_FLAG(hi2c, I2C_FLAG_AF);
 80050ba:	f46f 6180 	mvn.w	r1, #1024	; 0x400
 80050be:	6141      	str	r1, [r0, #20]
    hi2c->PreviousState       = I2C_STATE_NONE;
 80050c0:	632a      	str	r2, [r5, #48]	; 0x30
    hi2c->State               = HAL_I2C_STATE_READY;
 80050c2:	f885 303d 	strb.w	r3, [r5, #61]	; 0x3d
    hi2c->Mode                = HAL_I2C_MODE_NONE;
 80050c6:	f885 203e 	strb.w	r2, [r5, #62]	; 0x3e
    hi2c->ErrorCode           |= HAL_I2C_ERROR_AF;
 80050ca:	6c2b      	ldr	r3, [r5, #64]	; 0x40
    __HAL_UNLOCK(hi2c);
 80050cc:	f885 203c 	strb.w	r2, [r5, #60]	; 0x3c
    hi2c->ErrorCode           |= HAL_I2C_ERROR_AF;
 80050d0:	f043 0304 	orr.w	r3, r3, #4
 80050d4:	642b      	str	r3, [r5, #64]	; 0x40
    if (hi2c->ErrorCode == HAL_I2C_ERROR_AF)
 80050d6:	6c2b      	ldr	r3, [r5, #64]	; 0x40
 80050d8:	2b04      	cmp	r3, #4
 80050da:	d02e      	beq.n	800513a <I2C_RequestMemoryRead+0x1a2>
    return HAL_ERROR;
 80050dc:	2001      	movs	r0, #1
}
 80050de:	b002      	add	sp, #8
 80050e0:	e8bd 82f0 	ldmia.w	sp!, {r4, r5, r6, r7, r9, pc}
        hi2c->PreviousState     = I2C_STATE_NONE;
 80050e4:	2200      	movs	r2, #0
        hi2c->State             = HAL_I2C_STATE_READY;
 80050e6:	2320      	movs	r3, #32
        hi2c->PreviousState     = I2C_STATE_NONE;
 80050e8:	632a      	str	r2, [r5, #48]	; 0x30
        hi2c->State             = HAL_I2C_STATE_READY;
 80050ea:	f885 303d 	strb.w	r3, [r5, #61]	; 0x3d
        hi2c->Mode              = HAL_I2C_MODE_NONE;
 80050ee:	f885 203e 	strb.w	r2, [r5, #62]	; 0x3e
        hi2c->ErrorCode         |= HAL_I2C_ERROR_TIMEOUT;
 80050f2:	6c2b      	ldr	r3, [r5, #64]	; 0x40
        __HAL_UNLOCK(hi2c);
 80050f4:	f885 203c 	strb.w	r2, [r5, #60]	; 0x3c
        hi2c->ErrorCode         |= HAL_I2C_ERROR_TIMEOUT;
 80050f8:	f043 0320 	orr.w	r3, r3, #32
 80050fc:	642b      	str	r3, [r5, #64]	; 0x40
 80050fe:	e7ed      	b.n	80050dc <I2C_RequestMemoryRead+0x144>
  while (__HAL_I2C_GET_FLAG(hi2c, I2C_FLAG_TXE) == RESET)
 8005100:	6943      	ldr	r3, [r0, #20]
 8005102:	0619      	lsls	r1, r3, #24
 8005104:	d48b      	bmi.n	800501e <I2C_RequestMemoryRead+0x86>
  if (__HAL_I2C_GET_FLAG(hi2c, I2C_FLAG_AF) == SET)
 8005106:	6943      	ldr	r3, [r0, #20]
 8005108:	055b      	lsls	r3, r3, #21
 800510a:	d4d4      	bmi.n	80050b6 <I2C_RequestMemoryRead+0x11e>
      if (((HAL_GetTick() - Tickstart) > Timeout) || (Timeout == 0U))
 800510c:	f7ff fbbc 	bl	8004888 <HAL_GetTick>
 8005110:	9b09      	ldr	r3, [sp, #36]	; 0x24
 8005112:	1ac0      	subs	r0, r0, r3
 8005114:	4284      	cmp	r4, r0
 8005116:	d345      	bcc.n	80051a4 <I2C_RequestMemoryRead+0x20c>
 8005118:	2c00      	cmp	r4, #0
 800511a:	d043      	beq.n	80051a4 <I2C_RequestMemoryRead+0x20c>
 800511c:	6828      	ldr	r0, [r5, #0]
 800511e:	e775      	b.n	800500c <I2C_RequestMemoryRead+0x74>
    hi2c->Instance->DR = I2C_MEM_ADD_MSB(MemAddress);
 8005120:	0a33      	lsrs	r3, r6, #8
 8005122:	6103      	str	r3, [r0, #16]
 8005124:	1c63      	adds	r3, r4, #1
 8005126:	d003      	beq.n	8005130 <I2C_RequestMemoryRead+0x198>
 8005128:	e01e      	b.n	8005168 <I2C_RequestMemoryRead+0x1d0>
  if (__HAL_I2C_GET_FLAG(hi2c, I2C_FLAG_AF) == SET)
 800512a:	6943      	ldr	r3, [r0, #20]
 800512c:	0559      	lsls	r1, r3, #21
 800512e:	d4c2      	bmi.n	80050b6 <I2C_RequestMemoryRead+0x11e>
  while (__HAL_I2C_GET_FLAG(hi2c, I2C_FLAG_TXE) == RESET)
 8005130:	6943      	ldr	r3, [r0, #20]
 8005132:	061f      	lsls	r7, r3, #24
 8005134:	f53f af75 	bmi.w	8005022 <I2C_RequestMemoryRead+0x8a>
 8005138:	e7f7      	b.n	800512a <I2C_RequestMemoryRead+0x192>
      SET_BIT(hi2c->Instance->CR1, I2C_CR1_STOP);
 800513a:	682a      	ldr	r2, [r5, #0]
    return HAL_ERROR;
 800513c:	2001      	movs	r0, #1
      SET_BIT(hi2c->Instance->CR1, I2C_CR1_STOP);
 800513e:	6813      	ldr	r3, [r2, #0]
 8005140:	f443 7300 	orr.w	r3, r3, #512	; 0x200
 8005144:	6013      	str	r3, [r2, #0]
 8005146:	e7b3      	b.n	80050b0 <I2C_RequestMemoryRead+0x118>
  while (__HAL_I2C_GET_FLAG(hi2c, I2C_FLAG_TXE) == RESET)
 8005148:	6943      	ldr	r3, [r0, #20]
 800514a:	061a      	lsls	r2, r3, #24
 800514c:	f53f af74 	bmi.w	8005038 <I2C_RequestMemoryRead+0xa0>
  if (__HAL_I2C_GET_FLAG(hi2c, I2C_FLAG_AF) == SET)
 8005150:	6943      	ldr	r3, [r0, #20]
 8005152:	055b      	lsls	r3, r3, #21
 8005154:	d4af      	bmi.n	80050b6 <I2C_RequestMemoryRead+0x11e>
      if (((HAL_GetTick() - Tickstart) > Timeout) || (Timeout == 0U))
 8005156:	f7ff fb97 	bl	8004888 <HAL_GetTick>
 800515a:	9b09      	ldr	r3, [sp, #36]	; 0x24
 800515c:	1ac0      	subs	r0, r0, r3
 800515e:	4284      	cmp	r4, r0
 8005160:	d320      	bcc.n	80051a4 <I2C_RequestMemoryRead+0x20c>
 8005162:	b1fc      	cbz	r4, 80051a4 <I2C_RequestMemoryRead+0x20c>
 8005164:	6828      	ldr	r0, [r5, #0]
 8005166:	e75e      	b.n	8005026 <I2C_RequestMemoryRead+0x8e>
  while (__HAL_I2C_GET_FLAG(hi2c, I2C_FLAG_TXE) == RESET)
 8005168:	6943      	ldr	r3, [r0, #20]
 800516a:	061a      	lsls	r2, r3, #24
 800516c:	f53f af59 	bmi.w	8005022 <I2C_RequestMemoryRead+0x8a>
  if (__HAL_I2C_GET_FLAG(hi2c, I2C_FLAG_AF) == SET)
 8005170:	6943      	ldr	r3, [r0, #20]
 8005172:	055a      	lsls	r2, r3, #21
 8005174:	d49f      	bmi.n	80050b6 <I2C_RequestMemoryRead+0x11e>
      if (((HAL_GetTick() - Tickstart) > Timeout) || (Timeout == 0U))
 8005176:	f7ff fb87 	bl	8004888 <HAL_GetTick>
 800517a:	9b09      	ldr	r3, [sp, #36]	; 0x24
 800517c:	1ac0      	subs	r0, r0, r3
 800517e:	4284      	cmp	r4, r0
 8005180:	d310      	bcc.n	80051a4 <I2C_RequestMemoryRead+0x20c>
 8005182:	b17c      	cbz	r4, 80051a4 <I2C_RequestMemoryRead+0x20c>
 8005184:	6828      	ldr	r0, [r5, #0]
 8005186:	e7cd      	b.n	8005124 <I2C_RequestMemoryRead+0x18c>
  while (__HAL_I2C_GET_FLAG(hi2c, Flag) == Status)
 8005188:	6943      	ldr	r3, [r0, #20]
 800518a:	07de      	lsls	r6, r3, #31
 800518c:	f53f af5e 	bmi.w	800504c <I2C_RequestMemoryRead+0xb4>
      if (((HAL_GetTick() - Tickstart) > Timeout) || (Timeout == 0U))
 8005190:	f7ff fb7a 	bl	8004888 <HAL_GetTick>
 8005194:	9b09      	ldr	r3, [sp, #36]	; 0x24
 8005196:	1ac0      	subs	r0, r0, r3
 8005198:	4284      	cmp	r4, r0
 800519a:	d3a3      	bcc.n	80050e4 <I2C_RequestMemoryRead+0x14c>
 800519c:	2c00      	cmp	r4, #0
 800519e:	d0a1      	beq.n	80050e4 <I2C_RequestMemoryRead+0x14c>
 80051a0:	6828      	ldr	r0, [r5, #0]
 80051a2:	e74d      	b.n	8005040 <I2C_RequestMemoryRead+0xa8>
        hi2c->PreviousState     = I2C_STATE_NONE;
 80051a4:	2200      	movs	r2, #0
        hi2c->State             = HAL_I2C_STATE_READY;
 80051a6:	2320      	movs	r3, #32
        hi2c->PreviousState     = I2C_STATE_NONE;
 80051a8:	632a      	str	r2, [r5, #48]	; 0x30
        hi2c->State             = HAL_I2C_STATE_READY;
 80051aa:	f885 303d 	strb.w	r3, [r5, #61]	; 0x3d
        hi2c->Mode              = HAL_I2C_MODE_NONE;
 80051ae:	f885 203e 	strb.w	r2, [r5, #62]	; 0x3e
        hi2c->ErrorCode         |= HAL_I2C_ERROR_TIMEOUT;
 80051b2:	6c2b      	ldr	r3, [r5, #64]	; 0x40
        __HAL_UNLOCK(hi2c);
 80051b4:	f885 203c 	strb.w	r2, [r5, #60]	; 0x3c
        hi2c->ErrorCode         |= HAL_I2C_ERROR_TIMEOUT;
 80051b8:	f043 0320 	orr.w	r3, r3, #32
 80051bc:	642b      	str	r3, [r5, #64]	; 0x40
 80051be:	e78a      	b.n	80050d6 <I2C_RequestMemoryRead+0x13e>
  while (__HAL_I2C_GET_FLAG(hi2c, Flag) == RESET)
 80051c0:	6943      	ldr	r3, [r0, #20]
 80051c2:	43db      	mvns	r3, r3
 80051c4:	f013 0302 	ands.w	r3, r3, #2
 80051c8:	f43f af4f 	beq.w	800506a <I2C_RequestMemoryRead+0xd2>
    if (__HAL_I2C_GET_FLAG(hi2c, I2C_FLAG_AF) == SET)
 80051cc:	6943      	ldr	r3, [r0, #20]
 80051ce:	0559      	lsls	r1, r3, #21
 80051d0:	f53f af59 	bmi.w	8005086 <I2C_RequestMemoryRead+0xee>
      if (((HAL_GetTick() - Tickstart) > Timeout) || (Timeout == 0U))
 80051d4:	f7ff fb58 	bl	8004888 <HAL_GetTick>
 80051d8:	9b09      	ldr	r3, [sp, #36]	; 0x24
 80051da:	1ac0      	subs	r0, r0, r3
 80051dc:	4284      	cmp	r4, r0
 80051de:	d381      	bcc.n	80050e4 <I2C_RequestMemoryRead+0x14c>
 80051e0:	2c00      	cmp	r4, #0
 80051e2:	f43f af7f 	beq.w	80050e4 <I2C_RequestMemoryRead+0x14c>
 80051e6:	6828      	ldr	r0, [r5, #0]
 80051e8:	e734      	b.n	8005054 <I2C_RequestMemoryRead+0xbc>
 80051ea:	bf00      	nop

080051ec <HAL_I2C_Init>:
  if (hi2c == NULL)
 80051ec:	2800      	cmp	r0, #0
 80051ee:	f000 8097 	beq.w	8005320 <HAL_I2C_Init+0x134>
{
 80051f2:	b5f8      	push	{r3, r4, r5, r6, r7, lr}
  if (hi2c->State == HAL_I2C_STATE_RESET)
 80051f4:	f890 303d 	ldrb.w	r3, [r0, #61]	; 0x3d
 80051f8:	4604      	mov	r4, r0
 80051fa:	f003 02ff 	and.w	r2, r3, #255	; 0xff
 80051fe:	2b00      	cmp	r3, #0
 8005200:	f000 8087 	beq.w	8005312 <HAL_I2C_Init+0x126>
  hi2c->State = HAL_I2C_STATE_BUSY;
 8005204:	2324      	movs	r3, #36	; 0x24
  __HAL_I2C_DISABLE(hi2c);
 8005206:	6822      	ldr	r2, [r4, #0]
  hi2c->State = HAL_I2C_STATE_BUSY;
 8005208:	f884 303d 	strb.w	r3, [r4, #61]	; 0x3d
  __HAL_I2C_DISABLE(hi2c);
 800520c:	6813      	ldr	r3, [r2, #0]
 800520e:	f023 0301 	bic.w	r3, r3, #1
 8005212:	6013      	str	r3, [r2, #0]
  pclk1 = HAL_RCC_GetPCLK1Freq();
 8005214:	f001 fa6c 	bl	80066f0 <HAL_RCC_GetPCLK1Freq>
  if (I2C_MIN_PCLK_FREQ(pclk1, hi2c->Init.ClockSpeed) == 1U)
 8005218:	6862      	ldr	r2, [r4, #4]
 800521a:	4b4b      	ldr	r3, [pc, #300]	; (8005348 <HAL_I2C_Init+0x15c>)
 800521c:	429a      	cmp	r2, r3
 800521e:	d84b      	bhi.n	80052b8 <HAL_I2C_Init+0xcc>
 8005220:	4b4a      	ldr	r3, [pc, #296]	; (800534c <HAL_I2C_Init+0x160>)
 8005222:	4298      	cmp	r0, r3
 8005224:	d97a      	bls.n	800531c <HAL_I2C_Init+0x130>
  MODIFY_REG(hi2c->Instance->CCR, (I2C_CCR_FS | I2C_CCR_DUTY | I2C_CCR_CCR), I2C_SPEED(pclk1, hi2c->Init.ClockSpeed, hi2c->Init.DutyCycle));
 8005226:	1e43      	subs	r3, r0, #1
 8005228:	0052      	lsls	r2, r2, #1
 800522a:	fbb3 f2f2 	udiv	r2, r3, r2
  freqrange = I2C_FREQRANGE(pclk1);
 800522e:	4948      	ldr	r1, [pc, #288]	; (8005350 <HAL_I2C_Init+0x164>)
  MODIFY_REG(hi2c->Instance->CR2, I2C_CR2_FREQ, freqrange);
 8005230:	6823      	ldr	r3, [r4, #0]
  freqrange = I2C_FREQRANGE(pclk1);
 8005232:	fba1 1000 	umull	r1, r0, r1, r0
  MODIFY_REG(hi2c->Instance->CR2, I2C_CR2_FREQ, freqrange);
 8005236:	6859      	ldr	r1, [r3, #4]
  freqrange = I2C_FREQRANGE(pclk1);
 8005238:	0c80      	lsrs	r0, r0, #18
  MODIFY_REG(hi2c->Instance->CR2, I2C_CR2_FREQ, freqrange);
 800523a:	f021 013f 	bic.w	r1, r1, #63	; 0x3f
 800523e:	4301      	orrs	r1, r0
 8005240:	6059      	str	r1, [r3, #4]
  MODIFY_REG(hi2c->Instance->TRISE, I2C_TRISE_TRISE, I2C_RISE_TIME(freqrange, hi2c->Init.ClockSpeed));
 8005242:	6a19      	ldr	r1, [r3, #32]
 8005244:	3001      	adds	r0, #1
 8005246:	f021 013f 	bic.w	r1, r1, #63	; 0x3f
 800524a:	4308      	orrs	r0, r1
 800524c:	6218      	str	r0, [r3, #32]
  MODIFY_REG(hi2c->Instance->CCR, (I2C_CCR_FS | I2C_CCR_DUTY | I2C_CCR_CCR), I2C_SPEED(pclk1, hi2c->Init.ClockSpeed, hi2c->Init.DutyCycle));
 800524e:	1c50      	adds	r0, r2, #1
 8005250:	f3c0 000b 	ubfx	r0, r0, #0, #12
 8005254:	2804      	cmp	r0, #4
 8005256:	bf38      	it	cc
 8005258:	2004      	movcc	r0, #4
 800525a:	69d9      	ldr	r1, [r3, #28]
 800525c:	f421 414f 	bic.w	r1, r1, #52992	; 0xcf00
 8005260:	f021 01ff 	bic.w	r1, r1, #255	; 0xff
  hi2c->ErrorCode = HAL_I2C_ERROR_NONE;
 8005264:	2500      	movs	r5, #0
  hi2c->State = HAL_I2C_STATE_READY;
 8005266:	2620      	movs	r6, #32
  MODIFY_REG(hi2c->Instance->CCR, (I2C_CCR_FS | I2C_CCR_DUTY | I2C_CCR_CCR), I2C_SPEED(pclk1, hi2c->Init.ClockSpeed, hi2c->Init.DutyCycle));
 8005268:	4308      	orrs	r0, r1
 800526a:	61d8      	str	r0, [r3, #28]
  MODIFY_REG(hi2c->Instance->CR1, (I2C_CR1_ENGC | I2C_CR1_NOSTRETCH), (hi2c->Init.GeneralCallMode | hi2c->Init.NoStretchMode));
 800526c:	6819      	ldr	r1, [r3, #0]
 800526e:	e9d4 2007 	ldrd	r2, r0, [r4, #28]
 8005272:	f021 01c0 	bic.w	r1, r1, #192	; 0xc0
 8005276:	4302      	orrs	r2, r0
 8005278:	430a      	orrs	r2, r1
 800527a:	601a      	str	r2, [r3, #0]
  MODIFY_REG(hi2c->Instance->OAR1, (I2C_OAR1_ADDMODE | I2C_OAR1_ADD8_9 | I2C_OAR1_ADD1_7 | I2C_OAR1_ADD0), (hi2c->Init.AddressingMode | hi2c->Init.OwnAddress1));
 800527c:	6899      	ldr	r1, [r3, #8]
 800527e:	e9d4 0203 	ldrd	r0, r2, [r4, #12]
 8005282:	f421 4103 	bic.w	r1, r1, #33536	; 0x8300
 8005286:	f021 01ff 	bic.w	r1, r1, #255	; 0xff
 800528a:	4302      	orrs	r2, r0
 800528c:	430a      	orrs	r2, r1
 800528e:	609a      	str	r2, [r3, #8]
  MODIFY_REG(hi2c->Instance->OAR2, (I2C_OAR2_ENDUAL | I2C_OAR2_ADD2), (hi2c->Init.DualAddressMode | hi2c->Init.OwnAddress2));
 8005290:	68d9      	ldr	r1, [r3, #12]
 8005292:	e9d4 2005 	ldrd	r2, r0, [r4, #20]
 8005296:	f021 01ff 	bic.w	r1, r1, #255	; 0xff
 800529a:	4302      	orrs	r2, r0
 800529c:	430a      	orrs	r2, r1
 800529e:	60da      	str	r2, [r3, #12]
  __HAL_I2C_ENABLE(hi2c);
 80052a0:	681a      	ldr	r2, [r3, #0]
  return HAL_OK;
 80052a2:	4628      	mov	r0, r5
  __HAL_I2C_ENABLE(hi2c);
 80052a4:	f042 0201 	orr.w	r2, r2, #1
 80052a8:	601a      	str	r2, [r3, #0]
  hi2c->ErrorCode = HAL_I2C_ERROR_NONE;
 80052aa:	6425      	str	r5, [r4, #64]	; 0x40
  hi2c->State = HAL_I2C_STATE_READY;
 80052ac:	f884 603d 	strb.w	r6, [r4, #61]	; 0x3d
  hi2c->PreviousState = I2C_STATE_NONE;
 80052b0:	6325      	str	r5, [r4, #48]	; 0x30
  hi2c->Mode = HAL_I2C_MODE_NONE;
 80052b2:	f884 503e 	strb.w	r5, [r4, #62]	; 0x3e
}
 80052b6:	bdf8      	pop	{r3, r4, r5, r6, r7, pc}
  if (I2C_MIN_PCLK_FREQ(pclk1, hi2c->Init.ClockSpeed) == 1U)
 80052b8:	4b26      	ldr	r3, [pc, #152]	; (8005354 <HAL_I2C_Init+0x168>)
 80052ba:	4298      	cmp	r0, r3
 80052bc:	d92e      	bls.n	800531c <HAL_I2C_Init+0x130>
  MODIFY_REG(hi2c->Instance->TRISE, I2C_TRISE_TRISE, I2C_RISE_TIME(freqrange, hi2c->Init.ClockSpeed));
 80052be:	f44f 7196 	mov.w	r1, #300	; 0x12c
  freqrange = I2C_FREQRANGE(pclk1);
 80052c2:	4d23      	ldr	r5, [pc, #140]	; (8005350 <HAL_I2C_Init+0x164>)
  MODIFY_REG(hi2c->Instance->CR2, I2C_CR2_FREQ, freqrange);
 80052c4:	6823      	ldr	r3, [r4, #0]
  freqrange = I2C_FREQRANGE(pclk1);
 80052c6:	fba5 6500 	umull	r6, r5, r5, r0
 80052ca:	0cad      	lsrs	r5, r5, #18
  MODIFY_REG(hi2c->Instance->TRISE, I2C_TRISE_TRISE, I2C_RISE_TIME(freqrange, hi2c->Init.ClockSpeed));
 80052cc:	fb01 f105 	mul.w	r1, r1, r5
  MODIFY_REG(hi2c->Instance->CR2, I2C_CR2_FREQ, freqrange);
 80052d0:	685e      	ldr	r6, [r3, #4]
  MODIFY_REG(hi2c->Instance->TRISE, I2C_TRISE_TRISE, I2C_RISE_TIME(freqrange, hi2c->Init.ClockSpeed));
 80052d2:	4f21      	ldr	r7, [pc, #132]	; (8005358 <HAL_I2C_Init+0x16c>)
  MODIFY_REG(hi2c->Instance->CR2, I2C_CR2_FREQ, freqrange);
 80052d4:	f026 063f 	bic.w	r6, r6, #63	; 0x3f
  MODIFY_REG(hi2c->Instance->TRISE, I2C_TRISE_TRISE, I2C_RISE_TIME(freqrange, hi2c->Init.ClockSpeed));
 80052d8:	fba7 7101 	umull	r7, r1, r7, r1
  MODIFY_REG(hi2c->Instance->CR2, I2C_CR2_FREQ, freqrange);
 80052dc:	4335      	orrs	r5, r6
 80052de:	605d      	str	r5, [r3, #4]
  MODIFY_REG(hi2c->Instance->TRISE, I2C_TRISE_TRISE, I2C_RISE_TIME(freqrange, hi2c->Init.ClockSpeed));
 80052e0:	6a1d      	ldr	r5, [r3, #32]
 80052e2:	0989      	lsrs	r1, r1, #6
 80052e4:	f025 053f 	bic.w	r5, r5, #63	; 0x3f
 80052e8:	3101      	adds	r1, #1
 80052ea:	4329      	orrs	r1, r5
 80052ec:	6219      	str	r1, [r3, #32]
  MODIFY_REG(hi2c->Instance->CCR, (I2C_CCR_FS | I2C_CCR_DUTY | I2C_CCR_CCR), I2C_SPEED(pclk1, hi2c->Init.ClockSpeed, hi2c->Init.DutyCycle));
 80052ee:	69d9      	ldr	r1, [r3, #28]
 80052f0:	68a5      	ldr	r5, [r4, #8]
 80052f2:	f421 414f 	bic.w	r1, r1, #52992	; 0xcf00
 80052f6:	3801      	subs	r0, #1
 80052f8:	f021 01ff 	bic.w	r1, r1, #255	; 0xff
 80052fc:	b995      	cbnz	r5, 8005324 <HAL_I2C_Init+0x138>
 80052fe:	eb02 0242 	add.w	r2, r2, r2, lsl #1
 8005302:	fbb0 f0f2 	udiv	r0, r0, r2
 8005306:	3001      	adds	r0, #1
 8005308:	f3c0 000b 	ubfx	r0, r0, #0, #12
 800530c:	b9c0      	cbnz	r0, 8005340 <HAL_I2C_Init+0x154>
 800530e:	2001      	movs	r0, #1
 8005310:	e7a8      	b.n	8005264 <HAL_I2C_Init+0x78>
    hi2c->Lock = HAL_UNLOCKED;
 8005312:	f880 203c 	strb.w	r2, [r0, #60]	; 0x3c
    HAL_I2C_MspInit(hi2c);
 8005316:	f7fd fad5 	bl	80028c4 <HAL_I2C_MspInit>
 800531a:	e773      	b.n	8005204 <HAL_I2C_Init+0x18>
    return HAL_ERROR;
 800531c:	2001      	movs	r0, #1
}
 800531e:	bdf8      	pop	{r3, r4, r5, r6, r7, pc}
    return HAL_ERROR;
 8005320:	2001      	movs	r0, #1
}
 8005322:	4770      	bx	lr
  MODIFY_REG(hi2c->Instance->CCR, (I2C_CCR_FS | I2C_CCR_DUTY | I2C_CCR_CCR), I2C_SPEED(pclk1, hi2c->Init.ClockSpeed, hi2c->Init.DutyCycle));
 8005324:	eb02 0282 	add.w	r2, r2, r2, lsl #2
 8005328:	eb02 0282 	add.w	r2, r2, r2, lsl #2
 800532c:	fbb0 f0f2 	udiv	r0, r0, r2
 8005330:	3001      	adds	r0, #1
 8005332:	f3c0 000b 	ubfx	r0, r0, #0, #12
 8005336:	2800      	cmp	r0, #0
 8005338:	d0e9      	beq.n	800530e <HAL_I2C_Init+0x122>
 800533a:	f440 4040 	orr.w	r0, r0, #49152	; 0xc000
 800533e:	e791      	b.n	8005264 <HAL_I2C_Init+0x78>
 8005340:	f440 4000 	orr.w	r0, r0, #32768	; 0x8000
 8005344:	e78e      	b.n	8005264 <HAL_I2C_Init+0x78>
 8005346:	bf00      	nop
 8005348:	000186a0 	.word	0x000186a0
 800534c:	001e847f 	.word	0x001e847f
 8005350:	431bde83 	.word	0x431bde83
 8005354:	003d08ff 	.word	0x003d08ff
 8005358:	10624dd3 	.word	0x10624dd3

0800535c <HAL_I2C_Mem_Write>:
{
 800535c:	e92d 4ff0 	stmdb	sp!, {r4, r5, r6, r7, r8, r9, sl, fp, lr}
 8005360:	4604      	mov	r4, r0
 8005362:	b083      	sub	sp, #12
 8005364:	469a      	mov	sl, r3
 8005366:	460f      	mov	r7, r1
 8005368:	4690      	mov	r8, r2
 800536a:	f8bd 9034 	ldrh.w	r9, [sp, #52]	; 0x34
 800536e:	9e0e      	ldr	r6, [sp, #56]	; 0x38
  uint32_t tickstart = HAL_GetTick();
 8005370:	f7ff fa8a 	bl	8004888 <HAL_GetTick>
  if (hi2c->State == HAL_I2C_STATE_READY)
 8005374:	f894 303d 	ldrb.w	r3, [r4, #61]	; 0x3d
 8005378:	2b20      	cmp	r3, #32
 800537a:	d004      	beq.n	8005386 <HAL_I2C_Mem_Write+0x2a>
      return HAL_BUSY;
 800537c:	2702      	movs	r7, #2
}
 800537e:	4638      	mov	r0, r7
 8005380:	b003      	add	sp, #12
 8005382:	e8bd 8ff0 	ldmia.w	sp!, {r4, r5, r6, r7, r8, r9, sl, fp, pc}
 8005386:	4605      	mov	r5, r0
 8005388:	e005      	b.n	8005396 <HAL_I2C_Mem_Write+0x3a>
      if (((HAL_GetTick() - Tickstart) > Timeout) || (Timeout == 0U))
 800538a:	f7ff fa7d 	bl	8004888 <HAL_GetTick>
 800538e:	1b40      	subs	r0, r0, r5
 8005390:	2819      	cmp	r0, #25
 8005392:	f200 80a6 	bhi.w	80054e2 <HAL_I2C_Mem_Write+0x186>
  while (__HAL_I2C_GET_FLAG(hi2c, Flag) == Status)
 8005396:	6822      	ldr	r2, [r4, #0]
 8005398:	6993      	ldr	r3, [r2, #24]
 800539a:	43db      	mvns	r3, r3
 800539c:	f013 0b02 	ands.w	fp, r3, #2
 80053a0:	d0f3      	beq.n	800538a <HAL_I2C_Mem_Write+0x2e>
    __HAL_LOCK(hi2c);
 80053a2:	f894 303c 	ldrb.w	r3, [r4, #60]	; 0x3c
 80053a6:	2b01      	cmp	r3, #1
 80053a8:	d0e8      	beq.n	800537c <HAL_I2C_Mem_Write+0x20>
 80053aa:	2101      	movs	r1, #1
    if ((hi2c->Instance->CR1 & I2C_CR1_PE) != I2C_CR1_PE)
 80053ac:	6813      	ldr	r3, [r2, #0]
    __HAL_LOCK(hi2c);
 80053ae:	f884 103c 	strb.w	r1, [r4, #60]	; 0x3c
    if ((hi2c->Instance->CR1 & I2C_CR1_PE) != I2C_CR1_PE)
 80053b2:	07d8      	lsls	r0, r3, #31
 80053b4:	d402      	bmi.n	80053bc <HAL_I2C_Mem_Write+0x60>
      __HAL_I2C_ENABLE(hi2c);
 80053b6:	6813      	ldr	r3, [r2, #0]
 80053b8:	430b      	orrs	r3, r1
 80053ba:	6013      	str	r3, [r2, #0]
    hi2c->State     = HAL_I2C_STATE_BUSY_TX;
 80053bc:	f04f 0e21 	mov.w	lr, #33	; 0x21
    hi2c->Mode      = HAL_I2C_MODE_MEM;
 80053c0:	f04f 0c40 	mov.w	ip, #64	; 0x40
    hi2c->ErrorCode = HAL_I2C_ERROR_NONE;
 80053c4:	2000      	movs	r0, #0
    CLEAR_BIT(hi2c->Instance->CR1, I2C_CR1_POS);
 80053c6:	6811      	ldr	r1, [r2, #0]
    if (I2C_RequestMemoryWrite(hi2c, DevAddress, MemAddress, MemAddSize, Timeout, tickstart) != HAL_OK)
 80053c8:	4653      	mov	r3, sl
    CLEAR_BIT(hi2c->Instance->CR1, I2C_CR1_POS);
 80053ca:	f421 6100 	bic.w	r1, r1, #2048	; 0x800
 80053ce:	6011      	str	r1, [r2, #0]
    hi2c->State     = HAL_I2C_STATE_BUSY_TX;
 80053d0:	f884 e03d 	strb.w	lr, [r4, #61]	; 0x3d
    hi2c->Mode      = HAL_I2C_MODE_MEM;
 80053d4:	f884 c03e 	strb.w	ip, [r4, #62]	; 0x3e
    hi2c->ErrorCode = HAL_I2C_ERROR_NONE;
 80053d8:	6420      	str	r0, [r4, #64]	; 0x40
    hi2c->XferCount   = Size;
 80053da:	f8a4 902a 	strh.w	r9, [r4, #42]	; 0x2a
    hi2c->XferSize    = hi2c->XferCount;
 80053de:	f8b4 c02a 	ldrh.w	ip, [r4, #42]	; 0x2a
    if (I2C_RequestMemoryWrite(hi2c, DevAddress, MemAddress, MemAddSize, Timeout, tickstart) != HAL_OK)
 80053e2:	4639      	mov	r1, r7
    hi2c->pBuffPtr    = pData;
 80053e4:	9f0c      	ldr	r7, [sp, #48]	; 0x30
    hi2c->XferOptions = I2C_NO_OPTION_FRAME;
 80053e6:	f5a0 3080 	sub.w	r0, r0, #65536	; 0x10000
    hi2c->pBuffPtr    = pData;
 80053ea:	6267      	str	r7, [r4, #36]	; 0x24
    if (I2C_RequestMemoryWrite(hi2c, DevAddress, MemAddress, MemAddSize, Timeout, tickstart) != HAL_OK)
 80053ec:	4642      	mov	r2, r8
 80053ee:	e9cd 6500 	strd	r6, r5, [sp]
    hi2c->XferOptions = I2C_NO_OPTION_FRAME;
 80053f2:	62e0      	str	r0, [r4, #44]	; 0x2c
    hi2c->XferSize    = hi2c->XferCount;
 80053f4:	f8a4 c028 	strh.w	ip, [r4, #40]	; 0x28
    if (I2C_RequestMemoryWrite(hi2c, DevAddress, MemAddress, MemAddSize, Timeout, tickstart) != HAL_OK)
 80053f8:	4620      	mov	r0, r4
 80053fa:	f7ff fcd7 	bl	8004dac <I2C_RequestMemoryWrite>
 80053fe:	4607      	mov	r7, r0
 8005400:	2800      	cmp	r0, #0
 8005402:	d14b      	bne.n	800549c <HAL_I2C_Mem_Write+0x140>
 8005404:	6823      	ldr	r3, [r4, #0]
 8005406:	8d22      	ldrh	r2, [r4, #40]	; 0x28
    while (hi2c->XferSize > 0U)
 8005408:	b1fa      	cbz	r2, 800544a <HAL_I2C_Mem_Write+0xee>
 800540a:	1c72      	adds	r2, r6, #1
 800540c:	d003      	beq.n	8005416 <HAL_I2C_Mem_Write+0xba>
 800540e:	e04a      	b.n	80054a6 <HAL_I2C_Mem_Write+0x14a>
  if (__HAL_I2C_GET_FLAG(hi2c, I2C_FLAG_AF) == SET)
 8005410:	695a      	ldr	r2, [r3, #20]
 8005412:	0551      	lsls	r1, r2, #21
 8005414:	d42f      	bmi.n	8005476 <HAL_I2C_Mem_Write+0x11a>
  while (__HAL_I2C_GET_FLAG(hi2c, I2C_FLAG_TXE) == RESET)
 8005416:	695a      	ldr	r2, [r3, #20]
 8005418:	0610      	lsls	r0, r2, #24
 800541a:	d5f9      	bpl.n	8005410 <HAL_I2C_Mem_Write+0xb4>
      hi2c->Instance->DR = *hi2c->pBuffPtr;
 800541c:	f8d4 e024 	ldr.w	lr, [r4, #36]	; 0x24
      hi2c->XferSize--;
 8005420:	f8b4 8028 	ldrh.w	r8, [r4, #40]	; 0x28
      hi2c->Instance->DR = *hi2c->pBuffPtr;
 8005424:	46f4      	mov	ip, lr
 8005426:	f81c 1b01 	ldrb.w	r1, [ip], #1
      hi2c->XferSize--;
 800542a:	f108 32ff 	add.w	r2, r8, #4294967295
      hi2c->Instance->DR = *hi2c->pBuffPtr;
 800542e:	6119      	str	r1, [r3, #16]
      hi2c->XferCount--;
 8005430:	8d61      	ldrh	r1, [r4, #42]	; 0x2a
      hi2c->XferSize--;
 8005432:	b292      	uxth	r2, r2
      hi2c->XferCount--;
 8005434:	3901      	subs	r1, #1
 8005436:	b289      	uxth	r1, r1
 8005438:	8561      	strh	r1, [r4, #42]	; 0x2a
      if ((__HAL_I2C_GET_FLAG(hi2c, I2C_FLAG_BTF) == SET) && (hi2c->XferSize != 0U))
 800543a:	6958      	ldr	r0, [r3, #20]
      hi2c->pBuffPtr++;
 800543c:	f8c4 c024 	str.w	ip, [r4, #36]	; 0x24
      if ((__HAL_I2C_GET_FLAG(hi2c, I2C_FLAG_BTF) == SET) && (hi2c->XferSize != 0U))
 8005440:	0740      	lsls	r0, r0, #29
      hi2c->XferSize--;
 8005442:	8522      	strh	r2, [r4, #40]	; 0x28
      if ((__HAL_I2C_GET_FLAG(hi2c, I2C_FLAG_BTF) == SET) && (hi2c->XferSize != 0U))
 8005444:	d5e0      	bpl.n	8005408 <HAL_I2C_Mem_Write+0xac>
 8005446:	2a00      	cmp	r2, #0
 8005448:	d13c      	bne.n	80054c4 <HAL_I2C_Mem_Write+0x168>
 800544a:	1c72      	adds	r2, r6, #1
 800544c:	d003      	beq.n	8005456 <HAL_I2C_Mem_Write+0xfa>
 800544e:	e05d      	b.n	800550c <HAL_I2C_Mem_Write+0x1b0>
  if (__HAL_I2C_GET_FLAG(hi2c, I2C_FLAG_AF) == SET)
 8005450:	695a      	ldr	r2, [r3, #20]
 8005452:	0551      	lsls	r1, r2, #21
 8005454:	d468      	bmi.n	8005528 <HAL_I2C_Mem_Write+0x1cc>
  while (__HAL_I2C_GET_FLAG(hi2c, I2C_FLAG_BTF) == RESET)
 8005456:	695a      	ldr	r2, [r3, #20]
 8005458:	0750      	lsls	r0, r2, #29
 800545a:	d5f9      	bpl.n	8005450 <HAL_I2C_Mem_Write+0xf4>
    hi2c->Mode = HAL_I2C_MODE_NONE;
 800545c:	2100      	movs	r1, #0
    hi2c->State = HAL_I2C_STATE_READY;
 800545e:	2020      	movs	r0, #32
    SET_BIT(hi2c->Instance->CR1, I2C_CR1_STOP);
 8005460:	681a      	ldr	r2, [r3, #0]
 8005462:	f442 7200 	orr.w	r2, r2, #512	; 0x200
 8005466:	601a      	str	r2, [r3, #0]
    hi2c->State = HAL_I2C_STATE_READY;
 8005468:	f884 003d 	strb.w	r0, [r4, #61]	; 0x3d
    __HAL_UNLOCK(hi2c);
 800546c:	f884 103c 	strb.w	r1, [r4, #60]	; 0x3c
    hi2c->Mode = HAL_I2C_MODE_NONE;
 8005470:	f884 103e 	strb.w	r1, [r4, #62]	; 0x3e
    return HAL_OK;
 8005474:	e783      	b.n	800537e <HAL_I2C_Mem_Write+0x22>
    hi2c->PreviousState       = I2C_STATE_NONE;
 8005476:	2200      	movs	r2, #0
    __HAL_I2C_CLEAR_FLAG(hi2c, I2C_FLAG_AF);
 8005478:	f46f 6080 	mvn.w	r0, #1024	; 0x400
    hi2c->State               = HAL_I2C_STATE_READY;
 800547c:	2120      	movs	r1, #32
    __HAL_I2C_CLEAR_FLAG(hi2c, I2C_FLAG_AF);
 800547e:	6158      	str	r0, [r3, #20]
    hi2c->PreviousState       = I2C_STATE_NONE;
 8005480:	6322      	str	r2, [r4, #48]	; 0x30
    hi2c->State               = HAL_I2C_STATE_READY;
 8005482:	f884 103d 	strb.w	r1, [r4, #61]	; 0x3d
    hi2c->Mode                = HAL_I2C_MODE_NONE;
 8005486:	f884 203e 	strb.w	r2, [r4, #62]	; 0x3e
    hi2c->ErrorCode           |= HAL_I2C_ERROR_AF;
 800548a:	6c23      	ldr	r3, [r4, #64]	; 0x40
    __HAL_UNLOCK(hi2c);
 800548c:	f884 203c 	strb.w	r2, [r4, #60]	; 0x3c
    hi2c->ErrorCode           |= HAL_I2C_ERROR_AF;
 8005490:	f043 0304 	orr.w	r3, r3, #4
 8005494:	6423      	str	r3, [r4, #64]	; 0x40
        if (hi2c->ErrorCode == HAL_I2C_ERROR_AF)
 8005496:	6c23      	ldr	r3, [r4, #64]	; 0x40
 8005498:	2b04      	cmp	r3, #4
 800549a:	d030      	beq.n	80054fe <HAL_I2C_Mem_Write+0x1a2>
      return HAL_ERROR;
 800549c:	2701      	movs	r7, #1
}
 800549e:	4638      	mov	r0, r7
 80054a0:	b003      	add	sp, #12
 80054a2:	e8bd 8ff0 	ldmia.w	sp!, {r4, r5, r6, r7, r8, r9, sl, fp, pc}
  while (__HAL_I2C_GET_FLAG(hi2c, I2C_FLAG_TXE) == RESET)
 80054a6:	695a      	ldr	r2, [r3, #20]
 80054a8:	0612      	lsls	r2, r2, #24
 80054aa:	d4b7      	bmi.n	800541c <HAL_I2C_Mem_Write+0xc0>
  if (__HAL_I2C_GET_FLAG(hi2c, I2C_FLAG_AF) == SET)
 80054ac:	695a      	ldr	r2, [r3, #20]
 80054ae:	0551      	lsls	r1, r2, #21
 80054b0:	d4e1      	bmi.n	8005476 <HAL_I2C_Mem_Write+0x11a>
      if (((HAL_GetTick() - Tickstart) > Timeout) || (Timeout == 0U))
 80054b2:	f7ff f9e9 	bl	8004888 <HAL_GetTick>
 80054b6:	1b40      	subs	r0, r0, r5
 80054b8:	4286      	cmp	r6, r0
 80054ba:	d34f      	bcc.n	800555c <HAL_I2C_Mem_Write+0x200>
 80054bc:	2e00      	cmp	r6, #0
 80054be:	d04d      	beq.n	800555c <HAL_I2C_Mem_Write+0x200>
 80054c0:	6823      	ldr	r3, [r4, #0]
 80054c2:	e7a2      	b.n	800540a <HAL_I2C_Mem_Write+0xae>
        hi2c->Instance->DR = *hi2c->pBuffPtr;
 80054c4:	f89e 1001 	ldrb.w	r1, [lr, #1]
        hi2c->XferSize--;
 80054c8:	f1a8 0202 	sub.w	r2, r8, #2
        hi2c->Instance->DR = *hi2c->pBuffPtr;
 80054cc:	6119      	str	r1, [r3, #16]
        hi2c->XferCount--;
 80054ce:	8d60      	ldrh	r0, [r4, #42]	; 0x2a
        hi2c->XferSize--;
 80054d0:	b292      	uxth	r2, r2
        hi2c->XferCount--;
 80054d2:	3801      	subs	r0, #1
        hi2c->pBuffPtr++;
 80054d4:	f10e 0102 	add.w	r1, lr, #2
        hi2c->XferCount--;
 80054d8:	b280      	uxth	r0, r0
        hi2c->XferSize--;
 80054da:	8522      	strh	r2, [r4, #40]	; 0x28
        hi2c->pBuffPtr++;
 80054dc:	6261      	str	r1, [r4, #36]	; 0x24
        hi2c->XferCount--;
 80054de:	8560      	strh	r0, [r4, #42]	; 0x2a
 80054e0:	e792      	b.n	8005408 <HAL_I2C_Mem_Write+0xac>
        hi2c->State             = HAL_I2C_STATE_READY;
 80054e2:	2320      	movs	r3, #32
        hi2c->PreviousState     = I2C_STATE_NONE;
 80054e4:	f8c4 b030 	str.w	fp, [r4, #48]	; 0x30
        hi2c->State             = HAL_I2C_STATE_READY;
 80054e8:	f884 303d 	strb.w	r3, [r4, #61]	; 0x3d
        hi2c->Mode              = HAL_I2C_MODE_NONE;
 80054ec:	f884 b03e 	strb.w	fp, [r4, #62]	; 0x3e
        hi2c->ErrorCode         |= HAL_I2C_ERROR_TIMEOUT;
 80054f0:	6c23      	ldr	r3, [r4, #64]	; 0x40
        __HAL_UNLOCK(hi2c);
 80054f2:	f884 b03c 	strb.w	fp, [r4, #60]	; 0x3c
        hi2c->ErrorCode         |= HAL_I2C_ERROR_TIMEOUT;
 80054f6:	f043 0320 	orr.w	r3, r3, #32
 80054fa:	6423      	str	r3, [r4, #64]	; 0x40
 80054fc:	e73e      	b.n	800537c <HAL_I2C_Mem_Write+0x20>
          SET_BIT(hi2c->Instance->CR1, I2C_CR1_STOP);
 80054fe:	6822      	ldr	r2, [r4, #0]
        return HAL_ERROR;
 8005500:	2701      	movs	r7, #1
          SET_BIT(hi2c->Instance->CR1, I2C_CR1_STOP);
 8005502:	6813      	ldr	r3, [r2, #0]
 8005504:	f443 7300 	orr.w	r3, r3, #512	; 0x200
 8005508:	6013      	str	r3, [r2, #0]
 800550a:	e738      	b.n	800537e <HAL_I2C_Mem_Write+0x22>
  while (__HAL_I2C_GET_FLAG(hi2c, I2C_FLAG_BTF) == RESET)
 800550c:	695a      	ldr	r2, [r3, #20]
 800550e:	0752      	lsls	r2, r2, #29
 8005510:	d4a4      	bmi.n	800545c <HAL_I2C_Mem_Write+0x100>
  if (__HAL_I2C_GET_FLAG(hi2c, I2C_FLAG_AF) == SET)
 8005512:	695a      	ldr	r2, [r3, #20]
 8005514:	0551      	lsls	r1, r2, #21
 8005516:	d407      	bmi.n	8005528 <HAL_I2C_Mem_Write+0x1cc>
      if (((HAL_GetTick() - Tickstart) > Timeout) || (Timeout == 0U))
 8005518:	f7ff f9b6 	bl	8004888 <HAL_GetTick>
 800551c:	1b40      	subs	r0, r0, r5
 800551e:	4286      	cmp	r6, r0
 8005520:	d32a      	bcc.n	8005578 <HAL_I2C_Mem_Write+0x21c>
 8005522:	b34e      	cbz	r6, 8005578 <HAL_I2C_Mem_Write+0x21c>
 8005524:	6823      	ldr	r3, [r4, #0]
 8005526:	e790      	b.n	800544a <HAL_I2C_Mem_Write+0xee>
    hi2c->PreviousState       = I2C_STATE_NONE;
 8005528:	2200      	movs	r2, #0
    __HAL_I2C_CLEAR_FLAG(hi2c, I2C_FLAG_AF);
 800552a:	f46f 6080 	mvn.w	r0, #1024	; 0x400
    hi2c->State               = HAL_I2C_STATE_READY;
 800552e:	2120      	movs	r1, #32
    __HAL_I2C_CLEAR_FLAG(hi2c, I2C_FLAG_AF);
 8005530:	6158      	str	r0, [r3, #20]
    hi2c->PreviousState       = I2C_STATE_NONE;
 8005532:	6322      	str	r2, [r4, #48]	; 0x30
    hi2c->State               = HAL_I2C_STATE_READY;
 8005534:	f884 103d 	strb.w	r1, [r4, #61]	; 0x3d
    hi2c->Mode                = HAL_I2C_MODE_NONE;
 8005538:	f884 203e 	strb.w	r2, [r4, #62]	; 0x3e
    hi2c->ErrorCode           |= HAL_I2C_ERROR_AF;
 800553c:	6c23      	ldr	r3, [r4, #64]	; 0x40
    __HAL_UNLOCK(hi2c);
 800553e:	f884 203c 	strb.w	r2, [r4, #60]	; 0x3c
    hi2c->ErrorCode           |= HAL_I2C_ERROR_AF;
 8005542:	f043 0304 	orr.w	r3, r3, #4
 8005546:	6423      	str	r3, [r4, #64]	; 0x40
      if (hi2c->ErrorCode == HAL_I2C_ERROR_AF)
 8005548:	6c23      	ldr	r3, [r4, #64]	; 0x40
 800554a:	2b04      	cmp	r3, #4
 800554c:	d1a6      	bne.n	800549c <HAL_I2C_Mem_Write+0x140>
        SET_BIT(hi2c->Instance->CR1, I2C_CR1_STOP);
 800554e:	6822      	ldr	r2, [r4, #0]
      return HAL_ERROR;
 8005550:	2701      	movs	r7, #1
        SET_BIT(hi2c->Instance->CR1, I2C_CR1_STOP);
 8005552:	6813      	ldr	r3, [r2, #0]
 8005554:	f443 7300 	orr.w	r3, r3, #512	; 0x200
 8005558:	6013      	str	r3, [r2, #0]
 800555a:	e710      	b.n	800537e <HAL_I2C_Mem_Write+0x22>
        hi2c->PreviousState     = I2C_STATE_NONE;
 800555c:	2200      	movs	r2, #0
        hi2c->State             = HAL_I2C_STATE_READY;
 800555e:	2320      	movs	r3, #32
        hi2c->PreviousState     = I2C_STATE_NONE;
 8005560:	6322      	str	r2, [r4, #48]	; 0x30
        hi2c->State             = HAL_I2C_STATE_READY;
 8005562:	f884 303d 	strb.w	r3, [r4, #61]	; 0x3d
        hi2c->Mode              = HAL_I2C_MODE_NONE;
 8005566:	f884 203e 	strb.w	r2, [r4, #62]	; 0x3e
        hi2c->ErrorCode         |= HAL_I2C_ERROR_TIMEOUT;
 800556a:	6c23      	ldr	r3, [r4, #64]	; 0x40
        __HAL_UNLOCK(hi2c);
 800556c:	f884 203c 	strb.w	r2, [r4, #60]	; 0x3c
        hi2c->ErrorCode         |= HAL_I2C_ERROR_TIMEOUT;
 8005570:	f043 0320 	orr.w	r3, r3, #32
 8005574:	6423      	str	r3, [r4, #64]	; 0x40
 8005576:	e78e      	b.n	8005496 <HAL_I2C_Mem_Write+0x13a>
        hi2c->PreviousState     = I2C_STATE_NONE;
 8005578:	2200      	movs	r2, #0
        hi2c->State             = HAL_I2C_STATE_READY;
 800557a:	2320      	movs	r3, #32
        hi2c->PreviousState     = I2C_STATE_NONE;
 800557c:	6322      	str	r2, [r4, #48]	; 0x30
        hi2c->State             = HAL_I2C_STATE_READY;
 800557e:	f884 303d 	strb.w	r3, [r4, #61]	; 0x3d
        hi2c->Mode              = HAL_I2C_MODE_NONE;
 8005582:	f884 203e 	strb.w	r2, [r4, #62]	; 0x3e
        hi2c->ErrorCode         |= HAL_I2C_ERROR_TIMEOUT;
 8005586:	6c23      	ldr	r3, [r4, #64]	; 0x40
        __HAL_UNLOCK(hi2c);
 8005588:	f884 203c 	strb.w	r2, [r4, #60]	; 0x3c
        hi2c->ErrorCode         |= HAL_I2C_ERROR_TIMEOUT;
 800558c:	f043 0320 	orr.w	r3, r3, #32
 8005590:	6423      	str	r3, [r4, #64]	; 0x40
 8005592:	e7d9      	b.n	8005548 <HAL_I2C_Mem_Write+0x1ec>

08005594 <HAL_I2C_Mem_Read>:
{
 8005594:	e92d 4ff0 	stmdb	sp!, {r4, r5, r6, r7, r8, r9, sl, fp, lr}
 8005598:	4604      	mov	r4, r0
 800559a:	b087      	sub	sp, #28
 800559c:	469a      	mov	sl, r3
 800559e:	460f      	mov	r7, r1
 80055a0:	4690      	mov	r8, r2
 80055a2:	f8bd 9044 	ldrh.w	r9, [sp, #68]	; 0x44
 80055a6:	9d12      	ldr	r5, [sp, #72]	; 0x48
  uint32_t tickstart = HAL_GetTick();
 80055a8:	f7ff f96e 	bl	8004888 <HAL_GetTick>
  if (hi2c->State == HAL_I2C_STATE_READY)
 80055ac:	f894 303d 	ldrb.w	r3, [r4, #61]	; 0x3d
 80055b0:	2b20      	cmp	r3, #32
 80055b2:	d004      	beq.n	80055be <HAL_I2C_Mem_Read+0x2a>
      return HAL_BUSY;
 80055b4:	2702      	movs	r7, #2
}
 80055b6:	4638      	mov	r0, r7
 80055b8:	b007      	add	sp, #28
 80055ba:	e8bd 8ff0 	ldmia.w	sp!, {r4, r5, r6, r7, r8, r9, sl, fp, pc}
 80055be:	4606      	mov	r6, r0
 80055c0:	e004      	b.n	80055cc <HAL_I2C_Mem_Read+0x38>
      if (((HAL_GetTick() - Tickstart) > Timeout) || (Timeout == 0U))
 80055c2:	f7ff f961 	bl	8004888 <HAL_GetTick>
 80055c6:	1b80      	subs	r0, r0, r6
 80055c8:	2819      	cmp	r0, #25
 80055ca:	d84d      	bhi.n	8005668 <HAL_I2C_Mem_Read+0xd4>
  while (__HAL_I2C_GET_FLAG(hi2c, Flag) == Status)
 80055cc:	6822      	ldr	r2, [r4, #0]
 80055ce:	6993      	ldr	r3, [r2, #24]
 80055d0:	43db      	mvns	r3, r3
 80055d2:	f013 0b02 	ands.w	fp, r3, #2
 80055d6:	d0f4      	beq.n	80055c2 <HAL_I2C_Mem_Read+0x2e>
    __HAL_LOCK(hi2c);
 80055d8:	f894 303c 	ldrb.w	r3, [r4, #60]	; 0x3c
 80055dc:	2b01      	cmp	r3, #1
 80055de:	d0e9      	beq.n	80055b4 <HAL_I2C_Mem_Read+0x20>
 80055e0:	2101      	movs	r1, #1
    if ((hi2c->Instance->CR1 & I2C_CR1_PE) != I2C_CR1_PE)
 80055e2:	6813      	ldr	r3, [r2, #0]
    __HAL_LOCK(hi2c);
 80055e4:	f884 103c 	strb.w	r1, [r4, #60]	; 0x3c
    if ((hi2c->Instance->CR1 & I2C_CR1_PE) != I2C_CR1_PE)
 80055e8:	07db      	lsls	r3, r3, #31
 80055ea:	d402      	bmi.n	80055f2 <HAL_I2C_Mem_Read+0x5e>
      __HAL_I2C_ENABLE(hi2c);
 80055ec:	6813      	ldr	r3, [r2, #0]
 80055ee:	430b      	orrs	r3, r1
 80055f0:	6013      	str	r3, [r2, #0]
    hi2c->State     = HAL_I2C_STATE_BUSY_RX;
 80055f2:	f04f 0e22 	mov.w	lr, #34	; 0x22
    hi2c->Mode      = HAL_I2C_MODE_MEM;
 80055f6:	f04f 0c40 	mov.w	ip, #64	; 0x40
    hi2c->ErrorCode = HAL_I2C_ERROR_NONE;
 80055fa:	2000      	movs	r0, #0
    CLEAR_BIT(hi2c->Instance->CR1, I2C_CR1_POS);
 80055fc:	6811      	ldr	r1, [r2, #0]
    if (I2C_RequestMemoryRead(hi2c, DevAddress, MemAddress, MemAddSize, Timeout, tickstart) != HAL_OK)
 80055fe:	4653      	mov	r3, sl
    CLEAR_BIT(hi2c->Instance->CR1, I2C_CR1_POS);
 8005600:	f421 6100 	bic.w	r1, r1, #2048	; 0x800
 8005604:	6011      	str	r1, [r2, #0]
    hi2c->State     = HAL_I2C_STATE_BUSY_RX;
 8005606:	f884 e03d 	strb.w	lr, [r4, #61]	; 0x3d
    hi2c->Mode      = HAL_I2C_MODE_MEM;
 800560a:	f884 c03e 	strb.w	ip, [r4, #62]	; 0x3e
    hi2c->ErrorCode = HAL_I2C_ERROR_NONE;
 800560e:	6420      	str	r0, [r4, #64]	; 0x40
    hi2c->XferCount   = Size;
 8005610:	f8a4 902a 	strh.w	r9, [r4, #42]	; 0x2a
    hi2c->XferSize    = hi2c->XferCount;
 8005614:	f8b4 c02a 	ldrh.w	ip, [r4, #42]	; 0x2a
    if (I2C_RequestMemoryRead(hi2c, DevAddress, MemAddress, MemAddSize, Timeout, tickstart) != HAL_OK)
 8005618:	4639      	mov	r1, r7
    hi2c->pBuffPtr    = pData;
 800561a:	9f10      	ldr	r7, [sp, #64]	; 0x40
    hi2c->XferOptions = I2C_NO_OPTION_FRAME;
 800561c:	f5a0 3080 	sub.w	r0, r0, #65536	; 0x10000
    hi2c->pBuffPtr    = pData;
 8005620:	6267      	str	r7, [r4, #36]	; 0x24
    if (I2C_RequestMemoryRead(hi2c, DevAddress, MemAddress, MemAddSize, Timeout, tickstart) != HAL_OK)
 8005622:	4642      	mov	r2, r8
 8005624:	e9cd 5600 	strd	r5, r6, [sp]
    hi2c->XferOptions = I2C_NO_OPTION_FRAME;
 8005628:	62e0      	str	r0, [r4, #44]	; 0x2c
    hi2c->XferSize    = hi2c->XferCount;
 800562a:	f8a4 c028 	strh.w	ip, [r4, #40]	; 0x28
    if (I2C_RequestMemoryRead(hi2c, DevAddress, MemAddress, MemAddSize, Timeout, tickstart) != HAL_OK)
 800562e:	4620      	mov	r0, r4
 8005630:	f7ff fcb2 	bl	8004f98 <I2C_RequestMemoryRead>
 8005634:	4607      	mov	r7, r0
 8005636:	b9a8      	cbnz	r0, 8005664 <HAL_I2C_Mem_Read+0xd0>
    if (hi2c->XferSize == 0U)
 8005638:	8d23      	ldrh	r3, [r4, #40]	; 0x28
 800563a:	6822      	ldr	r2, [r4, #0]
 800563c:	bb13      	cbnz	r3, 8005684 <HAL_I2C_Mem_Read+0xf0>
      __HAL_I2C_CLEAR_ADDRFLAG(hi2c);
 800563e:	9002      	str	r0, [sp, #8]
 8005640:	6953      	ldr	r3, [r2, #20]
 8005642:	9302      	str	r3, [sp, #8]
 8005644:	6993      	ldr	r3, [r2, #24]
 8005646:	9302      	str	r3, [sp, #8]
 8005648:	9b02      	ldr	r3, [sp, #8]
      SET_BIT(hi2c->Instance->CR1, I2C_CR1_STOP);
 800564a:	6813      	ldr	r3, [r2, #0]
 800564c:	f443 7300 	orr.w	r3, r3, #512	; 0x200
 8005650:	6013      	str	r3, [r2, #0]
    hi2c->Mode = HAL_I2C_MODE_NONE;
 8005652:	2300      	movs	r3, #0
    hi2c->State = HAL_I2C_STATE_READY;
 8005654:	2220      	movs	r2, #32
    __HAL_UNLOCK(hi2c);
 8005656:	f884 303c 	strb.w	r3, [r4, #60]	; 0x3c
    hi2c->State = HAL_I2C_STATE_READY;
 800565a:	f884 203d 	strb.w	r2, [r4, #61]	; 0x3d
    hi2c->Mode = HAL_I2C_MODE_NONE;
 800565e:	f884 303e 	strb.w	r3, [r4, #62]	; 0x3e
    return HAL_OK;
 8005662:	e7a8      	b.n	80055b6 <HAL_I2C_Mem_Read+0x22>
      return HAL_ERROR;
 8005664:	2701      	movs	r7, #1
 8005666:	e7a6      	b.n	80055b6 <HAL_I2C_Mem_Read+0x22>
        hi2c->State             = HAL_I2C_STATE_READY;
 8005668:	2320      	movs	r3, #32
        hi2c->PreviousState     = I2C_STATE_NONE;
 800566a:	f8c4 b030 	str.w	fp, [r4, #48]	; 0x30
        hi2c->State             = HAL_I2C_STATE_READY;
 800566e:	f884 303d 	strb.w	r3, [r4, #61]	; 0x3d
        hi2c->Mode              = HAL_I2C_MODE_NONE;
 8005672:	f884 b03e 	strb.w	fp, [r4, #62]	; 0x3e
        hi2c->ErrorCode         |= HAL_I2C_ERROR_TIMEOUT;
 8005676:	6c23      	ldr	r3, [r4, #64]	; 0x40
        __HAL_UNLOCK(hi2c);
 8005678:	f884 b03c 	strb.w	fp, [r4, #60]	; 0x3c
        hi2c->ErrorCode         |= HAL_I2C_ERROR_TIMEOUT;
 800567c:	f043 0320 	orr.w	r3, r3, #32
 8005680:	6423      	str	r3, [r4, #64]	; 0x40
 8005682:	e797      	b.n	80055b4 <HAL_I2C_Mem_Read+0x20>
    else if (hi2c->XferSize == 1U)
 8005684:	2b01      	cmp	r3, #1
 8005686:	d07c      	beq.n	8005782 <HAL_I2C_Mem_Read+0x1ee>
    else if (hi2c->XferSize == 2U)
 8005688:	2b02      	cmp	r3, #2
 800568a:	f000 811d 	beq.w	80058c8 <HAL_I2C_Mem_Read+0x334>
      SET_BIT(hi2c->Instance->CR1, I2C_CR1_ACK);
 800568e:	6811      	ldr	r1, [r2, #0]
 8005690:	f441 6180 	orr.w	r1, r1, #1024	; 0x400
 8005694:	6011      	str	r1, [r2, #0]
      __HAL_I2C_CLEAR_ADDRFLAG(hi2c);
 8005696:	9005      	str	r0, [sp, #20]
 8005698:	6951      	ldr	r1, [r2, #20]
 800569a:	9105      	str	r1, [sp, #20]
 800569c:	6992      	ldr	r2, [r2, #24]
 800569e:	9205      	str	r2, [sp, #20]
 80056a0:	9a05      	ldr	r2, [sp, #20]
    while (hi2c->XferSize > 0U)
 80056a2:	2b00      	cmp	r3, #0
 80056a4:	d0d5      	beq.n	8005652 <HAL_I2C_Mem_Read+0xbe>
      if (hi2c->XferSize <= 3U)
 80056a6:	2b03      	cmp	r3, #3
 80056a8:	d87e      	bhi.n	80057a8 <HAL_I2C_Mem_Read+0x214>
        if (hi2c->XferSize == 1U)
 80056aa:	2b01      	cmp	r3, #1
 80056ac:	f000 80d8 	beq.w	8005860 <HAL_I2C_Mem_Read+0x2cc>
        else if (hi2c->XferSize == 2U)
 80056b0:	2b02      	cmp	r3, #2
 80056b2:	d04c      	beq.n	800574e <HAL_I2C_Mem_Read+0x1ba>
 80056b4:	1c68      	adds	r0, r5, #1
  while (__HAL_I2C_GET_FLAG(hi2c, Flag) == Status)
 80056b6:	6822      	ldr	r2, [r4, #0]
 80056b8:	f040 80a7 	bne.w	800580a <HAL_I2C_Mem_Read+0x276>
 80056bc:	6953      	ldr	r3, [r2, #20]
 80056be:	0759      	lsls	r1, r3, #29
 80056c0:	d5fc      	bpl.n	80056bc <HAL_I2C_Mem_Read+0x128>
          CLEAR_BIT(hi2c->Instance->CR1, I2C_CR1_ACK);
 80056c2:	6813      	ldr	r3, [r2, #0]
 80056c4:	f423 6380 	bic.w	r3, r3, #1024	; 0x400
 80056c8:	6013      	str	r3, [r2, #0]
  __ASM volatile ("cpsid i" : : : "memory");
 80056ca:	b672      	cpsid	i
          *hi2c->pBuffPtr = (uint8_t)hi2c->Instance->DR;
 80056cc:	6822      	ldr	r2, [r4, #0]
 80056ce:	6a63      	ldr	r3, [r4, #36]	; 0x24
 80056d0:	6912      	ldr	r2, [r2, #16]
 80056d2:	701a      	strb	r2, [r3, #0]
          hi2c->XferCount--;
 80056d4:	8d63      	ldrh	r3, [r4, #42]	; 0x2a
          hi2c->pBuffPtr++;
 80056d6:	6a61      	ldr	r1, [r4, #36]	; 0x24
          hi2c->XferSize--;
 80056d8:	8d22      	ldrh	r2, [r4, #40]	; 0x28
          hi2c->XferCount--;
 80056da:	3b01      	subs	r3, #1
          hi2c->pBuffPtr++;
 80056dc:	3101      	adds	r1, #1
          hi2c->XferSize--;
 80056de:	3a01      	subs	r2, #1
          hi2c->XferCount--;
 80056e0:	b29b      	uxth	r3, r3
          hi2c->pBuffPtr++;
 80056e2:	6261      	str	r1, [r4, #36]	; 0x24
          hi2c->XferSize--;
 80056e4:	8522      	strh	r2, [r4, #40]	; 0x28
          hi2c->XferCount--;
 80056e6:	8563      	strh	r3, [r4, #42]	; 0x2a
 80056e8:	1c68      	adds	r0, r5, #1
  while (__HAL_I2C_GET_FLAG(hi2c, Flag) == Status)
 80056ea:	6822      	ldr	r2, [r4, #0]
 80056ec:	f040 80ab 	bne.w	8005846 <HAL_I2C_Mem_Read+0x2b2>
 80056f0:	6953      	ldr	r3, [r2, #20]
 80056f2:	0759      	lsls	r1, r3, #29
 80056f4:	d5fc      	bpl.n	80056f0 <HAL_I2C_Mem_Read+0x15c>
          SET_BIT(hi2c->Instance->CR1, I2C_CR1_STOP);
 80056f6:	6813      	ldr	r3, [r2, #0]
          *hi2c->pBuffPtr = (uint8_t)hi2c->Instance->DR;
 80056f8:	6a61      	ldr	r1, [r4, #36]	; 0x24
          SET_BIT(hi2c->Instance->CR1, I2C_CR1_STOP);
 80056fa:	f443 7300 	orr.w	r3, r3, #512	; 0x200
 80056fe:	6013      	str	r3, [r2, #0]
          *hi2c->pBuffPtr = (uint8_t)hi2c->Instance->DR;
 8005700:	6913      	ldr	r3, [r2, #16]
 8005702:	700b      	strb	r3, [r1, #0]
          hi2c->XferCount--;
 8005704:	8d63      	ldrh	r3, [r4, #42]	; 0x2a
          hi2c->pBuffPtr++;
 8005706:	6a61      	ldr	r1, [r4, #36]	; 0x24
          hi2c->XferSize--;
 8005708:	8d22      	ldrh	r2, [r4, #40]	; 0x28
          hi2c->XferCount--;
 800570a:	3b01      	subs	r3, #1
 800570c:	b29b      	uxth	r3, r3
          hi2c->pBuffPtr++;
 800570e:	3101      	adds	r1, #1
          hi2c->XferSize--;
 8005710:	3a01      	subs	r2, #1
          hi2c->XferCount--;
 8005712:	8563      	strh	r3, [r4, #42]	; 0x2a
          hi2c->pBuffPtr++;
 8005714:	6261      	str	r1, [r4, #36]	; 0x24
          hi2c->XferSize--;
 8005716:	8522      	strh	r2, [r4, #40]	; 0x28
  __ASM volatile ("cpsie i" : : : "memory");
 8005718:	b662      	cpsie	i
          *hi2c->pBuffPtr = (uint8_t)hi2c->Instance->DR;
 800571a:	6822      	ldr	r2, [r4, #0]
 800571c:	6a63      	ldr	r3, [r4, #36]	; 0x24
 800571e:	6912      	ldr	r2, [r2, #16]
 8005720:	701a      	strb	r2, [r3, #0]
          hi2c->XferCount--;
 8005722:	8d62      	ldrh	r2, [r4, #42]	; 0x2a
          hi2c->XferSize--;
 8005724:	8d23      	ldrh	r3, [r4, #40]	; 0x28
          hi2c->pBuffPtr++;
 8005726:	6a61      	ldr	r1, [r4, #36]	; 0x24
          hi2c->XferCount--;
 8005728:	3a01      	subs	r2, #1
          hi2c->XferSize--;
 800572a:	3b01      	subs	r3, #1
          hi2c->pBuffPtr++;
 800572c:	3101      	adds	r1, #1
          hi2c->XferCount--;
 800572e:	b292      	uxth	r2, r2
          hi2c->XferSize--;
 8005730:	b29b      	uxth	r3, r3
          hi2c->pBuffPtr++;
 8005732:	6261      	str	r1, [r4, #36]	; 0x24
          hi2c->XferCount--;
 8005734:	8562      	strh	r2, [r4, #42]	; 0x2a
          hi2c->XferSize--;
 8005736:	8523      	strh	r3, [r4, #40]	; 0x28
 8005738:	e7b3      	b.n	80056a2 <HAL_I2C_Mem_Read+0x10e>
  while (__HAL_I2C_GET_FLAG(hi2c, Flag) == Status)
 800573a:	6953      	ldr	r3, [r2, #20]
 800573c:	075b      	lsls	r3, r3, #29
 800573e:	d40c      	bmi.n	800575a <HAL_I2C_Mem_Read+0x1c6>
      if (((HAL_GetTick() - Tickstart) > Timeout) || (Timeout == 0U))
 8005740:	f7ff f8a2 	bl	8004888 <HAL_GetTick>
 8005744:	1b80      	subs	r0, r0, r6
 8005746:	4285      	cmp	r5, r0
 8005748:	d36b      	bcc.n	8005822 <HAL_I2C_Mem_Read+0x28e>
 800574a:	2d00      	cmp	r5, #0
 800574c:	d069      	beq.n	8005822 <HAL_I2C_Mem_Read+0x28e>
 800574e:	1c68      	adds	r0, r5, #1
  while (__HAL_I2C_GET_FLAG(hi2c, Flag) == Status)
 8005750:	6822      	ldr	r2, [r4, #0]
 8005752:	d1f2      	bne.n	800573a <HAL_I2C_Mem_Read+0x1a6>
 8005754:	6953      	ldr	r3, [r2, #20]
 8005756:	0759      	lsls	r1, r3, #29
 8005758:	d5fc      	bpl.n	8005754 <HAL_I2C_Mem_Read+0x1c0>
  __ASM volatile ("cpsid i" : : : "memory");
 800575a:	b672      	cpsid	i
          SET_BIT(hi2c->Instance->CR1, I2C_CR1_STOP);
 800575c:	6823      	ldr	r3, [r4, #0]
          *hi2c->pBuffPtr = (uint8_t)hi2c->Instance->DR;
 800575e:	6a61      	ldr	r1, [r4, #36]	; 0x24
          SET_BIT(hi2c->Instance->CR1, I2C_CR1_STOP);
 8005760:	681a      	ldr	r2, [r3, #0]
 8005762:	f442 7200 	orr.w	r2, r2, #512	; 0x200
 8005766:	601a      	str	r2, [r3, #0]
          *hi2c->pBuffPtr = (uint8_t)hi2c->Instance->DR;
 8005768:	691b      	ldr	r3, [r3, #16]
 800576a:	700b      	strb	r3, [r1, #0]
          hi2c->XferCount--;
 800576c:	8d63      	ldrh	r3, [r4, #42]	; 0x2a
          hi2c->pBuffPtr++;
 800576e:	6a61      	ldr	r1, [r4, #36]	; 0x24
          hi2c->XferSize--;
 8005770:	8d22      	ldrh	r2, [r4, #40]	; 0x28
          hi2c->XferCount--;
 8005772:	3b01      	subs	r3, #1
          hi2c->pBuffPtr++;
 8005774:	3101      	adds	r1, #1
          hi2c->XferSize--;
 8005776:	3a01      	subs	r2, #1
          hi2c->XferCount--;
 8005778:	b29b      	uxth	r3, r3
          hi2c->pBuffPtr++;
 800577a:	6261      	str	r1, [r4, #36]	; 0x24
          hi2c->XferSize--;
 800577c:	8522      	strh	r2, [r4, #40]	; 0x28
          hi2c->XferCount--;
 800577e:	8563      	strh	r3, [r4, #42]	; 0x2a
 8005780:	e7ca      	b.n	8005718 <HAL_I2C_Mem_Read+0x184>
      CLEAR_BIT(hi2c->Instance->CR1, I2C_CR1_ACK);
 8005782:	6813      	ldr	r3, [r2, #0]
 8005784:	f423 6380 	bic.w	r3, r3, #1024	; 0x400
 8005788:	6013      	str	r3, [r2, #0]
 800578a:	b672      	cpsid	i
      __HAL_I2C_CLEAR_ADDRFLAG(hi2c);
 800578c:	6823      	ldr	r3, [r4, #0]
 800578e:	9003      	str	r0, [sp, #12]
 8005790:	695a      	ldr	r2, [r3, #20]
 8005792:	9203      	str	r2, [sp, #12]
 8005794:	699a      	ldr	r2, [r3, #24]
 8005796:	9203      	str	r2, [sp, #12]
 8005798:	9a03      	ldr	r2, [sp, #12]
      SET_BIT(hi2c->Instance->CR1, I2C_CR1_STOP);
 800579a:	681a      	ldr	r2, [r3, #0]
 800579c:	f442 7200 	orr.w	r2, r2, #512	; 0x200
 80057a0:	601a      	str	r2, [r3, #0]
  __ASM volatile ("cpsie i" : : : "memory");
 80057a2:	b662      	cpsie	i
 80057a4:	8d23      	ldrh	r3, [r4, #40]	; 0x28
 80057a6:	e77c      	b.n	80056a2 <HAL_I2C_Mem_Read+0x10e>
 80057a8:	b945      	cbnz	r5, 80057bc <HAL_I2C_Mem_Read+0x228>
 80057aa:	e07e      	b.n	80058aa <HAL_I2C_Mem_Read+0x316>
    if (__HAL_I2C_GET_FLAG(hi2c, I2C_FLAG_STOPF) == SET)
 80057ac:	695a      	ldr	r2, [r3, #20]
 80057ae:	06d1      	lsls	r1, r2, #27
 80057b0:	d468      	bmi.n	8005884 <HAL_I2C_Mem_Read+0x2f0>
    if (((HAL_GetTick() - Tickstart) > Timeout) || (Timeout == 0U))
 80057b2:	f7ff f869 	bl	8004888 <HAL_GetTick>
 80057b6:	1b80      	subs	r0, r0, r6
 80057b8:	4285      	cmp	r5, r0
 80057ba:	d332      	bcc.n	8005822 <HAL_I2C_Mem_Read+0x28e>
  while (__HAL_I2C_GET_FLAG(hi2c, I2C_FLAG_RXNE) == RESET)
 80057bc:	6823      	ldr	r3, [r4, #0]
 80057be:	695a      	ldr	r2, [r3, #20]
 80057c0:	0650      	lsls	r0, r2, #25
 80057c2:	d5f3      	bpl.n	80057ac <HAL_I2C_Mem_Read+0x218>
        *hi2c->pBuffPtr = (uint8_t)hi2c->Instance->DR;
 80057c4:	691a      	ldr	r2, [r3, #16]
 80057c6:	6a63      	ldr	r3, [r4, #36]	; 0x24
 80057c8:	701a      	strb	r2, [r3, #0]
        hi2c->XferCount--;
 80057ca:	8d62      	ldrh	r2, [r4, #42]	; 0x2a
        if (__HAL_I2C_GET_FLAG(hi2c, I2C_FLAG_BTF) == SET)
 80057cc:	6821      	ldr	r1, [r4, #0]
        hi2c->XferCount--;
 80057ce:	3a01      	subs	r2, #1
 80057d0:	b292      	uxth	r2, r2
        hi2c->XferSize--;
 80057d2:	8d23      	ldrh	r3, [r4, #40]	; 0x28
        hi2c->XferCount--;
 80057d4:	8562      	strh	r2, [r4, #42]	; 0x2a
        if (__HAL_I2C_GET_FLAG(hi2c, I2C_FLAG_BTF) == SET)
 80057d6:	6948      	ldr	r0, [r1, #20]
        hi2c->pBuffPtr++;
 80057d8:	6a62      	ldr	r2, [r4, #36]	; 0x24
        hi2c->XferSize--;
 80057da:	3b01      	subs	r3, #1
 80057dc:	b29b      	uxth	r3, r3
        hi2c->pBuffPtr++;
 80057de:	f102 0c01 	add.w	ip, r2, #1
        if (__HAL_I2C_GET_FLAG(hi2c, I2C_FLAG_BTF) == SET)
 80057e2:	0740      	lsls	r0, r0, #29
        hi2c->XferSize--;
 80057e4:	8523      	strh	r3, [r4, #40]	; 0x28
        hi2c->pBuffPtr++;
 80057e6:	f8c4 c024 	str.w	ip, [r4, #36]	; 0x24
        if (__HAL_I2C_GET_FLAG(hi2c, I2C_FLAG_BTF) == SET)
 80057ea:	f57f af5a 	bpl.w	80056a2 <HAL_I2C_Mem_Read+0x10e>
          *hi2c->pBuffPtr = (uint8_t)hi2c->Instance->DR;
 80057ee:	690b      	ldr	r3, [r1, #16]
 80057f0:	7053      	strb	r3, [r2, #1]
          hi2c->XferSize--;
 80057f2:	8d23      	ldrh	r3, [r4, #40]	; 0x28
          hi2c->XferCount--;
 80057f4:	8d62      	ldrh	r2, [r4, #42]	; 0x2a
          hi2c->pBuffPtr++;
 80057f6:	6a61      	ldr	r1, [r4, #36]	; 0x24
          hi2c->XferSize--;
 80057f8:	3b01      	subs	r3, #1
          hi2c->XferCount--;
 80057fa:	3a01      	subs	r2, #1
          hi2c->XferSize--;
 80057fc:	b29b      	uxth	r3, r3
          hi2c->XferCount--;
 80057fe:	b292      	uxth	r2, r2
          hi2c->pBuffPtr++;
 8005800:	3101      	adds	r1, #1
          hi2c->XferSize--;
 8005802:	8523      	strh	r3, [r4, #40]	; 0x28
          hi2c->XferCount--;
 8005804:	8562      	strh	r2, [r4, #42]	; 0x2a
          hi2c->pBuffPtr++;
 8005806:	6261      	str	r1, [r4, #36]	; 0x24
 8005808:	e74b      	b.n	80056a2 <HAL_I2C_Mem_Read+0x10e>
  while (__HAL_I2C_GET_FLAG(hi2c, Flag) == Status)
 800580a:	6953      	ldr	r3, [r2, #20]
 800580c:	075b      	lsls	r3, r3, #29
 800580e:	f53f af58 	bmi.w	80056c2 <HAL_I2C_Mem_Read+0x12e>
      if (((HAL_GetTick() - Tickstart) > Timeout) || (Timeout == 0U))
 8005812:	f7ff f839 	bl	8004888 <HAL_GetTick>
 8005816:	1b80      	subs	r0, r0, r6
 8005818:	4285      	cmp	r5, r0
 800581a:	d302      	bcc.n	8005822 <HAL_I2C_Mem_Read+0x28e>
 800581c:	2d00      	cmp	r5, #0
 800581e:	f47f af49 	bne.w	80056b4 <HAL_I2C_Mem_Read+0x120>
          return HAL_ERROR;
 8005822:	2701      	movs	r7, #1
        hi2c->PreviousState     = I2C_STATE_NONE;
 8005824:	2200      	movs	r2, #0
        hi2c->State             = HAL_I2C_STATE_READY;
 8005826:	2320      	movs	r3, #32
}
 8005828:	4638      	mov	r0, r7
        hi2c->PreviousState     = I2C_STATE_NONE;
 800582a:	6322      	str	r2, [r4, #48]	; 0x30
        hi2c->State             = HAL_I2C_STATE_READY;
 800582c:	f884 303d 	strb.w	r3, [r4, #61]	; 0x3d
        hi2c->Mode              = HAL_I2C_MODE_NONE;
 8005830:	f884 203e 	strb.w	r2, [r4, #62]	; 0x3e
        hi2c->ErrorCode         |= HAL_I2C_ERROR_TIMEOUT;
 8005834:	6c23      	ldr	r3, [r4, #64]	; 0x40
        __HAL_UNLOCK(hi2c);
 8005836:	f884 203c 	strb.w	r2, [r4, #60]	; 0x3c
        hi2c->ErrorCode         |= HAL_I2C_ERROR_TIMEOUT;
 800583a:	f043 0320 	orr.w	r3, r3, #32
 800583e:	6423      	str	r3, [r4, #64]	; 0x40
}
 8005840:	b007      	add	sp, #28
 8005842:	e8bd 8ff0 	ldmia.w	sp!, {r4, r5, r6, r7, r8, r9, sl, fp, pc}
  while (__HAL_I2C_GET_FLAG(hi2c, Flag) == Status)
 8005846:	6953      	ldr	r3, [r2, #20]
 8005848:	075b      	lsls	r3, r3, #29
 800584a:	f53f af54 	bmi.w	80056f6 <HAL_I2C_Mem_Read+0x162>
      if (((HAL_GetTick() - Tickstart) > Timeout) || (Timeout == 0U))
 800584e:	f7ff f81b 	bl	8004888 <HAL_GetTick>
 8005852:	1b80      	subs	r0, r0, r6
 8005854:	4285      	cmp	r5, r0
 8005856:	d3e4      	bcc.n	8005822 <HAL_I2C_Mem_Read+0x28e>
 8005858:	2d00      	cmp	r5, #0
 800585a:	f47f af45 	bne.w	80056e8 <HAL_I2C_Mem_Read+0x154>
 800585e:	e7e0      	b.n	8005822 <HAL_I2C_Mem_Read+0x28e>
 8005860:	b945      	cbnz	r5, 8005874 <HAL_I2C_Mem_Read+0x2e0>
 8005862:	e02c      	b.n	80058be <HAL_I2C_Mem_Read+0x32a>
    if (__HAL_I2C_GET_FLAG(hi2c, I2C_FLAG_STOPF) == SET)
 8005864:	695a      	ldr	r2, [r3, #20]
 8005866:	06d1      	lsls	r1, r2, #27
 8005868:	d40c      	bmi.n	8005884 <HAL_I2C_Mem_Read+0x2f0>
    if (((HAL_GetTick() - Tickstart) > Timeout) || (Timeout == 0U))
 800586a:	f7ff f80d 	bl	8004888 <HAL_GetTick>
 800586e:	1b80      	subs	r0, r0, r6
 8005870:	4285      	cmp	r5, r0
 8005872:	d3d6      	bcc.n	8005822 <HAL_I2C_Mem_Read+0x28e>
  while (__HAL_I2C_GET_FLAG(hi2c, I2C_FLAG_RXNE) == RESET)
 8005874:	6823      	ldr	r3, [r4, #0]
 8005876:	695a      	ldr	r2, [r3, #20]
 8005878:	0650      	lsls	r0, r2, #25
 800587a:	d5f3      	bpl.n	8005864 <HAL_I2C_Mem_Read+0x2d0>
          *hi2c->pBuffPtr = (uint8_t)hi2c->Instance->DR;
 800587c:	691a      	ldr	r2, [r3, #16]
 800587e:	6a63      	ldr	r3, [r4, #36]	; 0x24
 8005880:	701a      	strb	r2, [r3, #0]
 8005882:	e7b6      	b.n	80057f2 <HAL_I2C_Mem_Read+0x25e>
      __HAL_I2C_CLEAR_FLAG(hi2c, I2C_FLAG_STOPF);
 8005884:	f06f 0010 	mvn.w	r0, #16
          return HAL_ERROR;
 8005888:	2701      	movs	r7, #1
      hi2c->PreviousState       = I2C_STATE_NONE;
 800588a:	2200      	movs	r2, #0
      hi2c->State               = HAL_I2C_STATE_READY;
 800588c:	2120      	movs	r1, #32
      __HAL_I2C_CLEAR_FLAG(hi2c, I2C_FLAG_STOPF);
 800588e:	6158      	str	r0, [r3, #20]
}
 8005890:	4638      	mov	r0, r7
      hi2c->PreviousState       = I2C_STATE_NONE;
 8005892:	6322      	str	r2, [r4, #48]	; 0x30
      hi2c->State               = HAL_I2C_STATE_READY;
 8005894:	f884 103d 	strb.w	r1, [r4, #61]	; 0x3d
      hi2c->Mode                = HAL_I2C_MODE_NONE;
 8005898:	f884 203e 	strb.w	r2, [r4, #62]	; 0x3e
      hi2c->ErrorCode           |= HAL_I2C_ERROR_NONE;
 800589c:	6c23      	ldr	r3, [r4, #64]	; 0x40
      __HAL_UNLOCK(hi2c);
 800589e:	f884 203c 	strb.w	r2, [r4, #60]	; 0x3c
      hi2c->ErrorCode           |= HAL_I2C_ERROR_NONE;
 80058a2:	6423      	str	r3, [r4, #64]	; 0x40
}
 80058a4:	b007      	add	sp, #28
 80058a6:	e8bd 8ff0 	ldmia.w	sp!, {r4, r5, r6, r7, r8, r9, sl, fp, pc}
  while (__HAL_I2C_GET_FLAG(hi2c, I2C_FLAG_RXNE) == RESET)
 80058aa:	6823      	ldr	r3, [r4, #0]
 80058ac:	695a      	ldr	r2, [r3, #20]
 80058ae:	0652      	lsls	r2, r2, #25
 80058b0:	d488      	bmi.n	80057c4 <HAL_I2C_Mem_Read+0x230>
    if (__HAL_I2C_GET_FLAG(hi2c, I2C_FLAG_STOPF) == SET)
 80058b2:	695a      	ldr	r2, [r3, #20]
 80058b4:	06d5      	lsls	r5, r2, #27
 80058b6:	d4e5      	bmi.n	8005884 <HAL_I2C_Mem_Read+0x2f0>
    if (((HAL_GetTick() - Tickstart) > Timeout) || (Timeout == 0U))
 80058b8:	f7fe ffe6 	bl	8004888 <HAL_GetTick>
 80058bc:	e7b1      	b.n	8005822 <HAL_I2C_Mem_Read+0x28e>
  while (__HAL_I2C_GET_FLAG(hi2c, I2C_FLAG_RXNE) == RESET)
 80058be:	6823      	ldr	r3, [r4, #0]
 80058c0:	695a      	ldr	r2, [r3, #20]
 80058c2:	0652      	lsls	r2, r2, #25
 80058c4:	d5f5      	bpl.n	80058b2 <HAL_I2C_Mem_Read+0x31e>
 80058c6:	e7d9      	b.n	800587c <HAL_I2C_Mem_Read+0x2e8>
      SET_BIT(hi2c->Instance->CR1, I2C_CR1_POS);
 80058c8:	6813      	ldr	r3, [r2, #0]
 80058ca:	f443 6300 	orr.w	r3, r3, #2048	; 0x800
 80058ce:	6013      	str	r3, [r2, #0]
  __ASM volatile ("cpsid i" : : : "memory");
 80058d0:	b672      	cpsid	i
      __HAL_I2C_CLEAR_ADDRFLAG(hi2c);
 80058d2:	6823      	ldr	r3, [r4, #0]
 80058d4:	9004      	str	r0, [sp, #16]
 80058d6:	695a      	ldr	r2, [r3, #20]
 80058d8:	9204      	str	r2, [sp, #16]
 80058da:	699a      	ldr	r2, [r3, #24]
 80058dc:	9204      	str	r2, [sp, #16]
 80058de:	9a04      	ldr	r2, [sp, #16]
      CLEAR_BIT(hi2c->Instance->CR1, I2C_CR1_ACK);
 80058e0:	681a      	ldr	r2, [r3, #0]
 80058e2:	f422 6280 	bic.w	r2, r2, #1024	; 0x400
 80058e6:	601a      	str	r2, [r3, #0]
  __ASM volatile ("cpsie i" : : : "memory");
 80058e8:	b662      	cpsie	i
 80058ea:	8d23      	ldrh	r3, [r4, #40]	; 0x28
 80058ec:	e6d9      	b.n	80056a2 <HAL_I2C_Mem_Read+0x10e>
 80058ee:	bf00      	nop

080058f0 <HAL_PCD_Init>:
  *         parameters in the PCD_InitTypeDef and initialize the associated handle.
  * @param  hpcd PCD handle
  * @retval HAL status
  */
HAL_StatusTypeDef HAL_PCD_Init(PCD_HandleTypeDef *hpcd)
{
 80058f0:	b5f0      	push	{r4, r5, r6, r7, lr}
 80058f2:	b087      	sub	sp, #28
  USB_OTG_GlobalTypeDef *USBx;
#endif /* defined (USB_OTG_FS) */
  uint8_t i;

  /* Check the PCD handle allocation */
  if (hpcd == NULL)
 80058f4:	2800      	cmp	r0, #0
 80058f6:	d074      	beq.n	80059e2 <HAL_PCD_Init+0xf2>

#if defined (USB_OTG_FS)
  USBx = hpcd->Instance;
#endif /* defined (USB_OTG_FS) */

  if (hpcd->State == HAL_PCD_STATE_RESET)
 80058f8:	f890 3229 	ldrb.w	r3, [r0, #553]	; 0x229
 80058fc:	4604      	mov	r4, r0
 80058fe:	f003 02ff 	and.w	r2, r3, #255	; 0xff
 8005902:	2b00      	cmp	r3, #0
 8005904:	d068      	beq.n	80059d8 <HAL_PCD_Init+0xe8>
    /* Init the low level hardware : GPIO, CLOCK, NVIC... */
    HAL_PCD_MspInit(hpcd);
#endif /* (USE_HAL_PCD_REGISTER_CALLBACKS) */
  }

  hpcd->State = HAL_PCD_STATE_BUSY;
 8005906:	2303      	movs	r3, #3

  /* Disable the Interrupts */
  __HAL_PCD_DISABLE(hpcd);

  /*Init the Core (common init.) */
  if (USB_CoreInit(hpcd->Instance, hpcd->Init) != HAL_OK)
 8005908:	4626      	mov	r6, r4
  hpcd->State = HAL_PCD_STATE_BUSY;
 800590a:	f884 3229 	strb.w	r3, [r4, #553]	; 0x229
  __HAL_PCD_DISABLE(hpcd);
 800590e:	6820      	ldr	r0, [r4, #0]
 8005910:	f001 fa90 	bl	8006e34 <USB_DisableGlobalInt>
  if (USB_CoreInit(hpcd->Instance, hpcd->Init) != HAL_OK)
 8005914:	f856 cb10 	ldr.w	ip, [r6], #16
 8005918:	466d      	mov	r5, sp
 800591a:	4637      	mov	r7, r6
 800591c:	cf0f      	ldmia	r7!, {r0, r1, r2, r3}
 800591e:	c50f      	stmia	r5!, {r0, r1, r2, r3}
 8005920:	683b      	ldr	r3, [r7, #0]
 8005922:	1d27      	adds	r7, r4, #4
 8005924:	602b      	str	r3, [r5, #0]
 8005926:	4660      	mov	r0, ip
 8005928:	e897 000e 	ldmia.w	r7, {r1, r2, r3}
 800592c:	f001 fa70 	bl	8006e10 <USB_CoreInit>
 8005930:	4605      	mov	r5, r0
 8005932:	b130      	cbz	r0, 8005942 <HAL_PCD_Init+0x52>
  }

  /* Init Device */
  if (USB_DevInit(hpcd->Instance, hpcd->Init) != HAL_OK)
  {
    hpcd->State = HAL_PCD_STATE_ERROR;
 8005934:	2302      	movs	r3, #2
    return HAL_ERROR;
 8005936:	2501      	movs	r5, #1
    hpcd->State = HAL_PCD_STATE_ERROR;
 8005938:	f884 3229 	strb.w	r3, [r4, #553]	; 0x229
  hpcd->USB_Address = 0U;
  hpcd->State = HAL_PCD_STATE_READY;
  (void)USB_DevDisconnect(hpcd->Instance);

  return HAL_OK;
}
 800593c:	4628      	mov	r0, r5
 800593e:	b007      	add	sp, #28
 8005940:	bdf0      	pop	{r4, r5, r6, r7, pc}
  (void)USB_SetCurrentMode(hpcd->Instance, USB_DEVICE_MODE);
 8005942:	4601      	mov	r1, r0
 8005944:	6820      	ldr	r0, [r4, #0]
 8005946:	f001 fa7f 	bl	8006e48 <USB_SetCurrentMode>
  for (i = 0U; i < hpcd->Init.dev_endpoints; i++)
 800594a:	f8d4 c004 	ldr.w	ip, [r4, #4]
 800594e:	f1bc 0f00 	cmp.w	ip, #0
 8005952:	d029      	beq.n	80059a8 <HAL_PCD_Init+0xb8>
 8005954:	4628      	mov	r0, r5
    hpcd->IN_ep[i].is_in = 1U;
 8005956:	f04f 0e01 	mov.w	lr, #1
    hpcd->IN_ep[i].type = EP_TYPE_CTRL;
 800595a:	462a      	mov	r2, r5
    hpcd->IN_ep[i].is_in = 1U;
 800595c:	eb04 1340 	add.w	r3, r4, r0, lsl #5
  for (i = 0U; i < hpcd->Init.dev_endpoints; i++)
 8005960:	1c45      	adds	r5, r0, #1
    hpcd->IN_ep[i].num = i;
 8005962:	f883 0028 	strb.w	r0, [r3, #40]	; 0x28
    hpcd->IN_ep[i].tx_fifo_num = i;
 8005966:	86d8      	strh	r0, [r3, #54]	; 0x36
  for (i = 0U; i < hpcd->Init.dev_endpoints; i++)
 8005968:	b2e8      	uxtb	r0, r5
 800596a:	4560      	cmp	r0, ip
    hpcd->IN_ep[i].is_in = 1U;
 800596c:	f883 e029 	strb.w	lr, [r3, #41]	; 0x29
    hpcd->IN_ep[i].type = EP_TYPE_CTRL;
 8005970:	f883 202b 	strb.w	r2, [r3, #43]	; 0x2b
    hpcd->IN_ep[i].xfer_buff = 0U;
 8005974:	e9c3 220e 	strd	r2, r2, [r3, #56]	; 0x38
    hpcd->IN_ep[i].xfer_len = 0U;
 8005978:	641a      	str	r2, [r3, #64]	; 0x40
  for (i = 0U; i < hpcd->Init.dev_endpoints; i++)
 800597a:	d3ef      	bcc.n	800595c <HAL_PCD_Init+0x6c>
  for (i = 0U; i < hpcd->Init.dev_endpoints; i++)
 800597c:	2300      	movs	r3, #0
    hpcd->OUT_ep[i].is_in = 0U;
 800597e:	4619      	mov	r1, r3
 8005980:	eb04 1243 	add.w	r2, r4, r3, lsl #5
  for (i = 0U; i < hpcd->Init.dev_endpoints; i++)
 8005984:	1c5d      	adds	r5, r3, #1
    hpcd->OUT_ep[i].xfer_len = 0U;
 8005986:	f103 000a 	add.w	r0, r3, #10
    hpcd->OUT_ep[i].num = i;
 800598a:	f882 3128 	strb.w	r3, [r2, #296]	; 0x128
  for (i = 0U; i < hpcd->Init.dev_endpoints; i++)
 800598e:	b2eb      	uxtb	r3, r5
    hpcd->OUT_ep[i].xfer_len = 0U;
 8005990:	0140      	lsls	r0, r0, #5
  for (i = 0U; i < hpcd->Init.dev_endpoints; i++)
 8005992:	4563      	cmp	r3, ip
    hpcd->OUT_ep[i].is_in = 0U;
 8005994:	f882 1129 	strb.w	r1, [r2, #297]	; 0x129
    hpcd->OUT_ep[i].type = EP_TYPE_CTRL;
 8005998:	f882 112b 	strb.w	r1, [r2, #299]	; 0x12b
    hpcd->OUT_ep[i].maxpacket = 0U;
 800599c:	f8c2 1138 	str.w	r1, [r2, #312]	; 0x138
    hpcd->OUT_ep[i].xfer_buff = 0U;
 80059a0:	f8c2 113c 	str.w	r1, [r2, #316]	; 0x13c
    hpcd->OUT_ep[i].xfer_len = 0U;
 80059a4:	5021      	str	r1, [r4, r0]
  for (i = 0U; i < hpcd->Init.dev_endpoints; i++)
 80059a6:	d3eb      	bcc.n	8005980 <HAL_PCD_Init+0x90>
  if (USB_DevInit(hpcd->Instance, hpcd->Init) != HAL_OK)
 80059a8:	ce0f      	ldmia	r6!, {r0, r1, r2, r3}
 80059aa:	466d      	mov	r5, sp
 80059ac:	f8d4 c000 	ldr.w	ip, [r4]
 80059b0:	c50f      	stmia	r5!, {r0, r1, r2, r3}
 80059b2:	6833      	ldr	r3, [r6, #0]
 80059b4:	4660      	mov	r0, ip
 80059b6:	602b      	str	r3, [r5, #0]
 80059b8:	e897 000e 	ldmia.w	r7, {r1, r2, r3}
 80059bc:	f001 fa46 	bl	8006e4c <USB_DevInit>
 80059c0:	4605      	mov	r5, r0
 80059c2:	2800      	cmp	r0, #0
 80059c4:	d1b6      	bne.n	8005934 <HAL_PCD_Init+0x44>
  hpcd->State = HAL_PCD_STATE_READY;
 80059c6:	2301      	movs	r3, #1
  hpcd->USB_Address = 0U;
 80059c8:	f884 0024 	strb.w	r0, [r4, #36]	; 0x24
  (void)USB_DevDisconnect(hpcd->Instance);
 80059cc:	6820      	ldr	r0, [r4, #0]
  hpcd->State = HAL_PCD_STATE_READY;
 80059ce:	f884 3229 	strb.w	r3, [r4, #553]	; 0x229
  (void)USB_DevDisconnect(hpcd->Instance);
 80059d2:	f001 fe59 	bl	8007688 <USB_DevDisconnect>
  return HAL_OK;
 80059d6:	e7b1      	b.n	800593c <HAL_PCD_Init+0x4c>
    hpcd->Lock = HAL_UNLOCKED;
 80059d8:	f880 2228 	strb.w	r2, [r0, #552]	; 0x228
    HAL_PCD_MspInit(hpcd);
 80059dc:	f002 fd6c 	bl	80084b8 <HAL_PCD_MspInit>
 80059e0:	e791      	b.n	8005906 <HAL_PCD_Init+0x16>
    return HAL_ERROR;
 80059e2:	2501      	movs	r5, #1
}
 80059e4:	4628      	mov	r0, r5
 80059e6:	b007      	add	sp, #28
 80059e8:	bdf0      	pop	{r4, r5, r6, r7, pc}
 80059ea:	bf00      	nop

080059ec <HAL_PCD_Start>:
  * @param  hpcd PCD handle
  * @retval HAL status
  */
HAL_StatusTypeDef HAL_PCD_Start(PCD_HandleTypeDef *hpcd)
{
  __HAL_LOCK(hpcd);
 80059ec:	f890 3228 	ldrb.w	r3, [r0, #552]	; 0x228
 80059f0:	2b01      	cmp	r3, #1
 80059f2:	d010      	beq.n	8005a16 <HAL_PCD_Start+0x2a>
 80059f4:	2101      	movs	r1, #1
{
 80059f6:	b510      	push	{r4, lr}
 80059f8:	4604      	mov	r4, r0
  __HAL_LOCK(hpcd);
 80059fa:	f880 1228 	strb.w	r1, [r0, #552]	; 0x228
#if defined (USB)
  HAL_PCDEx_SetConnectionState(hpcd, 1U);
 80059fe:	f002 fe89 	bl	8008714 <HAL_PCDEx_SetConnectionState>
#endif /* defined (USB) */
  (void)USB_DevConnect(hpcd->Instance);
 8005a02:	6820      	ldr	r0, [r4, #0]
 8005a04:	f001 fe3e 	bl	8007684 <USB_DevConnect>
  __HAL_PCD_ENABLE(hpcd);
 8005a08:	6820      	ldr	r0, [r4, #0]
 8005a0a:	f001 fa09 	bl	8006e20 <USB_EnableGlobalInt>
  __HAL_UNLOCK(hpcd);
 8005a0e:	2000      	movs	r0, #0
 8005a10:	f884 0228 	strb.w	r0, [r4, #552]	; 0x228
  return HAL_OK;
}
 8005a14:	bd10      	pop	{r4, pc}
  __HAL_LOCK(hpcd);
 8005a16:	2002      	movs	r0, #2
}
 8005a18:	4770      	bx	lr
 8005a1a:	bf00      	nop

08005a1c <HAL_PCD_IRQHandler>:
  * @brief  This function handles PCD interrupt request.
  * @param  hpcd PCD handle
  * @retval HAL status
  */
void HAL_PCD_IRQHandler(PCD_HandleTypeDef *hpcd)
{
 8005a1c:	e92d 4ff8 	stmdb	sp!, {r3, r4, r5, r6, r7, r8, r9, sl, fp, lr}
 8005a20:	4604      	mov	r4, r0
  if (__HAL_PCD_GET_FLAG(hpcd, USB_ISTR_CTR))
 8005a22:	6800      	ldr	r0, [r0, #0]
 8005a24:	f001 fe32 	bl	800768c <USB_ReadInterrupts>
 8005a28:	0401      	lsls	r1, r0, #16
 8005a2a:	6822      	ldr	r2, [r4, #0]
 8005a2c:	d443      	bmi.n	8005ab6 <HAL_PCD_IRQHandler+0x9a>
    /* servicing of the endpoint correct transfer interrupt */
    /* clear of the CTR flag into the sub */
    (void)PCD_EP_ISR_Handler(hpcd);
  }

  if (__HAL_PCD_GET_FLAG(hpcd, USB_ISTR_RESET))
 8005a2e:	4610      	mov	r0, r2
 8005a30:	f001 fe2c 	bl	800768c <USB_ReadInterrupts>
 8005a34:	0546      	lsls	r6, r0, #21
 8005a36:	f100 8171 	bmi.w	8005d1c <HAL_PCD_IRQHandler+0x300>
#endif /* USE_HAL_PCD_REGISTER_CALLBACKS */

    (void)HAL_PCD_SetAddress(hpcd, 0U);
  }

  if (__HAL_PCD_GET_FLAG(hpcd, USB_ISTR_PMAOVR))
 8005a3a:	6820      	ldr	r0, [r4, #0]
 8005a3c:	f001 fe26 	bl	800768c <USB_ReadInterrupts>
 8005a40:	f410 4f80 	tst.w	r0, #16384	; 0x4000
  {
    __HAL_PCD_CLEAR_FLAG(hpcd, USB_ISTR_PMAOVR);
 8005a44:	6820      	ldr	r0, [r4, #0]
  if (__HAL_PCD_GET_FLAG(hpcd, USB_ISTR_PMAOVR))
 8005a46:	d007      	beq.n	8005a58 <HAL_PCD_IRQHandler+0x3c>
    __HAL_PCD_CLEAR_FLAG(hpcd, USB_ISTR_PMAOVR);
 8005a48:	f8b0 3044 	ldrh.w	r3, [r0, #68]	; 0x44
 8005a4c:	f423 4380 	bic.w	r3, r3, #16384	; 0x4000
 8005a50:	041b      	lsls	r3, r3, #16
 8005a52:	0c1b      	lsrs	r3, r3, #16
 8005a54:	f8a0 3044 	strh.w	r3, [r0, #68]	; 0x44
  }

  if (__HAL_PCD_GET_FLAG(hpcd, USB_ISTR_ERR))
 8005a58:	f001 fe18 	bl	800768c <USB_ReadInterrupts>
 8005a5c:	f410 5f00 	tst.w	r0, #8192	; 0x2000
  {
    __HAL_PCD_CLEAR_FLAG(hpcd, USB_ISTR_ERR);
 8005a60:	6820      	ldr	r0, [r4, #0]
  if (__HAL_PCD_GET_FLAG(hpcd, USB_ISTR_ERR))
 8005a62:	d007      	beq.n	8005a74 <HAL_PCD_IRQHandler+0x58>
    __HAL_PCD_CLEAR_FLAG(hpcd, USB_ISTR_ERR);
 8005a64:	f8b0 3044 	ldrh.w	r3, [r0, #68]	; 0x44
 8005a68:	f423 5300 	bic.w	r3, r3, #8192	; 0x2000
 8005a6c:	041b      	lsls	r3, r3, #16
 8005a6e:	0c1b      	lsrs	r3, r3, #16
 8005a70:	f8a0 3044 	strh.w	r3, [r0, #68]	; 0x44
  }

  if (__HAL_PCD_GET_FLAG(hpcd, USB_ISTR_WKUP))
 8005a74:	f001 fe0a 	bl	800768c <USB_ReadInterrupts>
 8005a78:	04c5      	lsls	r5, r0, #19
 8005a7a:	f100 8131 	bmi.w	8005ce0 <HAL_PCD_IRQHandler+0x2c4>
 8005a7e:	6820      	ldr	r0, [r4, #0]
#endif /* USE_HAL_PCD_REGISTER_CALLBACKS */

    __HAL_PCD_CLEAR_FLAG(hpcd, USB_ISTR_WKUP);
  }

  if (__HAL_PCD_GET_FLAG(hpcd, USB_ISTR_SUSP))
 8005a80:	f001 fe04 	bl	800768c <USB_ReadInterrupts>
 8005a84:	0500      	lsls	r0, r0, #20
 8005a86:	f100 8104 	bmi.w	8005c92 <HAL_PCD_IRQHandler+0x276>
#else
    HAL_PCD_SuspendCallback(hpcd);
#endif /* USE_HAL_PCD_REGISTER_CALLBACKS */
  }

  if (__HAL_PCD_GET_FLAG(hpcd, USB_ISTR_SOF))
 8005a8a:	6820      	ldr	r0, [r4, #0]
 8005a8c:	f001 fdfe 	bl	800768c <USB_ReadInterrupts>
 8005a90:	0582      	lsls	r2, r0, #22
 8005a92:	f100 80f1 	bmi.w	8005c78 <HAL_PCD_IRQHandler+0x25c>
#else
    HAL_PCD_SOFCallback(hpcd);
#endif /* USE_HAL_PCD_REGISTER_CALLBACKS */
  }

  if (__HAL_PCD_GET_FLAG(hpcd, USB_ISTR_ESOF))
 8005a96:	6820      	ldr	r0, [r4, #0]
 8005a98:	f001 fdf8 	bl	800768c <USB_ReadInterrupts>
 8005a9c:	05c3      	lsls	r3, r0, #23
 8005a9e:	d508      	bpl.n	8005ab2 <HAL_PCD_IRQHandler+0x96>
  {
    /* clear ESOF flag in ISTR */
    __HAL_PCD_CLEAR_FLAG(hpcd, USB_ISTR_ESOF);
 8005aa0:	6822      	ldr	r2, [r4, #0]
 8005aa2:	f8b2 3044 	ldrh.w	r3, [r2, #68]	; 0x44
 8005aa6:	f423 7380 	bic.w	r3, r3, #256	; 0x100
 8005aaa:	041b      	lsls	r3, r3, #16
 8005aac:	0c1b      	lsrs	r3, r3, #16
 8005aae:	f8a2 3044 	strh.w	r3, [r2, #68]	; 0x44
  }
}
 8005ab2:	e8bd 8ff8 	ldmia.w	sp!, {r3, r4, r5, r6, r7, r8, r9, sl, fp, pc}
      if ((wEPVal & USB_EP_CTR_TX) != 0U)
      {
        ep = &hpcd->IN_ep[epindex];

        /* clear int flag */
        PCD_CLEAR_TX_EP_CTR(hpcd->Instance, epindex);
 8005ab6:	f8df a414 	ldr.w	sl, [pc, #1044]	; 8005ecc <HAL_PCD_IRQHandler+0x4b0>
          PCD_FreeUserBuffer(hpcd->Instance, ep->num, 0U);
 8005aba:	f8df b414 	ldr.w	fp, [pc, #1044]	; 8005ed0 <HAL_PCD_IRQHandler+0x4b4>
  while ((hpcd->Instance->ISTR & USB_ISTR_CTR) != 0U)
 8005abe:	f8b2 3044 	ldrh.w	r3, [r2, #68]	; 0x44
 8005ac2:	041f      	lsls	r7, r3, #16
 8005ac4:	d5b3      	bpl.n	8005a2e <HAL_PCD_IRQHandler+0x12>
    wIstr = hpcd->Instance->ISTR;
 8005ac6:	f8b2 1044 	ldrh.w	r1, [r2, #68]	; 0x44
 8005aca:	b289      	uxth	r1, r1
    if (epindex == 0U)
 8005acc:	f011 050f 	ands.w	r5, r1, #15
 8005ad0:	d157      	bne.n	8005b82 <HAL_PCD_IRQHandler+0x166>
      if ((wIstr & USB_ISTR_DIR) == 0U)
 8005ad2:	f011 0110 	ands.w	r1, r1, #16
        PCD_CLEAR_TX_EP_CTR(hpcd->Instance, PCD_ENDP0);
 8005ad6:	8813      	ldrh	r3, [r2, #0]
      if ((wIstr & USB_ISTR_DIR) == 0U)
 8005ad8:	f000 813e 	beq.w	8005d58 <HAL_PCD_IRQHandler+0x33c>
        wEPVal = PCD_GET_ENDPOINT(hpcd->Instance, PCD_ENDP0);
 8005adc:	b29b      	uxth	r3, r3
        if ((wEPVal & USB_EP_SETUP) != 0U)
 8005ade:	f413 6500 	ands.w	r5, r3, #2048	; 0x800
 8005ae2:	f040 817a 	bne.w	8005dda <HAL_PCD_IRQHandler+0x3be>
        else if ((wEPVal & USB_EP_CTR_RX) != 0U)
 8005ae6:	041b      	lsls	r3, r3, #16
 8005ae8:	d5e9      	bpl.n	8005abe <HAL_PCD_IRQHandler+0xa2>
          PCD_CLEAR_RX_EP_CTR(hpcd->Instance, PCD_ENDP0);
 8005aea:	f640 738f 	movw	r3, #3983	; 0xf8f
 8005aee:	8811      	ldrh	r1, [r2, #0]
 8005af0:	400b      	ands	r3, r1
 8005af2:	f043 0380 	orr.w	r3, r3, #128	; 0x80
 8005af6:	8013      	strh	r3, [r2, #0]
          ep->xfer_count = PCD_GET_EP_RX_CNT(hpcd->Instance, ep->num);
 8005af8:	f8b2 3050 	ldrh.w	r3, [r2, #80]	; 0x50
 8005afc:	f894 1128 	ldrb.w	r1, [r4, #296]	; 0x128
 8005b00:	eb03 03c1 	add.w	r3, r3, r1, lsl #3
 8005b04:	eb02 0343 	add.w	r3, r2, r3, lsl #1
 8005b08:	f8b3 340c 	ldrh.w	r3, [r3, #1036]	; 0x40c
 8005b0c:	f3c3 0309 	ubfx	r3, r3, #0, #10
 8005b10:	f8c4 3144 	str.w	r3, [r4, #324]	; 0x144
          if ((ep->xfer_count != 0U) && (ep->xfer_buff != 0U))
 8005b14:	b19b      	cbz	r3, 8005b3e <HAL_PCD_IRQHandler+0x122>
 8005b16:	f8d4 113c 	ldr.w	r1, [r4, #316]	; 0x13c
 8005b1a:	b181      	cbz	r1, 8005b3e <HAL_PCD_IRQHandler+0x122>
            USB_ReadPMA(hpcd->Instance, ep->xfer_buff,
 8005b1c:	4610      	mov	r0, r2
 8005b1e:	f8b4 212e 	ldrh.w	r2, [r4, #302]	; 0x12e
 8005b22:	f001 fdb9 	bl	8007698 <USB_ReadPMA>
            ep->xfer_buff += ep->xfer_count;
 8005b26:	f8d4 313c 	ldr.w	r3, [r4, #316]	; 0x13c
 8005b2a:	f8d4 2144 	ldr.w	r2, [r4, #324]	; 0x144
            HAL_PCD_DataOutStageCallback(hpcd, 0U);
 8005b2e:	4629      	mov	r1, r5
            ep->xfer_buff += ep->xfer_count;
 8005b30:	4413      	add	r3, r2
 8005b32:	f8c4 313c 	str.w	r3, [r4, #316]	; 0x13c
            HAL_PCD_DataOutStageCallback(hpcd, 0U);
 8005b36:	4620      	mov	r0, r4
 8005b38:	f002 fce4 	bl	8008504 <HAL_PCD_DataOutStageCallback>
 8005b3c:	6822      	ldr	r2, [r4, #0]
          PCD_SET_EP_RX_CNT(hpcd->Instance, PCD_ENDP0, ep->maxpacket);
 8005b3e:	f8b2 3050 	ldrh.w	r3, [r2, #80]	; 0x50
 8005b42:	f8d4 1138 	ldr.w	r1, [r4, #312]	; 0x138
 8005b46:	b29b      	uxth	r3, r3
 8005b48:	f202 400c 	addw	r0, r2, #1036	; 0x40c
 8005b4c:	2900      	cmp	r1, #0
 8005b4e:	f040 8198 	bne.w	8005e82 <HAL_PCD_IRQHandler+0x466>
 8005b52:	5ac1      	ldrh	r1, [r0, r3]
 8005b54:	f421 41f8 	bic.w	r1, r1, #31744	; 0x7c00
 8005b58:	0409      	lsls	r1, r1, #16
 8005b5a:	0c09      	lsrs	r1, r1, #16
 8005b5c:	52c1      	strh	r1, [r0, r3]
 8005b5e:	5ac1      	ldrh	r1, [r0, r3]
 8005b60:	ea6f 4141 	mvn.w	r1, r1, lsl #17
 8005b64:	ea6f 4151 	mvn.w	r1, r1, lsr #17
 8005b68:	b289      	uxth	r1, r1
 8005b6a:	52c1      	strh	r1, [r0, r3]
          PCD_SET_EP_RX_STATUS(hpcd->Instance, PCD_ENDP0, USB_EP_RX_VALID);
 8005b6c:	8811      	ldrh	r1, [r2, #0]
 8005b6e:	4bd6      	ldr	r3, [pc, #856]	; (8005ec8 <HAL_PCD_IRQHandler+0x4ac>)
 8005b70:	400b      	ands	r3, r1
 8005b72:	f483 5340 	eor.w	r3, r3, #12288	; 0x3000
 8005b76:	f443 4300 	orr.w	r3, r3, #32768	; 0x8000
 8005b7a:	f043 0380 	orr.w	r3, r3, #128	; 0x80
 8005b7e:	8013      	strh	r3, [r2, #0]
 8005b80:	e79d      	b.n	8005abe <HAL_PCD_IRQHandler+0xa2>
      wEPVal = PCD_GET_ENDPOINT(hpcd->Instance, epindex);
 8005b82:	f832 6025 	ldrh.w	r6, [r2, r5, lsl #2]
 8005b86:	b2b6      	uxth	r6, r6
      if ((wEPVal & USB_EP_CTR_RX) != 0U)
 8005b88:	0431      	lsls	r1, r6, #16
 8005b8a:	d426      	bmi.n	8005bda <HAL_PCD_IRQHandler+0x1be>
      if ((wEPVal & USB_EP_CTR_TX) != 0U)
 8005b8c:	0633      	lsls	r3, r6, #24
 8005b8e:	d596      	bpl.n	8005abe <HAL_PCD_IRQHandler+0xa2>
        PCD_CLEAR_TX_EP_CTR(hpcd->Instance, epindex);
 8005b90:	f832 1025 	ldrh.w	r1, [r2, r5, lsl #2]

        /*multi-packet on the NON control IN endpoint*/
        ep->xfer_count = PCD_GET_EP_TX_CNT(hpcd->Instance, ep->num);
 8005b94:	eb04 1345 	add.w	r3, r4, r5, lsl #5
        PCD_CLEAR_TX_EP_CTR(hpcd->Instance, epindex);
 8005b98:	ea0a 0101 	and.w	r1, sl, r1
 8005b9c:	f441 4100 	orr.w	r1, r1, #32768	; 0x8000
 8005ba0:	f822 1025 	strh.w	r1, [r2, r5, lsl #2]
        ep->xfer_count = PCD_GET_EP_TX_CNT(hpcd->Instance, ep->num);
 8005ba4:	f8b2 1050 	ldrh.w	r1, [r2, #80]	; 0x50
 8005ba8:	f893 5028 	ldrb.w	r5, [r3, #40]	; 0x28
        ep->xfer_buff += ep->xfer_count;
 8005bac:	6bd8      	ldr	r0, [r3, #60]	; 0x3c
        ep->xfer_count = PCD_GET_EP_TX_CNT(hpcd->Instance, ep->num);
 8005bae:	eb01 01c5 	add.w	r1, r1, r5, lsl #3
 8005bb2:	eb02 0141 	add.w	r1, r2, r1, lsl #1
 8005bb6:	f8b1 1404 	ldrh.w	r1, [r1, #1028]	; 0x404

        /* Zero Length Packet? */
        if (ep->xfer_len == 0U)
 8005bba:	6c1d      	ldr	r5, [r3, #64]	; 0x40
        ep->xfer_count = PCD_GET_EP_TX_CNT(hpcd->Instance, ep->num);
 8005bbc:	f3c1 0109 	ubfx	r1, r1, #0, #10
        ep->xfer_buff += ep->xfer_count;
 8005bc0:	1846      	adds	r6, r0, r1
        ep->xfer_count = PCD_GET_EP_TX_CNT(hpcd->Instance, ep->num);
 8005bc2:	6459      	str	r1, [r3, #68]	; 0x44
        ep->xfer_buff += ep->xfer_count;
 8005bc4:	63de      	str	r6, [r3, #60]	; 0x3c
        if (ep->xfer_len == 0U)
 8005bc6:	2d00      	cmp	r5, #0
 8005bc8:	f040 80ef 	bne.w	8005daa <HAL_PCD_IRQHandler+0x38e>
        {
          /* TX COMPLETE */
#if (USE_HAL_PCD_REGISTER_CALLBACKS == 1U)
          hpcd->DataInStageCallback(hpcd, ep->num);
#else
          HAL_PCD_DataInStageCallback(hpcd, ep->num);
 8005bcc:	f893 1028 	ldrb.w	r1, [r3, #40]	; 0x28
 8005bd0:	4620      	mov	r0, r4
 8005bd2:	f002 fc9f 	bl	8008514 <HAL_PCD_DataInStageCallback>
 8005bd6:	6822      	ldr	r2, [r4, #0]
 8005bd8:	e771      	b.n	8005abe <HAL_PCD_IRQHandler+0xa2>
        PCD_CLEAR_RX_EP_CTR(hpcd->Instance, epindex);
 8005bda:	f640 738f 	movw	r3, #3983	; 0xf8f
 8005bde:	f832 1025 	ldrh.w	r1, [r2, r5, lsl #2]
        if (ep->doublebuffer == 0U)
 8005be2:	016f      	lsls	r7, r5, #5
        PCD_CLEAR_RX_EP_CTR(hpcd->Instance, epindex);
 8005be4:	400b      	ands	r3, r1
 8005be6:	f043 0380 	orr.w	r3, r3, #128	; 0x80
 8005bea:	f822 3025 	strh.w	r3, [r2, r5, lsl #2]
        if (ep->doublebuffer == 0U)
 8005bee:	eb04 0907 	add.w	r9, r4, r7
 8005bf2:	f899 3134 	ldrb.w	r3, [r9, #308]	; 0x134
 8005bf6:	f502 6080 	add.w	r0, r2, #1024	; 0x400
 8005bfa:	2b00      	cmp	r3, #0
 8005bfc:	f000 810f 	beq.w	8005e1e <HAL_PCD_IRQHandler+0x402>
          if ((PCD_GET_ENDPOINT(hpcd->Instance, ep->num) & USB_EP_DTOG_RX) != 0U)
 8005c00:	f899 3128 	ldrb.w	r3, [r9, #296]	; 0x128
 8005c04:	f832 c023 	ldrh.w	ip, [r2, r3, lsl #2]
 8005c08:	eb02 0183 	add.w	r1, r2, r3, lsl #2
 8005c0c:	f41c 4f80 	tst.w	ip, #16384	; 0x4000
            count = (uint16_t)PCD_GET_EP_DBUF0_CNT(hpcd->Instance, ep->num);
 8005c10:	f8b2 c050 	ldrh.w	ip, [r2, #80]	; 0x50
 8005c14:	ea4f 03c3 	mov.w	r3, r3, lsl #3
 8005c18:	4463      	add	r3, ip
          if ((PCD_GET_ENDPOINT(hpcd->Instance, ep->num) & USB_EP_DTOG_RX) != 0U)
 8005c1a:	f000 811b 	beq.w	8005e54 <HAL_PCD_IRQHandler+0x438>
            count = (uint16_t)PCD_GET_EP_DBUF0_CNT(hpcd->Instance, ep->num);
 8005c1e:	3302      	adds	r3, #2
 8005c20:	f830 8013 	ldrh.w	r8, [r0, r3, lsl #1]
 8005c24:	f3c8 0809 	ubfx	r8, r8, #0, #10
            if (count != 0U)
 8005c28:	f1b8 0f00 	cmp.w	r8, #0
 8005c2c:	f040 815d 	bne.w	8005eea <HAL_PCD_IRQHandler+0x4ce>
          PCD_FreeUserBuffer(hpcd->Instance, ep->num, 0U);
 8005c30:	880b      	ldrh	r3, [r1, #0]
 8005c32:	ea0b 0303 	and.w	r3, fp, r3
 8005c36:	f443 4300 	orr.w	r3, r3, #32768	; 0x8000
 8005c3a:	f043 03c0 	orr.w	r3, r3, #192	; 0xc0
 8005c3e:	800b      	strh	r3, [r1, #0]
 8005c40:	4427      	add	r7, r4
        ep->xfer_count += count;
 8005c42:	f8d7 2144 	ldr.w	r2, [r7, #324]	; 0x144
        ep->xfer_buff += count;
 8005c46:	f8d7 313c 	ldr.w	r3, [r7, #316]	; 0x13c
        if ((ep->xfer_len == 0U) || (count < ep->maxpacket))
 8005c4a:	f8d7 0140 	ldr.w	r0, [r7, #320]	; 0x140
        ep->xfer_count += count;
 8005c4e:	4442      	add	r2, r8
        ep->xfer_buff += count;
 8005c50:	4443      	add	r3, r8
        ep->xfer_count += count;
 8005c52:	f8c7 2144 	str.w	r2, [r7, #324]	; 0x144
        ep->xfer_buff += count;
 8005c56:	f8c7 313c 	str.w	r3, [r7, #316]	; 0x13c
        if ((ep->xfer_len == 0U) || (count < ep->maxpacket))
 8005c5a:	2800      	cmp	r0, #0
 8005c5c:	f000 80f7 	beq.w	8005e4e <HAL_PCD_IRQHandler+0x432>
 8005c60:	f8d7 2138 	ldr.w	r2, [r7, #312]	; 0x138
 8005c64:	f897 1128 	ldrb.w	r1, [r7, #296]	; 0x128
 8005c68:	4590      	cmp	r8, r2
 8005c6a:	f080 8114 	bcs.w	8005e96 <HAL_PCD_IRQHandler+0x47a>
          HAL_PCD_DataOutStageCallback(hpcd, ep->num);
 8005c6e:	4620      	mov	r0, r4
 8005c70:	f002 fc48 	bl	8008504 <HAL_PCD_DataOutStageCallback>
 8005c74:	6822      	ldr	r2, [r4, #0]
 8005c76:	e789      	b.n	8005b8c <HAL_PCD_IRQHandler+0x170>
    __HAL_PCD_CLEAR_FLAG(hpcd, USB_ISTR_SOF);
 8005c78:	6822      	ldr	r2, [r4, #0]
    HAL_PCD_SOFCallback(hpcd);
 8005c7a:	4620      	mov	r0, r4
    __HAL_PCD_CLEAR_FLAG(hpcd, USB_ISTR_SOF);
 8005c7c:	f8b2 3044 	ldrh.w	r3, [r2, #68]	; 0x44
 8005c80:	f423 7300 	bic.w	r3, r3, #512	; 0x200
 8005c84:	041b      	lsls	r3, r3, #16
 8005c86:	0c1b      	lsrs	r3, r3, #16
 8005c88:	f8a2 3044 	strh.w	r3, [r2, #68]	; 0x44
    HAL_PCD_SOFCallback(hpcd);
 8005c8c:	f002 fc4a 	bl	8008524 <HAL_PCD_SOFCallback>
 8005c90:	e701      	b.n	8005a96 <HAL_PCD_IRQHandler+0x7a>
    hpcd->Instance->CNTR |= USB_CNTR_FSUSP;
 8005c92:	6823      	ldr	r3, [r4, #0]
 8005c94:	f8b3 2040 	ldrh.w	r2, [r3, #64]	; 0x40
    if (__HAL_PCD_GET_FLAG(hpcd, USB_ISTR_WKUP))
 8005c98:	4618      	mov	r0, r3
    hpcd->Instance->CNTR |= USB_CNTR_FSUSP;
 8005c9a:	f042 0208 	orr.w	r2, r2, #8
 8005c9e:	f8a3 2040 	strh.w	r2, [r3, #64]	; 0x40
    __HAL_PCD_CLEAR_FLAG(hpcd, USB_ISTR_SUSP);
 8005ca2:	f8b3 2044 	ldrh.w	r2, [r3, #68]	; 0x44
 8005ca6:	f422 6200 	bic.w	r2, r2, #2048	; 0x800
 8005caa:	0412      	lsls	r2, r2, #16
 8005cac:	0c12      	lsrs	r2, r2, #16
 8005cae:	f8a3 2044 	strh.w	r2, [r3, #68]	; 0x44
    hpcd->Instance->CNTR |= USB_CNTR_LP_MODE;
 8005cb2:	f8b3 2040 	ldrh.w	r2, [r3, #64]	; 0x40
 8005cb6:	f042 0204 	orr.w	r2, r2, #4
 8005cba:	f8a3 2040 	strh.w	r2, [r3, #64]	; 0x40
    if (__HAL_PCD_GET_FLAG(hpcd, USB_ISTR_WKUP))
 8005cbe:	f001 fce5 	bl	800768c <USB_ReadInterrupts>
 8005cc2:	04c1      	lsls	r1, r0, #19
 8005cc4:	d508      	bpl.n	8005cd8 <HAL_PCD_IRQHandler+0x2bc>
       __HAL_PCD_CLEAR_FLAG(hpcd, USB_ISTR_WKUP);
 8005cc6:	6822      	ldr	r2, [r4, #0]
 8005cc8:	f8b2 3044 	ldrh.w	r3, [r2, #68]	; 0x44
 8005ccc:	f423 5380 	bic.w	r3, r3, #4096	; 0x1000
 8005cd0:	041b      	lsls	r3, r3, #16
 8005cd2:	0c1b      	lsrs	r3, r3, #16
 8005cd4:	f8a2 3044 	strh.w	r3, [r2, #68]	; 0x44
    HAL_PCD_SuspendCallback(hpcd);
 8005cd8:	4620      	mov	r0, r4
 8005cda:	f002 fc39 	bl	8008550 <HAL_PCD_SuspendCallback>
 8005cde:	e6d4      	b.n	8005a8a <HAL_PCD_IRQHandler+0x6e>
    hpcd->Instance->CNTR &= (uint16_t) ~(USB_CNTR_LP_MODE);
 8005ce0:	6822      	ldr	r2, [r4, #0]
    HAL_PCD_ResumeCallback(hpcd);
 8005ce2:	4620      	mov	r0, r4
    hpcd->Instance->CNTR &= (uint16_t) ~(USB_CNTR_LP_MODE);
 8005ce4:	f8b2 3040 	ldrh.w	r3, [r2, #64]	; 0x40
 8005ce8:	f023 0304 	bic.w	r3, r3, #4
 8005cec:	041b      	lsls	r3, r3, #16
 8005cee:	0c1b      	lsrs	r3, r3, #16
 8005cf0:	f8a2 3040 	strh.w	r3, [r2, #64]	; 0x40
    hpcd->Instance->CNTR &= (uint16_t) ~(USB_CNTR_FSUSP);
 8005cf4:	f8b2 3040 	ldrh.w	r3, [r2, #64]	; 0x40
 8005cf8:	f023 0308 	bic.w	r3, r3, #8
 8005cfc:	041b      	lsls	r3, r3, #16
 8005cfe:	0c1b      	lsrs	r3, r3, #16
 8005d00:	f8a2 3040 	strh.w	r3, [r2, #64]	; 0x40
    HAL_PCD_ResumeCallback(hpcd);
 8005d04:	f002 fc34 	bl	8008570 <HAL_PCD_ResumeCallback>
    __HAL_PCD_CLEAR_FLAG(hpcd, USB_ISTR_WKUP);
 8005d08:	6820      	ldr	r0, [r4, #0]
 8005d0a:	f8b0 3044 	ldrh.w	r3, [r0, #68]	; 0x44
 8005d0e:	f423 5380 	bic.w	r3, r3, #4096	; 0x1000
 8005d12:	041b      	lsls	r3, r3, #16
 8005d14:	0c1b      	lsrs	r3, r3, #16
 8005d16:	f8a0 3044 	strh.w	r3, [r0, #68]	; 0x44
 8005d1a:	e6b1      	b.n	8005a80 <HAL_PCD_IRQHandler+0x64>
    __HAL_PCD_CLEAR_FLAG(hpcd, USB_ISTR_RESET);
 8005d1c:	6822      	ldr	r2, [r4, #0]
    HAL_PCD_ResetCallback(hpcd);
 8005d1e:	4620      	mov	r0, r4
    __HAL_PCD_CLEAR_FLAG(hpcd, USB_ISTR_RESET);
 8005d20:	f8b2 3044 	ldrh.w	r3, [r2, #68]	; 0x44
 8005d24:	f423 6380 	bic.w	r3, r3, #1024	; 0x400
 8005d28:	041b      	lsls	r3, r3, #16
 8005d2a:	0c1b      	lsrs	r3, r3, #16
 8005d2c:	f8a2 3044 	strh.w	r3, [r2, #68]	; 0x44
    HAL_PCD_ResetCallback(hpcd);
 8005d30:	f002 fbfc 	bl	800852c <HAL_PCD_ResetCallback>
  __HAL_LOCK(hpcd);
 8005d34:	f894 3228 	ldrb.w	r3, [r4, #552]	; 0x228
 8005d38:	2b01      	cmp	r3, #1
 8005d3a:	f43f ae7e 	beq.w	8005a3a <HAL_PCD_IRQHandler+0x1e>
  hpcd->USB_Address = address;
 8005d3e:	2500      	movs	r5, #0
  __HAL_LOCK(hpcd);
 8005d40:	2301      	movs	r3, #1
  hpcd->USB_Address = address;
 8005d42:	f884 5024 	strb.w	r5, [r4, #36]	; 0x24
  __HAL_LOCK(hpcd);
 8005d46:	f884 3228 	strb.w	r3, [r4, #552]	; 0x228
  (void)USB_SetDevAddress(hpcd->Instance, address);
 8005d4a:	4629      	mov	r1, r5
 8005d4c:	6820      	ldr	r0, [r4, #0]
 8005d4e:	f001 fc93 	bl	8007678 <USB_SetDevAddress>
  __HAL_UNLOCK(hpcd);
 8005d52:	f884 5228 	strb.w	r5, [r4, #552]	; 0x228
 8005d56:	e670      	b.n	8005a3a <HAL_PCD_IRQHandler+0x1e>
        PCD_CLEAR_TX_EP_CTR(hpcd->Instance, PCD_ENDP0);
 8005d58:	ea0a 0303 	and.w	r3, sl, r3
 8005d5c:	f443 4300 	orr.w	r3, r3, #32768	; 0x8000
 8005d60:	8013      	strh	r3, [r2, #0]
        ep->xfer_count = PCD_GET_EP_TX_CNT(hpcd->Instance, ep->num);
 8005d62:	f8b2 3050 	ldrh.w	r3, [r2, #80]	; 0x50
 8005d66:	f894 0028 	ldrb.w	r0, [r4, #40]	; 0x28
        ep->xfer_buff += ep->xfer_count;
 8005d6a:	6be5      	ldr	r5, [r4, #60]	; 0x3c
        ep->xfer_count = PCD_GET_EP_TX_CNT(hpcd->Instance, ep->num);
 8005d6c:	eb03 03c0 	add.w	r3, r3, r0, lsl #3
 8005d70:	eb02 0243 	add.w	r2, r2, r3, lsl #1
 8005d74:	f8b2 3404 	ldrh.w	r3, [r2, #1028]	; 0x404
        HAL_PCD_DataInStageCallback(hpcd, 0U);
 8005d78:	4620      	mov	r0, r4
        ep->xfer_count = PCD_GET_EP_TX_CNT(hpcd->Instance, ep->num);
 8005d7a:	f3c3 0309 	ubfx	r3, r3, #0, #10
        ep->xfer_buff += ep->xfer_count;
 8005d7e:	441d      	add	r5, r3
        ep->xfer_count = PCD_GET_EP_TX_CNT(hpcd->Instance, ep->num);
 8005d80:	6463      	str	r3, [r4, #68]	; 0x44
        ep->xfer_buff += ep->xfer_count;
 8005d82:	63e5      	str	r5, [r4, #60]	; 0x3c
        HAL_PCD_DataInStageCallback(hpcd, 0U);
 8005d84:	f002 fbc6 	bl	8008514 <HAL_PCD_DataInStageCallback>
        if ((hpcd->USB_Address > 0U) && (ep->xfer_len == 0U))
 8005d88:	f894 3024 	ldrb.w	r3, [r4, #36]	; 0x24
 8005d8c:	b31b      	cbz	r3, 8005dd6 <HAL_PCD_IRQHandler+0x3ba>
 8005d8e:	6c23      	ldr	r3, [r4, #64]	; 0x40
 8005d90:	6822      	ldr	r2, [r4, #0]
 8005d92:	2b00      	cmp	r3, #0
 8005d94:	f47f ae93 	bne.w	8005abe <HAL_PCD_IRQHandler+0xa2>
          hpcd->Instance->DADDR = ((uint16_t)hpcd->USB_Address | USB_DADDR_EF);
 8005d98:	f894 1024 	ldrb.w	r1, [r4, #36]	; 0x24
 8005d9c:	f041 0180 	orr.w	r1, r1, #128	; 0x80
 8005da0:	f8a2 104c 	strh.w	r1, [r2, #76]	; 0x4c
          hpcd->USB_Address = 0U;
 8005da4:	f884 3024 	strb.w	r3, [r4, #36]	; 0x24
 8005da8:	e689      	b.n	8005abe <HAL_PCD_IRQHandler+0xa2>
  ep->xfer_count = 0U;
 8005daa:	f04f 0c00 	mov.w	ip, #0
  ep->is_in = 1U;
 8005dae:	2701      	movs	r7, #1
 8005db0:	f893 3028 	ldrb.w	r3, [r3, #40]	; 0x28
    (void)USB_EPStartXfer(hpcd->Instance, ep);
 8005db4:	4610      	mov	r0, r2
 8005db6:	f003 0207 	and.w	r2, r3, #7
 8005dba:	0151      	lsls	r1, r2, #5
  ep->xfer_buff = pBuf;
 8005dbc:	1863      	adds	r3, r4, r1
  ep = &hpcd->IN_ep[ep_addr & EP_ADDR_MSK];
 8005dbe:	3128      	adds	r1, #40	; 0x28
  ep->num = ep_addr & EP_ADDR_MSK;
 8005dc0:	f883 2028 	strb.w	r2, [r3, #40]	; 0x28
  ep->xfer_len = len;
 8005dc4:	e9c3 650f 	strd	r6, r5, [r3, #60]	; 0x3c
    (void)USB_EPStartXfer(hpcd->Instance, ep);
 8005dc8:	4421      	add	r1, r4
  ep->xfer_count = 0U;
 8005dca:	f8c3 c044 	str.w	ip, [r3, #68]	; 0x44
  ep->is_in = 1U;
 8005dce:	f883 7029 	strb.w	r7, [r3, #41]	; 0x29
    (void)USB_EPStartXfer(hpcd->Instance, ep);
 8005dd2:	f001 fab3 	bl	800733c <USB_EPStartXfer>
 8005dd6:	6822      	ldr	r2, [r4, #0]
 8005dd8:	e671      	b.n	8005abe <HAL_PCD_IRQHandler+0xa2>
          ep->xfer_count = PCD_GET_EP_RX_CNT(hpcd->Instance, ep->num);
 8005dda:	f8b2 3050 	ldrh.w	r3, [r2, #80]	; 0x50
 8005dde:	f894 1128 	ldrb.w	r1, [r4, #296]	; 0x128
          USB_ReadPMA(hpcd->Instance, (uint8_t *)hpcd->Setup,
 8005de2:	4610      	mov	r0, r2
          ep->xfer_count = PCD_GET_EP_RX_CNT(hpcd->Instance, ep->num);
 8005de4:	eb03 03c1 	add.w	r3, r3, r1, lsl #3
 8005de8:	eb02 0243 	add.w	r2, r2, r3, lsl #1
 8005dec:	f8b2 340c 	ldrh.w	r3, [r2, #1036]	; 0x40c
          USB_ReadPMA(hpcd->Instance, (uint8_t *)hpcd->Setup,
 8005df0:	f504 710c 	add.w	r1, r4, #560	; 0x230
 8005df4:	f3c3 0309 	ubfx	r3, r3, #0, #10
 8005df8:	f8b4 212e 	ldrh.w	r2, [r4, #302]	; 0x12e
          ep->xfer_count = PCD_GET_EP_RX_CNT(hpcd->Instance, ep->num);
 8005dfc:	f8c4 3144 	str.w	r3, [r4, #324]	; 0x144
          USB_ReadPMA(hpcd->Instance, (uint8_t *)hpcd->Setup,
 8005e00:	f001 fc4a 	bl	8007698 <USB_ReadPMA>
          PCD_CLEAR_RX_EP_CTR(hpcd->Instance, PCD_ENDP0);
 8005e04:	f640 738f 	movw	r3, #3983	; 0xf8f
 8005e08:	6822      	ldr	r2, [r4, #0]
          HAL_PCD_SetupStageCallback(hpcd);
 8005e0a:	4620      	mov	r0, r4
          PCD_CLEAR_RX_EP_CTR(hpcd->Instance, PCD_ENDP0);
 8005e0c:	8811      	ldrh	r1, [r2, #0]
 8005e0e:	400b      	ands	r3, r1
 8005e10:	f043 0380 	orr.w	r3, r3, #128	; 0x80
 8005e14:	8013      	strh	r3, [r2, #0]
          HAL_PCD_SetupStageCallback(hpcd);
 8005e16:	f002 fb6f 	bl	80084f8 <HAL_PCD_SetupStageCallback>
 8005e1a:	6822      	ldr	r2, [r4, #0]
 8005e1c:	e64f      	b.n	8005abe <HAL_PCD_IRQHandler+0xa2>
          count = (uint16_t)PCD_GET_EP_RX_CNT(hpcd->Instance, ep->num);
 8005e1e:	f8b2 3050 	ldrh.w	r3, [r2, #80]	; 0x50
 8005e22:	f899 1128 	ldrb.w	r1, [r9, #296]	; 0x128
 8005e26:	3306      	adds	r3, #6
 8005e28:	eb03 03c1 	add.w	r3, r3, r1, lsl #3
 8005e2c:	f830 8013 	ldrh.w	r8, [r0, r3, lsl #1]
 8005e30:	f3c8 0809 	ubfx	r8, r8, #0, #10
          if (count != 0U)
 8005e34:	f1b8 0f00 	cmp.w	r8, #0
 8005e38:	f43f af02 	beq.w	8005c40 <HAL_PCD_IRQHandler+0x224>
            USB_ReadPMA(hpcd->Instance, ep->xfer_buff, ep->pmaadress, count);
 8005e3c:	4610      	mov	r0, r2
 8005e3e:	4643      	mov	r3, r8
 8005e40:	f8b9 212e 	ldrh.w	r2, [r9, #302]	; 0x12e
 8005e44:	f8d9 113c 	ldr.w	r1, [r9, #316]	; 0x13c
 8005e48:	f001 fc26 	bl	8007698 <USB_ReadPMA>
 8005e4c:	e6f8      	b.n	8005c40 <HAL_PCD_IRQHandler+0x224>
 8005e4e:	f897 1128 	ldrb.w	r1, [r7, #296]	; 0x128
 8005e52:	e70c      	b.n	8005c6e <HAL_PCD_IRQHandler+0x252>
            count = (uint16_t)PCD_GET_EP_DBUF1_CNT(hpcd->Instance, ep->num);
 8005e54:	3306      	adds	r3, #6
 8005e56:	f830 8013 	ldrh.w	r8, [r0, r3, lsl #1]
 8005e5a:	f3c8 0809 	ubfx	r8, r8, #0, #10
            if (count != 0U)
 8005e5e:	f1b8 0f00 	cmp.w	r8, #0
 8005e62:	f43f aee5 	beq.w	8005c30 <HAL_PCD_IRQHandler+0x214>
              USB_ReadPMA(hpcd->Instance, ep->xfer_buff, ep->pmaaddr1, count);
 8005e66:	4643      	mov	r3, r8
 8005e68:	4610      	mov	r0, r2
 8005e6a:	f8b9 2132 	ldrh.w	r2, [r9, #306]	; 0x132
 8005e6e:	f8d9 113c 	ldr.w	r1, [r9, #316]	; 0x13c
 8005e72:	f001 fc11 	bl	8007698 <USB_ReadPMA>
 8005e76:	f899 3128 	ldrb.w	r3, [r9, #296]	; 0x128
 8005e7a:	6821      	ldr	r1, [r4, #0]
 8005e7c:	eb01 0183 	add.w	r1, r1, r3, lsl #2
 8005e80:	e6d6      	b.n	8005c30 <HAL_PCD_IRQHandler+0x214>
          PCD_SET_EP_RX_CNT(hpcd->Instance, PCD_ENDP0, ep->maxpacket);
 8005e82:	293e      	cmp	r1, #62	; 0x3e
 8005e84:	d826      	bhi.n	8005ed4 <HAL_PCD_IRQHandler+0x4b8>
 8005e86:	084d      	lsrs	r5, r1, #1
 8005e88:	07cf      	lsls	r7, r1, #31
 8005e8a:	bf48      	it	mi
 8005e8c:	3501      	addmi	r5, #1
 8005e8e:	02ad      	lsls	r5, r5, #10
 8005e90:	b2ad      	uxth	r5, r5
 8005e92:	52c5      	strh	r5, [r0, r3]
 8005e94:	e66a      	b.n	8005b6c <HAL_PCD_IRQHandler+0x150>
  ep->xfer_count = 0U;
 8005e96:	f04f 0c00 	mov.w	ip, #0
 8005e9a:	f001 0107 	and.w	r1, r1, #7
 8005e9e:	014f      	lsls	r7, r1, #5
  ep->xfer_buff = pBuf;
 8005ea0:	19e2      	adds	r2, r4, r7
  ep = &hpcd->OUT_ep[ep_addr & EP_ADDR_MSK];
 8005ea2:	f507 7794 	add.w	r7, r7, #296	; 0x128
  ep->num = ep_addr & EP_ADDR_MSK;
 8005ea6:	f882 1128 	strb.w	r1, [r2, #296]	; 0x128
  ep->xfer_len = len;
 8005eaa:	f8c2 0140 	str.w	r0, [r2, #320]	; 0x140
  ep->xfer_buff = pBuf;
 8005eae:	f8c2 313c 	str.w	r3, [r2, #316]	; 0x13c
  ep->xfer_count = 0U;
 8005eb2:	f8c2 c144 	str.w	ip, [r2, #324]	; 0x144
  ep->is_in = 0U;
 8005eb6:	f882 c129 	strb.w	ip, [r2, #297]	; 0x129
    (void)USB_EPStartXfer(hpcd->Instance, ep);
 8005eba:	19e1      	adds	r1, r4, r7
 8005ebc:	6820      	ldr	r0, [r4, #0]
 8005ebe:	f001 fa3d 	bl	800733c <USB_EPStartXfer>
 8005ec2:	6822      	ldr	r2, [r4, #0]
 8005ec4:	e662      	b.n	8005b8c <HAL_PCD_IRQHandler+0x170>
 8005ec6:	bf00      	nop
 8005ec8:	ffffbf8f 	.word	0xffffbf8f
 8005ecc:	ffff8f0f 	.word	0xffff8f0f
 8005ed0:	ffff8f8f 	.word	0xffff8f8f
          PCD_SET_EP_RX_CNT(hpcd->Instance, PCD_ENDP0, ep->maxpacket);
 8005ed4:	094d      	lsrs	r5, r1, #5
 8005ed6:	06ce      	lsls	r6, r1, #27
 8005ed8:	4906      	ldr	r1, [pc, #24]	; (8005ef4 <HAL_PCD_IRQHandler+0x4d8>)
 8005eda:	bf08      	it	eq
 8005edc:	f105 35ff 	addeq.w	r5, r5, #4294967295
 8005ee0:	ea41 2585 	orr.w	r5, r1, r5, lsl #10
 8005ee4:	b2ad      	uxth	r5, r5
 8005ee6:	52c5      	strh	r5, [r0, r3]
 8005ee8:	e640      	b.n	8005b6c <HAL_PCD_IRQHandler+0x150>
              USB_ReadPMA(hpcd->Instance, ep->xfer_buff, ep->pmaaddr0, count);
 8005eea:	4610      	mov	r0, r2
 8005eec:	4643      	mov	r3, r8
 8005eee:	f8b9 2130 	ldrh.w	r2, [r9, #304]	; 0x130
 8005ef2:	e7bc      	b.n	8005e6e <HAL_PCD_IRQHandler+0x452>
 8005ef4:	ffff8000 	.word	0xffff8000

08005ef8 <HAL_PCD_SetAddress>:
  __HAL_LOCK(hpcd);
 8005ef8:	f890 2228 	ldrb.w	r2, [r0, #552]	; 0x228
 8005efc:	2a01      	cmp	r2, #1
 8005efe:	d00d      	beq.n	8005f1c <HAL_PCD_SetAddress+0x24>
{
 8005f00:	b510      	push	{r4, lr}
 8005f02:	4604      	mov	r4, r0
  __HAL_LOCK(hpcd);
 8005f04:	2201      	movs	r2, #1
  hpcd->USB_Address = address;
 8005f06:	f884 1024 	strb.w	r1, [r4, #36]	; 0x24
  __HAL_LOCK(hpcd);
 8005f0a:	f880 2228 	strb.w	r2, [r0, #552]	; 0x228
  (void)USB_SetDevAddress(hpcd->Instance, address);
 8005f0e:	6800      	ldr	r0, [r0, #0]
 8005f10:	f001 fbb2 	bl	8007678 <USB_SetDevAddress>
  __HAL_UNLOCK(hpcd);
 8005f14:	2000      	movs	r0, #0
 8005f16:	f884 0228 	strb.w	r0, [r4, #552]	; 0x228
}
 8005f1a:	bd10      	pop	{r4, pc}
  __HAL_LOCK(hpcd);
 8005f1c:	2002      	movs	r0, #2
}
 8005f1e:	4770      	bx	lr

08005f20 <HAL_PCD_EP_Open>:
{
 8005f20:	b5f8      	push	{r3, r4, r5, r6, r7, lr}
 8005f22:	f001 0507 	and.w	r5, r1, #7
  if ((ep_addr & 0x80U) == 0x80U)
 8005f26:	0609      	lsls	r1, r1, #24
 8005f28:	ea4f 1445 	mov.w	r4, r5, lsl #5
 8005f2c:	d41f      	bmi.n	8005f6e <HAL_PCD_EP_Open+0x4e>
    ep->is_in = 0U;
 8005f2e:	2700      	movs	r7, #0
 8005f30:	1906      	adds	r6, r0, r4
    ep = &hpcd->OUT_ep[ep_addr & EP_ADDR_MSK];
 8005f32:	f504 7194 	add.w	r1, r4, #296	; 0x128
    ep->is_in = 0U;
 8005f36:	f886 7129 	strb.w	r7, [r6, #297]	; 0x129
    ep = &hpcd->OUT_ep[ep_addr & EP_ADDR_MSK];
 8005f3a:	4401      	add	r1, r0
  if (ep->is_in != 0U)
 8005f3c:	784c      	ldrb	r4, [r1, #1]
  ep->num = ep_addr & EP_ADDR_MSK;
 8005f3e:	700d      	strb	r5, [r1, #0]
  ep->maxpacket = ep_mps;
 8005f40:	610a      	str	r2, [r1, #16]
  ep->type = ep_type;
 8005f42:	70cb      	strb	r3, [r1, #3]
  if (ep->is_in != 0U)
 8005f44:	b104      	cbz	r4, 8005f48 <HAL_PCD_EP_Open+0x28>
    ep->tx_fifo_num = ep->num;
 8005f46:	81cd      	strh	r5, [r1, #14]
  if (ep_type == EP_TYPE_BULK)
 8005f48:	2b02      	cmp	r3, #2
    ep->data_pid_start = 0U;
 8005f4a:	bf04      	itt	eq
 8005f4c:	2300      	moveq	r3, #0
 8005f4e:	710b      	strbeq	r3, [r1, #4]
  __HAL_LOCK(hpcd);
 8005f50:	f890 3228 	ldrb.w	r3, [r0, #552]	; 0x228
 8005f54:	2b01      	cmp	r3, #1
 8005f56:	d012      	beq.n	8005f7e <HAL_PCD_EP_Open+0x5e>
 8005f58:	2301      	movs	r3, #1
 8005f5a:	4604      	mov	r4, r0
 8005f5c:	f880 3228 	strb.w	r3, [r0, #552]	; 0x228
  (void)USB_ActivateEndpoint(hpcd->Instance, ep);
 8005f60:	6800      	ldr	r0, [r0, #0]
 8005f62:	f000 ff8d 	bl	8006e80 <USB_ActivateEndpoint>
  __HAL_UNLOCK(hpcd);
 8005f66:	2000      	movs	r0, #0
 8005f68:	f884 0228 	strb.w	r0, [r4, #552]	; 0x228
}
 8005f6c:	bdf8      	pop	{r3, r4, r5, r6, r7, pc}
    ep->is_in = 1U;
 8005f6e:	2701      	movs	r7, #1
 8005f70:	1906      	adds	r6, r0, r4
    ep = &hpcd->IN_ep[ep_addr & EP_ADDR_MSK];
 8005f72:	f104 0128 	add.w	r1, r4, #40	; 0x28
    ep->is_in = 1U;
 8005f76:	f886 7029 	strb.w	r7, [r6, #41]	; 0x29
    ep = &hpcd->IN_ep[ep_addr & EP_ADDR_MSK];
 8005f7a:	4401      	add	r1, r0
 8005f7c:	e7de      	b.n	8005f3c <HAL_PCD_EP_Open+0x1c>
  __HAL_LOCK(hpcd);
 8005f7e:	2002      	movs	r0, #2
}
 8005f80:	bdf8      	pop	{r3, r4, r5, r6, r7, pc}
 8005f82:	bf00      	nop

08005f84 <HAL_PCD_EP_Close>:
{
 8005f84:	f001 0207 	and.w	r2, r1, #7
  if ((ep_addr & 0x80U) == 0x80U)
 8005f88:	0609      	lsls	r1, r1, #24
{
 8005f8a:	b510      	push	{r4, lr}
 8005f8c:	ea4f 1342 	mov.w	r3, r2, lsl #5
  if ((ep_addr & 0x80U) == 0x80U)
 8005f90:	d416      	bmi.n	8005fc0 <HAL_PCD_EP_Close+0x3c>
    ep->is_in = 0U;
 8005f92:	2400      	movs	r4, #0
 8005f94:	18c1      	adds	r1, r0, r3
    ep = &hpcd->OUT_ep[ep_addr & EP_ADDR_MSK];
 8005f96:	f503 7394 	add.w	r3, r3, #296	; 0x128
    ep->is_in = 0U;
 8005f9a:	f881 4129 	strb.w	r4, [r1, #297]	; 0x129
    ep = &hpcd->OUT_ep[ep_addr & EP_ADDR_MSK];
 8005f9e:	18c1      	adds	r1, r0, r3
  ep->num   = ep_addr & EP_ADDR_MSK;
 8005fa0:	700a      	strb	r2, [r1, #0]
  __HAL_LOCK(hpcd);
 8005fa2:	f890 3228 	ldrb.w	r3, [r0, #552]	; 0x228
 8005fa6:	2b01      	cmp	r3, #1
 8005fa8:	d015      	beq.n	8005fd6 <HAL_PCD_EP_Close+0x52>
 8005faa:	2301      	movs	r3, #1
 8005fac:	4604      	mov	r4, r0
 8005fae:	f880 3228 	strb.w	r3, [r0, #552]	; 0x228
  (void)USB_DeactivateEndpoint(hpcd->Instance, ep);
 8005fb2:	6800      	ldr	r0, [r0, #0]
 8005fb4:	f001 f8ec 	bl	8007190 <USB_DeactivateEndpoint>
  __HAL_UNLOCK(hpcd);
 8005fb8:	2000      	movs	r0, #0
 8005fba:	f884 0228 	strb.w	r0, [r4, #552]	; 0x228
}
 8005fbe:	bd10      	pop	{r4, pc}
    ep->is_in = 1U;
 8005fc0:	2401      	movs	r4, #1
 8005fc2:	18c1      	adds	r1, r0, r3
    ep = &hpcd->IN_ep[ep_addr & EP_ADDR_MSK];
 8005fc4:	3328      	adds	r3, #40	; 0x28
    ep->is_in = 1U;
 8005fc6:	f881 4029 	strb.w	r4, [r1, #41]	; 0x29
    ep = &hpcd->IN_ep[ep_addr & EP_ADDR_MSK];
 8005fca:	18c1      	adds	r1, r0, r3
  ep->num   = ep_addr & EP_ADDR_MSK;
 8005fcc:	700a      	strb	r2, [r1, #0]
  __HAL_LOCK(hpcd);
 8005fce:	f890 3228 	ldrb.w	r3, [r0, #552]	; 0x228
 8005fd2:	2b01      	cmp	r3, #1
 8005fd4:	d1e9      	bne.n	8005faa <HAL_PCD_EP_Close+0x26>
 8005fd6:	2002      	movs	r0, #2
}
 8005fd8:	bd10      	pop	{r4, pc}
 8005fda:	bf00      	nop

08005fdc <HAL_PCD_EP_Receive>:
{
 8005fdc:	b570      	push	{r4, r5, r6, lr}
  ep->xfer_count = 0U;
 8005fde:	2600      	movs	r6, #0
 8005fe0:	f001 0107 	and.w	r1, r1, #7
 8005fe4:	014d      	lsls	r5, r1, #5
  ep->xfer_buff = pBuf;
 8005fe6:	1944      	adds	r4, r0, r5
  ep = &hpcd->OUT_ep[ep_addr & EP_ADDR_MSK];
 8005fe8:	f505 7594 	add.w	r5, r5, #296	; 0x128
  ep->num = ep_addr & EP_ADDR_MSK;
 8005fec:	f884 1128 	strb.w	r1, [r4, #296]	; 0x128
  ep->xfer_buff = pBuf;
 8005ff0:	f8c4 213c 	str.w	r2, [r4, #316]	; 0x13c
    (void)USB_EPStartXfer(hpcd->Instance, ep);
 8005ff4:	1941      	adds	r1, r0, r5
  ep->xfer_len = len;
 8005ff6:	f8c4 3140 	str.w	r3, [r4, #320]	; 0x140
    (void)USB_EPStartXfer(hpcd->Instance, ep);
 8005ffa:	6800      	ldr	r0, [r0, #0]
  ep->xfer_count = 0U;
 8005ffc:	f8c4 6144 	str.w	r6, [r4, #324]	; 0x144
  ep->is_in = 0U;
 8006000:	f884 6129 	strb.w	r6, [r4, #297]	; 0x129
    (void)USB_EPStartXfer(hpcd->Instance, ep);
 8006004:	f001 f99a 	bl	800733c <USB_EPStartXfer>
}
 8006008:	4630      	mov	r0, r6
 800600a:	bd70      	pop	{r4, r5, r6, pc}

0800600c <HAL_PCD_EP_GetRxCount>:
  return hpcd->OUT_ep[ep_addr & EP_ADDR_MSK].xfer_count;
 800600c:	f001 0107 	and.w	r1, r1, #7
 8006010:	eb00 1141 	add.w	r1, r0, r1, lsl #5
}
 8006014:	f8d1 0144 	ldr.w	r0, [r1, #324]	; 0x144
 8006018:	4770      	bx	lr
 800601a:	bf00      	nop

0800601c <HAL_PCD_EP_Transmit>:
{
 800601c:	b5f8      	push	{r3, r4, r5, r6, r7, lr}
  ep->xfer_count = 0U;
 800601e:	2600      	movs	r6, #0
  ep->is_in = 1U;
 8006020:	2701      	movs	r7, #1
 8006022:	f001 0107 	and.w	r1, r1, #7
 8006026:	014d      	lsls	r5, r1, #5
  ep->xfer_buff = pBuf;
 8006028:	1944      	adds	r4, r0, r5
  ep = &hpcd->IN_ep[ep_addr & EP_ADDR_MSK];
 800602a:	3528      	adds	r5, #40	; 0x28
  ep->num = ep_addr & EP_ADDR_MSK;
 800602c:	f884 1028 	strb.w	r1, [r4, #40]	; 0x28
  ep->xfer_len = len;
 8006030:	e9c4 230f 	strd	r2, r3, [r4, #60]	; 0x3c
    (void)USB_EPStartXfer(hpcd->Instance, ep);
 8006034:	1941      	adds	r1, r0, r5
 8006036:	6800      	ldr	r0, [r0, #0]
  ep->is_in = 1U;
 8006038:	f884 7029 	strb.w	r7, [r4, #41]	; 0x29
  ep->xfer_count = 0U;
 800603c:	6466      	str	r6, [r4, #68]	; 0x44
    (void)USB_EPStartXfer(hpcd->Instance, ep);
 800603e:	f001 f97d 	bl	800733c <USB_EPStartXfer>
}
 8006042:	4630      	mov	r0, r6
 8006044:	bdf8      	pop	{r3, r4, r5, r6, r7, pc}
 8006046:	bf00      	nop

08006048 <HAL_PCD_EP_SetStall>:
{
 8006048:	b538      	push	{r3, r4, r5, lr}
  if (((uint32_t)ep_addr & EP_ADDR_MSK) > hpcd->Init.dev_endpoints)
 800604a:	6843      	ldr	r3, [r0, #4]
 800604c:	f001 0507 	and.w	r5, r1, #7
 8006050:	429d      	cmp	r5, r3
 8006052:	d81b      	bhi.n	800608c <HAL_PCD_EP_SetStall+0x44>
  if ((0x80U & ep_addr) == 0x80U)
 8006054:	060b      	lsls	r3, r1, #24
 8006056:	d41b      	bmi.n	8006090 <HAL_PCD_EP_SetStall+0x48>
    ep->is_in = 0U;
 8006058:	2400      	movs	r4, #0
    ep = &hpcd->OUT_ep[ep_addr];
 800605a:	0149      	lsls	r1, r1, #5
    ep->is_in = 0U;
 800605c:	1843      	adds	r3, r0, r1
 800605e:	f883 4129 	strb.w	r4, [r3, #297]	; 0x129
  ep->is_stall = 1U;
 8006062:	2301      	movs	r3, #1
    ep = &hpcd->OUT_ep[ep_addr];
 8006064:	f501 7294 	add.w	r2, r1, #296	; 0x128
 8006068:	1881      	adds	r1, r0, r2
  ep->num = ep_addr & EP_ADDR_MSK;
 800606a:	700d      	strb	r5, [r1, #0]
  ep->is_stall = 1U;
 800606c:	708b      	strb	r3, [r1, #2]
  __HAL_LOCK(hpcd);
 800606e:	f890 2228 	ldrb.w	r2, [r0, #552]	; 0x228
 8006072:	429a      	cmp	r2, r3
 8006074:	d01b      	beq.n	80060ae <HAL_PCD_EP_SetStall+0x66>
 8006076:	4604      	mov	r4, r0
 8006078:	f880 3228 	strb.w	r3, [r0, #552]	; 0x228
  (void)USB_EPSetStall(hpcd->Instance, ep);
 800607c:	6800      	ldr	r0, [r0, #0]
 800607e:	f001 fa85 	bl	800758c <USB_EPSetStall>
  if ((ep_addr & EP_ADDR_MSK) == 0U)
 8006082:	b1b5      	cbz	r5, 80060b2 <HAL_PCD_EP_SetStall+0x6a>
  __HAL_UNLOCK(hpcd);
 8006084:	2000      	movs	r0, #0
 8006086:	f884 0228 	strb.w	r0, [r4, #552]	; 0x228
}
 800608a:	bd38      	pop	{r3, r4, r5, pc}
    return HAL_ERROR;
 800608c:	2001      	movs	r0, #1
}
 800608e:	bd38      	pop	{r3, r4, r5, pc}
    ep->is_in = 1U;
 8006090:	2201      	movs	r2, #1
    ep = &hpcd->IN_ep[ep_addr & EP_ADDR_MSK];
 8006092:	016b      	lsls	r3, r5, #5
 8006094:	f103 0128 	add.w	r1, r3, #40	; 0x28
    ep->is_in = 1U;
 8006098:	4403      	add	r3, r0
 800609a:	f883 2029 	strb.w	r2, [r3, #41]	; 0x29
  ep->is_stall = 1U;
 800609e:	2301      	movs	r3, #1
    ep = &hpcd->IN_ep[ep_addr & EP_ADDR_MSK];
 80060a0:	4401      	add	r1, r0
  ep->num = ep_addr & EP_ADDR_MSK;
 80060a2:	700d      	strb	r5, [r1, #0]
  ep->is_stall = 1U;
 80060a4:	708b      	strb	r3, [r1, #2]
  __HAL_LOCK(hpcd);
 80060a6:	f890 2228 	ldrb.w	r2, [r0, #552]	; 0x228
 80060aa:	429a      	cmp	r2, r3
 80060ac:	d1e3      	bne.n	8006076 <HAL_PCD_EP_SetStall+0x2e>
 80060ae:	2002      	movs	r0, #2
}
 80060b0:	bd38      	pop	{r3, r4, r5, pc}
    (void)USB_EP0_OutStart(hpcd->Instance, (uint8_t *)hpcd->Setup);
 80060b2:	f504 710c 	add.w	r1, r4, #560	; 0x230
 80060b6:	6820      	ldr	r0, [r4, #0]
 80060b8:	f001 faec 	bl	8007694 <USB_EP0_OutStart>
 80060bc:	e7e2      	b.n	8006084 <HAL_PCD_EP_SetStall+0x3c>
 80060be:	bf00      	nop

080060c0 <HAL_PCD_EP_ClrStall>:
{
 80060c0:	b538      	push	{r3, r4, r5, lr}
  if (((uint32_t)ep_addr & 0x0FU) > hpcd->Init.dev_endpoints)
 80060c2:	6843      	ldr	r3, [r0, #4]
 80060c4:	f001 020f 	and.w	r2, r1, #15
 80060c8:	429a      	cmp	r2, r3
 80060ca:	d81e      	bhi.n	800610a <HAL_PCD_EP_ClrStall+0x4a>
 80060cc:	f001 0207 	and.w	r2, r1, #7
  if ((0x80U & ep_addr) == 0x80U)
 80060d0:	0609      	lsls	r1, r1, #24
 80060d2:	ea4f 1342 	mov.w	r3, r2, lsl #5
 80060d6:	d41a      	bmi.n	800610e <HAL_PCD_EP_ClrStall+0x4e>
    ep->is_in = 0U;
 80060d8:	2500      	movs	r5, #0
 80060da:	18c4      	adds	r4, r0, r3
 80060dc:	f884 5129 	strb.w	r5, [r4, #297]	; 0x129
  ep->is_stall = 0U;
 80060e0:	2500      	movs	r5, #0
    ep = &hpcd->OUT_ep[ep_addr & EP_ADDR_MSK];
 80060e2:	f503 7194 	add.w	r1, r3, #296	; 0x128
 80060e6:	4401      	add	r1, r0
  ep->num = ep_addr & EP_ADDR_MSK;
 80060e8:	700a      	strb	r2, [r1, #0]
  ep->is_stall = 0U;
 80060ea:	708d      	strb	r5, [r1, #2]
  __HAL_LOCK(hpcd);
 80060ec:	f890 3228 	ldrb.w	r3, [r0, #552]	; 0x228
 80060f0:	2b01      	cmp	r3, #1
 80060f2:	d01a      	beq.n	800612a <HAL_PCD_EP_ClrStall+0x6a>
 80060f4:	2301      	movs	r3, #1
 80060f6:	4604      	mov	r4, r0
 80060f8:	f880 3228 	strb.w	r3, [r0, #552]	; 0x228
  (void)USB_EPClearStall(hpcd->Instance, ep);
 80060fc:	6800      	ldr	r0, [r0, #0]
 80060fe:	f001 fa67 	bl	80075d0 <USB_EPClearStall>
  __HAL_UNLOCK(hpcd);
 8006102:	f884 5228 	strb.w	r5, [r4, #552]	; 0x228
  return HAL_OK;
 8006106:	4628      	mov	r0, r5
}
 8006108:	bd38      	pop	{r3, r4, r5, pc}
    return HAL_ERROR;
 800610a:	2001      	movs	r0, #1
}
 800610c:	bd38      	pop	{r3, r4, r5, pc}
    ep->is_in = 1U;
 800610e:	2501      	movs	r5, #1
 8006110:	18c4      	adds	r4, r0, r3
 8006112:	f884 5029 	strb.w	r5, [r4, #41]	; 0x29
  ep->is_stall = 0U;
 8006116:	2500      	movs	r5, #0
    ep = &hpcd->IN_ep[ep_addr & EP_ADDR_MSK];
 8006118:	f103 0128 	add.w	r1, r3, #40	; 0x28
 800611c:	4401      	add	r1, r0
  ep->num = ep_addr & EP_ADDR_MSK;
 800611e:	700a      	strb	r2, [r1, #0]
  ep->is_stall = 0U;
 8006120:	708d      	strb	r5, [r1, #2]
  __HAL_LOCK(hpcd);
 8006122:	f890 3228 	ldrb.w	r3, [r0, #552]	; 0x228
 8006126:	2b01      	cmp	r3, #1
 8006128:	d1e4      	bne.n	80060f4 <HAL_PCD_EP_ClrStall+0x34>
 800612a:	2002      	movs	r0, #2
}
 800612c:	bd38      	pop	{r3, r4, r5, pc}
 800612e:	bf00      	nop

08006130 <HAL_PCDEx_PMAConfig>:
                                       uint32_t pmaadress)
{
  PCD_EPTypeDef *ep;

  /* initialize ep structure*/
  if ((0x80U & ep_addr) == 0x80U)
 8006130:	f011 0f80 	tst.w	r1, #128	; 0x80
 8006134:	d00d      	beq.n	8006152 <HAL_PCDEx_PMAConfig+0x22>
  {
    ep = &hpcd->IN_ep[ep_addr & EP_ADDR_MSK];
 8006136:	f001 0107 	and.w	r1, r1, #7
 800613a:	eb00 1041 	add.w	r0, r0, r1, lsl #5
 800613e:	3028      	adds	r0, #40	; 0x28
 8006140:	b299      	uxth	r1, r3
  {
    ep = &hpcd->OUT_ep[ep_addr];
  }

  /* Here we check if the endpoint is single or double Buffer*/
  if (ep_kind == PCD_SNG_BUF)
 8006142:	b16a      	cbz	r2, 8006160 <HAL_PCDEx_PMAConfig+0x30>
    ep->pmaadress = (uint16_t)pmaadress;
  }
  else /* USB_DBL_BUF */
  {
    /* Double Buffer Endpoint */
    ep->doublebuffer = 1U;
 8006144:	2201      	movs	r2, #1
    /* Configure the PMA */
    ep->pmaaddr0 = (uint16_t)(pmaadress & 0xFFFFU);
    ep->pmaaddr1 = (uint16_t)((pmaadress & 0xFFFF0000U) >> 16);
 8006146:	0c1b      	lsrs	r3, r3, #16
 8006148:	8143      	strh	r3, [r0, #10]
    ep->pmaaddr0 = (uint16_t)(pmaadress & 0xFFFFU);
 800614a:	8101      	strh	r1, [r0, #8]
 800614c:	7302      	strb	r2, [r0, #12]
  }

  return HAL_OK;
}
 800614e:	2000      	movs	r0, #0
 8006150:	4770      	bx	lr
    ep = &hpcd->OUT_ep[ep_addr];
 8006152:	eb00 1041 	add.w	r0, r0, r1, lsl #5
 8006156:	f500 7094 	add.w	r0, r0, #296	; 0x128
 800615a:	b299      	uxth	r1, r3
  if (ep_kind == PCD_SNG_BUF)
 800615c:	2a00      	cmp	r2, #0
 800615e:	d1f1      	bne.n	8006144 <HAL_PCDEx_PMAConfig+0x14>
    ep->pmaadress = (uint16_t)pmaadress;
 8006160:	80c1      	strh	r1, [r0, #6]
 8006162:	7302      	strb	r2, [r0, #12]
}
 8006164:	2000      	movs	r0, #0
 8006166:	4770      	bx	lr

08006168 <HAL_RCC_OscConfig>:
{
  uint32_t tickstart;
  uint32_t pll_config;

  /* Check Null pointer */
  if (RCC_OscInitStruct == NULL)
 8006168:	2800      	cmp	r0, #0
 800616a:	f000 8155 	beq.w	8006418 <HAL_RCC_OscConfig+0x2b0>
{
 800616e:	e92d 41f0 	stmdb	sp!, {r4, r5, r6, r7, r8, lr}

  /* Check the parameters */
  assert_param(IS_RCC_OSCILLATORTYPE(RCC_OscInitStruct->OscillatorType));

  /*------------------------------- HSE Configuration ------------------------*/
  if (((RCC_OscInitStruct->OscillatorType) & RCC_OSCILLATORTYPE_HSE) == RCC_OSCILLATORTYPE_HSE)
 8006172:	6803      	ldr	r3, [r0, #0]
{
 8006174:	b082      	sub	sp, #8
  if (((RCC_OscInitStruct->OscillatorType) & RCC_OSCILLATORTYPE_HSE) == RCC_OSCILLATORTYPE_HSE)
 8006176:	07dd      	lsls	r5, r3, #31
 8006178:	4604      	mov	r4, r0
 800617a:	d535      	bpl.n	80061e8 <HAL_RCC_OscConfig+0x80>
  {
    /* Check the parameters */
    assert_param(IS_RCC_HSE(RCC_OscInitStruct->HSEState));

    /* When the HSE is used as system clock or clock source for PLL in these cases it is not allowed to be disabled */
    if ((__HAL_RCC_GET_SYSCLK_SOURCE() == RCC_SYSCLKSOURCE_STATUS_HSE)
 800617c:	49a8      	ldr	r1, [pc, #672]	; (8006420 <HAL_RCC_OscConfig+0x2b8>)
 800617e:	684a      	ldr	r2, [r1, #4]
 8006180:	f002 020c 	and.w	r2, r2, #12
 8006184:	2a04      	cmp	r2, #4
 8006186:	f000 8105 	beq.w	8006394 <HAL_RCC_OscConfig+0x22c>
        || ((__HAL_RCC_GET_SYSCLK_SOURCE() == RCC_SYSCLKSOURCE_STATUS_PLLCLK) && (__HAL_RCC_GET_PLL_OSCSOURCE() == RCC_PLLSOURCE_HSE)))
 800618a:	684a      	ldr	r2, [r1, #4]
 800618c:	f002 020c 	and.w	r2, r2, #12
 8006190:	2a08      	cmp	r2, #8
 8006192:	f000 80fb 	beq.w	800638c <HAL_RCC_OscConfig+0x224>
      }
    }
    else
    {
      /* Set the new HSE configuration ---------------------------------------*/
      __HAL_RCC_HSE_CONFIG(RCC_OscInitStruct->HSEState);
 8006196:	6863      	ldr	r3, [r4, #4]
 8006198:	f5b3 3f80 	cmp.w	r3, #65536	; 0x10000
 800619c:	d010      	beq.n	80061c0 <HAL_RCC_OscConfig+0x58>
 800619e:	2b00      	cmp	r3, #0
 80061a0:	f000 8120 	beq.w	80063e4 <HAL_RCC_OscConfig+0x27c>
 80061a4:	f5b3 2fa0 	cmp.w	r3, #327680	; 0x50000
 80061a8:	f000 8178 	beq.w	800649c <HAL_RCC_OscConfig+0x334>
 80061ac:	4b9c      	ldr	r3, [pc, #624]	; (8006420 <HAL_RCC_OscConfig+0x2b8>)
 80061ae:	681a      	ldr	r2, [r3, #0]
 80061b0:	f422 3280 	bic.w	r2, r2, #65536	; 0x10000
 80061b4:	601a      	str	r2, [r3, #0]
 80061b6:	681a      	ldr	r2, [r3, #0]
 80061b8:	f422 2280 	bic.w	r2, r2, #262144	; 0x40000
 80061bc:	601a      	str	r2, [r3, #0]
 80061be:	e004      	b.n	80061ca <HAL_RCC_OscConfig+0x62>
 80061c0:	4a97      	ldr	r2, [pc, #604]	; (8006420 <HAL_RCC_OscConfig+0x2b8>)
 80061c2:	6813      	ldr	r3, [r2, #0]
 80061c4:	f443 3380 	orr.w	r3, r3, #65536	; 0x10000
 80061c8:	6013      	str	r3, [r2, #0]

      /* Check the HSE State */
      if (RCC_OscInitStruct->HSEState != RCC_HSE_OFF)
      {
        /* Get Start Tick */
        tickstart = HAL_GetTick();
 80061ca:	f7fe fb5d 	bl	8004888 <HAL_GetTick>

        /* Wait till HSE is ready */
        while (__HAL_RCC_GET_FLAG(RCC_FLAG_HSERDY) == RESET)
 80061ce:	4d94      	ldr	r5, [pc, #592]	; (8006420 <HAL_RCC_OscConfig+0x2b8>)
        tickstart = HAL_GetTick();
 80061d0:	4606      	mov	r6, r0
        while (__HAL_RCC_GET_FLAG(RCC_FLAG_HSERDY) == RESET)
 80061d2:	e005      	b.n	80061e0 <HAL_RCC_OscConfig+0x78>
        {
          if ((HAL_GetTick() - tickstart) > HSE_TIMEOUT_VALUE)
 80061d4:	f7fe fb58 	bl	8004888 <HAL_GetTick>
 80061d8:	1b80      	subs	r0, r0, r6
 80061da:	2864      	cmp	r0, #100	; 0x64
 80061dc:	f200 80f5 	bhi.w	80063ca <HAL_RCC_OscConfig+0x262>
        while (__HAL_RCC_GET_FLAG(RCC_FLAG_HSERDY) == RESET)
 80061e0:	682b      	ldr	r3, [r5, #0]
 80061e2:	039a      	lsls	r2, r3, #14
 80061e4:	d5f6      	bpl.n	80061d4 <HAL_RCC_OscConfig+0x6c>
 80061e6:	6823      	ldr	r3, [r4, #0]
        }
      }
    }
  }
  /*----------------------------- HSI Configuration --------------------------*/
  if (((RCC_OscInitStruct->OscillatorType) & RCC_OSCILLATORTYPE_HSI) == RCC_OSCILLATORTYPE_HSI)
 80061e8:	079f      	lsls	r7, r3, #30
 80061ea:	d44d      	bmi.n	8006288 <HAL_RCC_OscConfig+0x120>
        }
      }
    }
  }
  /*------------------------------ LSI Configuration -------------------------*/
  if (((RCC_OscInitStruct->OscillatorType) & RCC_OSCILLATORTYPE_LSI) == RCC_OSCILLATORTYPE_LSI)
 80061ec:	071a      	lsls	r2, r3, #28
 80061ee:	d522      	bpl.n	8006236 <HAL_RCC_OscConfig+0xce>
  {
    /* Check the parameters */
    assert_param(IS_RCC_LSI(RCC_OscInitStruct->LSIState));

    /* Check the LSI State */
    if (RCC_OscInitStruct->LSIState != RCC_LSI_OFF)
 80061f0:	69a3      	ldr	r3, [r4, #24]
 80061f2:	2b00      	cmp	r3, #0
 80061f4:	f000 80ba 	beq.w	800636c <HAL_RCC_OscConfig+0x204>
    {
      /* Enable the Internal Low Speed oscillator (LSI). */
      __HAL_RCC_LSI_ENABLE();
 80061f8:	2201      	movs	r2, #1
 80061fa:	4b8a      	ldr	r3, [pc, #552]	; (8006424 <HAL_RCC_OscConfig+0x2bc>)

      /* Get Start Tick */
      tickstart = HAL_GetTick();

      /* Wait till LSI is ready */
      while (__HAL_RCC_GET_FLAG(RCC_FLAG_LSIRDY) == RESET)
 80061fc:	4d88      	ldr	r5, [pc, #544]	; (8006420 <HAL_RCC_OscConfig+0x2b8>)
      __HAL_RCC_LSI_ENABLE();
 80061fe:	601a      	str	r2, [r3, #0]
      tickstart = HAL_GetTick();
 8006200:	f7fe fb42 	bl	8004888 <HAL_GetTick>
 8006204:	4606      	mov	r6, r0
      while (__HAL_RCC_GET_FLAG(RCC_FLAG_LSIRDY) == RESET)
 8006206:	e005      	b.n	8006214 <HAL_RCC_OscConfig+0xac>
      {
        if ((HAL_GetTick() - tickstart) > LSI_TIMEOUT_VALUE)
 8006208:	f7fe fb3e 	bl	8004888 <HAL_GetTick>
 800620c:	1b80      	subs	r0, r0, r6
 800620e:	2802      	cmp	r0, #2
 8006210:	f200 80db 	bhi.w	80063ca <HAL_RCC_OscConfig+0x262>
      while (__HAL_RCC_GET_FLAG(RCC_FLAG_LSIRDY) == RESET)
 8006214:	6a6b      	ldr	r3, [r5, #36]	; 0x24
 8006216:	079b      	lsls	r3, r3, #30
 8006218:	d5f6      	bpl.n	8006208 <HAL_RCC_OscConfig+0xa0>
  * @param  mdelay: specifies the delay time length, in milliseconds.
  * @retval None
  */
static void RCC_Delay(uint32_t mdelay)
{
  __IO uint32_t Delay = mdelay * (SystemCoreClock / 8U / 1000U);
 800621a:	4b83      	ldr	r3, [pc, #524]	; (8006428 <HAL_RCC_OscConfig+0x2c0>)
 800621c:	4a83      	ldr	r2, [pc, #524]	; (800642c <HAL_RCC_OscConfig+0x2c4>)
 800621e:	681b      	ldr	r3, [r3, #0]
 8006220:	fba2 2303 	umull	r2, r3, r2, r3
 8006224:	0a5b      	lsrs	r3, r3, #9
 8006226:	9301      	str	r3, [sp, #4]
  do
  {
    __NOP();
 8006228:	bf00      	nop
  }
  while (Delay --);
 800622a:	9b01      	ldr	r3, [sp, #4]
 800622c:	1e5a      	subs	r2, r3, #1
 800622e:	9201      	str	r2, [sp, #4]
 8006230:	2b00      	cmp	r3, #0
 8006232:	d1f9      	bne.n	8006228 <HAL_RCC_OscConfig+0xc0>
 8006234:	6823      	ldr	r3, [r4, #0]
  if (((RCC_OscInitStruct->OscillatorType) & RCC_OSCILLATORTYPE_LSE) == RCC_OSCILLATORTYPE_LSE)
 8006236:	075d      	lsls	r5, r3, #29
 8006238:	d569      	bpl.n	800630e <HAL_RCC_OscConfig+0x1a6>
    if (__HAL_RCC_PWR_IS_CLK_DISABLED())
 800623a:	4b79      	ldr	r3, [pc, #484]	; (8006420 <HAL_RCC_OscConfig+0x2b8>)
 800623c:	69da      	ldr	r2, [r3, #28]
 800623e:	00d0      	lsls	r0, r2, #3
 8006240:	f100 80ec 	bmi.w	800641c <HAL_RCC_OscConfig+0x2b4>
      pwrclkchanged = SET;
 8006244:	2501      	movs	r5, #1
      __HAL_RCC_PWR_CLK_ENABLE();
 8006246:	69da      	ldr	r2, [r3, #28]
 8006248:	f042 5280 	orr.w	r2, r2, #268435456	; 0x10000000
 800624c:	61da      	str	r2, [r3, #28]
 800624e:	69db      	ldr	r3, [r3, #28]
 8006250:	f003 5380 	and.w	r3, r3, #268435456	; 0x10000000
 8006254:	9300      	str	r3, [sp, #0]
 8006256:	9b00      	ldr	r3, [sp, #0]
    if (HAL_IS_BIT_CLR(PWR->CR, PWR_CR_DBP))
 8006258:	4b75      	ldr	r3, [pc, #468]	; (8006430 <HAL_RCC_OscConfig+0x2c8>)
 800625a:	681a      	ldr	r2, [r3, #0]
 800625c:	05d1      	lsls	r1, r2, #23
 800625e:	f140 80a3 	bpl.w	80063a8 <HAL_RCC_OscConfig+0x240>
    __HAL_RCC_LSE_CONFIG(RCC_OscInitStruct->LSEState);
 8006262:	68e3      	ldr	r3, [r4, #12]
 8006264:	2b01      	cmp	r3, #1
 8006266:	d037      	beq.n	80062d8 <HAL_RCC_OscConfig+0x170>
 8006268:	2b00      	cmp	r3, #0
 800626a:	f000 80e7 	beq.w	800643c <HAL_RCC_OscConfig+0x2d4>
 800626e:	2b05      	cmp	r3, #5
 8006270:	4b6b      	ldr	r3, [pc, #428]	; (8006420 <HAL_RCC_OscConfig+0x2b8>)
 8006272:	6a1a      	ldr	r2, [r3, #32]
 8006274:	f000 811f 	beq.w	80064b6 <HAL_RCC_OscConfig+0x34e>
 8006278:	f022 0201 	bic.w	r2, r2, #1
 800627c:	621a      	str	r2, [r3, #32]
 800627e:	6a1a      	ldr	r2, [r3, #32]
 8006280:	f022 0204 	bic.w	r2, r2, #4
 8006284:	621a      	str	r2, [r3, #32]
 8006286:	e02c      	b.n	80062e2 <HAL_RCC_OscConfig+0x17a>
    if ((__HAL_RCC_GET_SYSCLK_SOURCE() == RCC_SYSCLKSOURCE_STATUS_HSI)
 8006288:	4a65      	ldr	r2, [pc, #404]	; (8006420 <HAL_RCC_OscConfig+0x2b8>)
 800628a:	6851      	ldr	r1, [r2, #4]
 800628c:	f011 0f0c 	tst.w	r1, #12
 8006290:	d061      	beq.n	8006356 <HAL_RCC_OscConfig+0x1ee>
        || ((__HAL_RCC_GET_SYSCLK_SOURCE() == RCC_SYSCLKSOURCE_STATUS_PLLCLK) && (__HAL_RCC_GET_PLL_OSCSOURCE() == RCC_PLLSOURCE_HSI_DIV2)))
 8006292:	6851      	ldr	r1, [r2, #4]
 8006294:	f001 010c 	and.w	r1, r1, #12
 8006298:	2908      	cmp	r1, #8
 800629a:	d059      	beq.n	8006350 <HAL_RCC_OscConfig+0x1e8>
      if (RCC_OscInitStruct->HSIState != RCC_HSI_OFF)
 800629c:	6923      	ldr	r3, [r4, #16]
 800629e:	2b00      	cmp	r3, #0
 80062a0:	f000 80eb 	beq.w	800647a <HAL_RCC_OscConfig+0x312>
        __HAL_RCC_HSI_ENABLE();
 80062a4:	2201      	movs	r2, #1
 80062a6:	4b63      	ldr	r3, [pc, #396]	; (8006434 <HAL_RCC_OscConfig+0x2cc>)
        while (__HAL_RCC_GET_FLAG(RCC_FLAG_HSIRDY) == RESET)
 80062a8:	4d5d      	ldr	r5, [pc, #372]	; (8006420 <HAL_RCC_OscConfig+0x2b8>)
        __HAL_RCC_HSI_ENABLE();
 80062aa:	601a      	str	r2, [r3, #0]
        tickstart = HAL_GetTick();
 80062ac:	f7fe faec 	bl	8004888 <HAL_GetTick>
 80062b0:	4606      	mov	r6, r0
        while (__HAL_RCC_GET_FLAG(RCC_FLAG_HSIRDY) == RESET)
 80062b2:	e005      	b.n	80062c0 <HAL_RCC_OscConfig+0x158>
          if ((HAL_GetTick() - tickstart) > HSI_TIMEOUT_VALUE)
 80062b4:	f7fe fae8 	bl	8004888 <HAL_GetTick>
 80062b8:	1b80      	subs	r0, r0, r6
 80062ba:	2802      	cmp	r0, #2
 80062bc:	f200 8085 	bhi.w	80063ca <HAL_RCC_OscConfig+0x262>
        while (__HAL_RCC_GET_FLAG(RCC_FLAG_HSIRDY) == RESET)
 80062c0:	682b      	ldr	r3, [r5, #0]
 80062c2:	0798      	lsls	r0, r3, #30
 80062c4:	d5f6      	bpl.n	80062b4 <HAL_RCC_OscConfig+0x14c>
        __HAL_RCC_HSI_CALIBRATIONVALUE_ADJUST(RCC_OscInitStruct->HSICalibrationValue);
 80062c6:	682b      	ldr	r3, [r5, #0]
 80062c8:	6962      	ldr	r2, [r4, #20]
 80062ca:	f023 03f8 	bic.w	r3, r3, #248	; 0xf8
 80062ce:	ea43 03c2 	orr.w	r3, r3, r2, lsl #3
 80062d2:	602b      	str	r3, [r5, #0]
 80062d4:	6823      	ldr	r3, [r4, #0]
 80062d6:	e789      	b.n	80061ec <HAL_RCC_OscConfig+0x84>
    __HAL_RCC_LSE_CONFIG(RCC_OscInitStruct->LSEState);
 80062d8:	4a51      	ldr	r2, [pc, #324]	; (8006420 <HAL_RCC_OscConfig+0x2b8>)
 80062da:	6a13      	ldr	r3, [r2, #32]
 80062dc:	f043 0301 	orr.w	r3, r3, #1
 80062e0:	6213      	str	r3, [r2, #32]
      tickstart = HAL_GetTick();
 80062e2:	f7fe fad1 	bl	8004888 <HAL_GetTick>
      while (__HAL_RCC_GET_FLAG(RCC_FLAG_LSERDY) == RESET)
 80062e6:	4e4e      	ldr	r6, [pc, #312]	; (8006420 <HAL_RCC_OscConfig+0x2b8>)
      tickstart = HAL_GetTick();
 80062e8:	4680      	mov	r8, r0
        if ((HAL_GetTick() - tickstart) > RCC_LSE_TIMEOUT_VALUE)
 80062ea:	f241 3788 	movw	r7, #5000	; 0x1388
      while (__HAL_RCC_GET_FLAG(RCC_FLAG_LSERDY) == RESET)
 80062ee:	e005      	b.n	80062fc <HAL_RCC_OscConfig+0x194>
        if ((HAL_GetTick() - tickstart) > RCC_LSE_TIMEOUT_VALUE)
 80062f0:	f7fe faca 	bl	8004888 <HAL_GetTick>
 80062f4:	eba0 0008 	sub.w	r0, r0, r8
 80062f8:	42b8      	cmp	r0, r7
 80062fa:	d866      	bhi.n	80063ca <HAL_RCC_OscConfig+0x262>
      while (__HAL_RCC_GET_FLAG(RCC_FLAG_LSERDY) == RESET)
 80062fc:	6a33      	ldr	r3, [r6, #32]
 80062fe:	079b      	lsls	r3, r3, #30
 8006300:	d5f6      	bpl.n	80062f0 <HAL_RCC_OscConfig+0x188>
    if (pwrclkchanged == SET)
 8006302:	b125      	cbz	r5, 800630e <HAL_RCC_OscConfig+0x1a6>
      __HAL_RCC_PWR_CLK_DISABLE();
 8006304:	4a46      	ldr	r2, [pc, #280]	; (8006420 <HAL_RCC_OscConfig+0x2b8>)
 8006306:	69d3      	ldr	r3, [r2, #28]
 8006308:	f023 5380 	bic.w	r3, r3, #268435456	; 0x10000000
 800630c:	61d3      	str	r3, [r2, #28]
  if ((RCC_OscInitStruct->PLL.PLLState) != RCC_PLL_NONE)
 800630e:	69e0      	ldr	r0, [r4, #28]
 8006310:	b1d0      	cbz	r0, 8006348 <HAL_RCC_OscConfig+0x1e0>
    if (__HAL_RCC_GET_SYSCLK_SOURCE() != RCC_SYSCLKSOURCE_STATUS_PLLCLK)
 8006312:	4d43      	ldr	r5, [pc, #268]	; (8006420 <HAL_RCC_OscConfig+0x2b8>)
 8006314:	686a      	ldr	r2, [r5, #4]
 8006316:	f002 020c 	and.w	r2, r2, #12
 800631a:	2a08      	cmp	r2, #8
 800631c:	f000 80d3 	beq.w	80064c6 <HAL_RCC_OscConfig+0x35e>
      if ((RCC_OscInitStruct->PLL.PLLState) == RCC_PLL_ON)
 8006320:	2802      	cmp	r0, #2
        __HAL_RCC_PLL_DISABLE();
 8006322:	f04f 0100 	mov.w	r1, #0
 8006326:	4a44      	ldr	r2, [pc, #272]	; (8006438 <HAL_RCC_OscConfig+0x2d0>)
      if ((RCC_OscInitStruct->PLL.PLLState) == RCC_PLL_ON)
 8006328:	f000 80de 	beq.w	80064e8 <HAL_RCC_OscConfig+0x380>
        __HAL_RCC_PLL_DISABLE();
 800632c:	6011      	str	r1, [r2, #0]
        tickstart = HAL_GetTick();
 800632e:	f7fe faab 	bl	8004888 <HAL_GetTick>
        while (__HAL_RCC_GET_FLAG(RCC_FLAG_PLLRDY)  != RESET)
 8006332:	462c      	mov	r4, r5
        tickstart = HAL_GetTick();
 8006334:	4605      	mov	r5, r0
        while (__HAL_RCC_GET_FLAG(RCC_FLAG_PLLRDY)  != RESET)
 8006336:	e004      	b.n	8006342 <HAL_RCC_OscConfig+0x1da>
          if ((HAL_GetTick() - tickstart) > PLL_TIMEOUT_VALUE)
 8006338:	f7fe faa6 	bl	8004888 <HAL_GetTick>
 800633c:	1b40      	subs	r0, r0, r5
 800633e:	2802      	cmp	r0, #2
 8006340:	d843      	bhi.n	80063ca <HAL_RCC_OscConfig+0x262>
        while (__HAL_RCC_GET_FLAG(RCC_FLAG_PLLRDY)  != RESET)
 8006342:	6823      	ldr	r3, [r4, #0]
 8006344:	019b      	lsls	r3, r3, #6
 8006346:	d4f7      	bmi.n	8006338 <HAL_RCC_OscConfig+0x1d0>
  return HAL_OK;
 8006348:	2000      	movs	r0, #0
}
 800634a:	b002      	add	sp, #8
 800634c:	e8bd 81f0 	ldmia.w	sp!, {r4, r5, r6, r7, r8, pc}
        || ((__HAL_RCC_GET_SYSCLK_SOURCE() == RCC_SYSCLKSOURCE_STATUS_PLLCLK) && (__HAL_RCC_GET_PLL_OSCSOURCE() == RCC_PLLSOURCE_HSI_DIV2)))
 8006350:	6852      	ldr	r2, [r2, #4]
 8006352:	03d6      	lsls	r6, r2, #15
 8006354:	d4a2      	bmi.n	800629c <HAL_RCC_OscConfig+0x134>
      if ((__HAL_RCC_GET_FLAG(RCC_FLAG_HSIRDY) != RESET) && (RCC_OscInitStruct->HSIState != RCC_HSI_ON))
 8006356:	4a32      	ldr	r2, [pc, #200]	; (8006420 <HAL_RCC_OscConfig+0x2b8>)
 8006358:	6812      	ldr	r2, [r2, #0]
 800635a:	0795      	lsls	r5, r2, #30
 800635c:	d539      	bpl.n	80063d2 <HAL_RCC_OscConfig+0x26a>
 800635e:	6922      	ldr	r2, [r4, #16]
 8006360:	2a01      	cmp	r2, #1
 8006362:	d036      	beq.n	80063d2 <HAL_RCC_OscConfig+0x26a>
        return HAL_ERROR;
 8006364:	2001      	movs	r0, #1
}
 8006366:	b002      	add	sp, #8
 8006368:	e8bd 81f0 	ldmia.w	sp!, {r4, r5, r6, r7, r8, pc}
      __HAL_RCC_LSI_DISABLE();
 800636c:	4a2d      	ldr	r2, [pc, #180]	; (8006424 <HAL_RCC_OscConfig+0x2bc>)
      while (__HAL_RCC_GET_FLAG(RCC_FLAG_LSIRDY) != RESET)
 800636e:	4d2c      	ldr	r5, [pc, #176]	; (8006420 <HAL_RCC_OscConfig+0x2b8>)
      __HAL_RCC_LSI_DISABLE();
 8006370:	6013      	str	r3, [r2, #0]
      tickstart = HAL_GetTick();
 8006372:	f7fe fa89 	bl	8004888 <HAL_GetTick>
 8006376:	4606      	mov	r6, r0
      while (__HAL_RCC_GET_FLAG(RCC_FLAG_LSIRDY) != RESET)
 8006378:	e004      	b.n	8006384 <HAL_RCC_OscConfig+0x21c>
        if ((HAL_GetTick() - tickstart) > LSI_TIMEOUT_VALUE)
 800637a:	f7fe fa85 	bl	8004888 <HAL_GetTick>
 800637e:	1b80      	subs	r0, r0, r6
 8006380:	2802      	cmp	r0, #2
 8006382:	d822      	bhi.n	80063ca <HAL_RCC_OscConfig+0x262>
      while (__HAL_RCC_GET_FLAG(RCC_FLAG_LSIRDY) != RESET)
 8006384:	6a6b      	ldr	r3, [r5, #36]	; 0x24
 8006386:	079f      	lsls	r7, r3, #30
 8006388:	d4f7      	bmi.n	800637a <HAL_RCC_OscConfig+0x212>
 800638a:	e753      	b.n	8006234 <HAL_RCC_OscConfig+0xcc>
        || ((__HAL_RCC_GET_SYSCLK_SOURCE() == RCC_SYSCLKSOURCE_STATUS_PLLCLK) && (__HAL_RCC_GET_PLL_OSCSOURCE() == RCC_PLLSOURCE_HSE)))
 800638c:	684a      	ldr	r2, [r1, #4]
 800638e:	03d0      	lsls	r0, r2, #15
 8006390:	f57f af01 	bpl.w	8006196 <HAL_RCC_OscConfig+0x2e>
      if ((__HAL_RCC_GET_FLAG(RCC_FLAG_HSERDY) != RESET) && (RCC_OscInitStruct->HSEState == RCC_HSE_OFF))
 8006394:	4a22      	ldr	r2, [pc, #136]	; (8006420 <HAL_RCC_OscConfig+0x2b8>)
 8006396:	6812      	ldr	r2, [r2, #0]
 8006398:	0391      	lsls	r1, r2, #14
 800639a:	f57f af25 	bpl.w	80061e8 <HAL_RCC_OscConfig+0x80>
 800639e:	6862      	ldr	r2, [r4, #4]
 80063a0:	2a00      	cmp	r2, #0
 80063a2:	f47f af21 	bne.w	80061e8 <HAL_RCC_OscConfig+0x80>
 80063a6:	e7dd      	b.n	8006364 <HAL_RCC_OscConfig+0x1fc>
      SET_BIT(PWR->CR, PWR_CR_DBP);
 80063a8:	681a      	ldr	r2, [r3, #0]
      while (HAL_IS_BIT_CLR(PWR->CR, PWR_CR_DBP))
 80063aa:	461e      	mov	r6, r3
      SET_BIT(PWR->CR, PWR_CR_DBP);
 80063ac:	f442 7280 	orr.w	r2, r2, #256	; 0x100
 80063b0:	601a      	str	r2, [r3, #0]
      tickstart = HAL_GetTick();
 80063b2:	f7fe fa69 	bl	8004888 <HAL_GetTick>
 80063b6:	4607      	mov	r7, r0
      while (HAL_IS_BIT_CLR(PWR->CR, PWR_CR_DBP))
 80063b8:	6833      	ldr	r3, [r6, #0]
 80063ba:	05da      	lsls	r2, r3, #23
 80063bc:	f53f af51 	bmi.w	8006262 <HAL_RCC_OscConfig+0xfa>
        if ((HAL_GetTick() - tickstart) > RCC_DBP_TIMEOUT_VALUE)
 80063c0:	f7fe fa62 	bl	8004888 <HAL_GetTick>
 80063c4:	1bc0      	subs	r0, r0, r7
 80063c6:	2864      	cmp	r0, #100	; 0x64
 80063c8:	d9f6      	bls.n	80063b8 <HAL_RCC_OscConfig+0x250>
            return HAL_TIMEOUT;
 80063ca:	2003      	movs	r0, #3
}
 80063cc:	b002      	add	sp, #8
 80063ce:	e8bd 81f0 	ldmia.w	sp!, {r4, r5, r6, r7, r8, pc}
        __HAL_RCC_HSI_CALIBRATIONVALUE_ADJUST(RCC_OscInitStruct->HSICalibrationValue);
 80063d2:	4913      	ldr	r1, [pc, #76]	; (8006420 <HAL_RCC_OscConfig+0x2b8>)
 80063d4:	6960      	ldr	r0, [r4, #20]
 80063d6:	680a      	ldr	r2, [r1, #0]
 80063d8:	f022 02f8 	bic.w	r2, r2, #248	; 0xf8
 80063dc:	ea42 02c0 	orr.w	r2, r2, r0, lsl #3
 80063e0:	600a      	str	r2, [r1, #0]
      if ((__HAL_RCC_GET_FLAG(RCC_FLAG_HSIRDY) != RESET) && (RCC_OscInitStruct->HSIState != RCC_HSI_ON))
 80063e2:	e703      	b.n	80061ec <HAL_RCC_OscConfig+0x84>
      __HAL_RCC_HSE_CONFIG(RCC_OscInitStruct->HSEState);
 80063e4:	f103 4380 	add.w	r3, r3, #1073741824	; 0x40000000
 80063e8:	f503 3304 	add.w	r3, r3, #135168	; 0x21000
 80063ec:	681a      	ldr	r2, [r3, #0]
        while (__HAL_RCC_GET_FLAG(RCC_FLAG_HSERDY) != RESET)
 80063ee:	461d      	mov	r5, r3
      __HAL_RCC_HSE_CONFIG(RCC_OscInitStruct->HSEState);
 80063f0:	f422 3280 	bic.w	r2, r2, #65536	; 0x10000
 80063f4:	601a      	str	r2, [r3, #0]
 80063f6:	681a      	ldr	r2, [r3, #0]
 80063f8:	f422 2280 	bic.w	r2, r2, #262144	; 0x40000
 80063fc:	601a      	str	r2, [r3, #0]
        tickstart = HAL_GetTick();
 80063fe:	f7fe fa43 	bl	8004888 <HAL_GetTick>
 8006402:	4606      	mov	r6, r0
        while (__HAL_RCC_GET_FLAG(RCC_FLAG_HSERDY) != RESET)
 8006404:	e004      	b.n	8006410 <HAL_RCC_OscConfig+0x2a8>
          if ((HAL_GetTick() - tickstart) > HSE_TIMEOUT_VALUE)
 8006406:	f7fe fa3f 	bl	8004888 <HAL_GetTick>
 800640a:	1b80      	subs	r0, r0, r6
 800640c:	2864      	cmp	r0, #100	; 0x64
 800640e:	d8dc      	bhi.n	80063ca <HAL_RCC_OscConfig+0x262>
        while (__HAL_RCC_GET_FLAG(RCC_FLAG_HSERDY) != RESET)
 8006410:	682b      	ldr	r3, [r5, #0]
 8006412:	039b      	lsls	r3, r3, #14
 8006414:	d4f7      	bmi.n	8006406 <HAL_RCC_OscConfig+0x29e>
 8006416:	e6e6      	b.n	80061e6 <HAL_RCC_OscConfig+0x7e>
    return HAL_ERROR;
 8006418:	2001      	movs	r0, #1
}
 800641a:	4770      	bx	lr
    FlagStatus       pwrclkchanged = RESET;
 800641c:	2500      	movs	r5, #0
 800641e:	e71b      	b.n	8006258 <HAL_RCC_OscConfig+0xf0>
 8006420:	40021000 	.word	0x40021000
 8006424:	42420480 	.word	0x42420480
 8006428:	20000038 	.word	0x20000038
 800642c:	10624dd3 	.word	0x10624dd3
 8006430:	40007000 	.word	0x40007000
 8006434:	42420000 	.word	0x42420000
 8006438:	42420060 	.word	0x42420060
    __HAL_RCC_LSE_CONFIG(RCC_OscInitStruct->LSEState);
 800643c:	f103 4380 	add.w	r3, r3, #1073741824	; 0x40000000
 8006440:	f503 3304 	add.w	r3, r3, #135168	; 0x21000
 8006444:	6a1a      	ldr	r2, [r3, #32]
      while (__HAL_RCC_GET_FLAG(RCC_FLAG_LSERDY) != RESET)
 8006446:	461e      	mov	r6, r3
    __HAL_RCC_LSE_CONFIG(RCC_OscInitStruct->LSEState);
 8006448:	f022 0201 	bic.w	r2, r2, #1
 800644c:	621a      	str	r2, [r3, #32]
 800644e:	6a1a      	ldr	r2, [r3, #32]
        if ((HAL_GetTick() - tickstart) > RCC_LSE_TIMEOUT_VALUE)
 8006450:	f241 3888 	movw	r8, #5000	; 0x1388
    __HAL_RCC_LSE_CONFIG(RCC_OscInitStruct->LSEState);
 8006454:	f022 0204 	bic.w	r2, r2, #4
 8006458:	621a      	str	r2, [r3, #32]
      tickstart = HAL_GetTick();
 800645a:	f7fe fa15 	bl	8004888 <HAL_GetTick>
 800645e:	4607      	mov	r7, r0
      while (__HAL_RCC_GET_FLAG(RCC_FLAG_LSERDY) != RESET)
 8006460:	e004      	b.n	800646c <HAL_RCC_OscConfig+0x304>
        if ((HAL_GetTick() - tickstart) > RCC_LSE_TIMEOUT_VALUE)
 8006462:	f7fe fa11 	bl	8004888 <HAL_GetTick>
 8006466:	1bc0      	subs	r0, r0, r7
 8006468:	4540      	cmp	r0, r8
 800646a:	d8ae      	bhi.n	80063ca <HAL_RCC_OscConfig+0x262>
      while (__HAL_RCC_GET_FLAG(RCC_FLAG_LSERDY) != RESET)
 800646c:	6a33      	ldr	r3, [r6, #32]
 800646e:	0798      	lsls	r0, r3, #30
 8006470:	d4f7      	bmi.n	8006462 <HAL_RCC_OscConfig+0x2fa>
    if (pwrclkchanged == SET)
 8006472:	2d00      	cmp	r5, #0
 8006474:	f43f af4b 	beq.w	800630e <HAL_RCC_OscConfig+0x1a6>
 8006478:	e744      	b.n	8006304 <HAL_RCC_OscConfig+0x19c>
        __HAL_RCC_HSI_DISABLE();
 800647a:	4a34      	ldr	r2, [pc, #208]	; (800654c <HAL_RCC_OscConfig+0x3e4>)
        while (__HAL_RCC_GET_FLAG(RCC_FLAG_HSIRDY) != RESET)
 800647c:	4d34      	ldr	r5, [pc, #208]	; (8006550 <HAL_RCC_OscConfig+0x3e8>)
        __HAL_RCC_HSI_DISABLE();
 800647e:	6013      	str	r3, [r2, #0]
        tickstart = HAL_GetTick();
 8006480:	f7fe fa02 	bl	8004888 <HAL_GetTick>
 8006484:	4606      	mov	r6, r0
        while (__HAL_RCC_GET_FLAG(RCC_FLAG_HSIRDY) != RESET)
 8006486:	e004      	b.n	8006492 <HAL_RCC_OscConfig+0x32a>
          if ((HAL_GetTick() - tickstart) > HSI_TIMEOUT_VALUE)
 8006488:	f7fe f9fe 	bl	8004888 <HAL_GetTick>
 800648c:	1b80      	subs	r0, r0, r6
 800648e:	2802      	cmp	r0, #2
 8006490:	d89b      	bhi.n	80063ca <HAL_RCC_OscConfig+0x262>
        while (__HAL_RCC_GET_FLAG(RCC_FLAG_HSIRDY) != RESET)
 8006492:	682b      	ldr	r3, [r5, #0]
 8006494:	0799      	lsls	r1, r3, #30
 8006496:	d4f7      	bmi.n	8006488 <HAL_RCC_OscConfig+0x320>
 8006498:	6823      	ldr	r3, [r4, #0]
 800649a:	e6a7      	b.n	80061ec <HAL_RCC_OscConfig+0x84>
      __HAL_RCC_HSE_CONFIG(RCC_OscInitStruct->HSEState);
 800649c:	f103 4380 	add.w	r3, r3, #1073741824	; 0x40000000
 80064a0:	f5a3 333c 	sub.w	r3, r3, #192512	; 0x2f000
 80064a4:	681a      	ldr	r2, [r3, #0]
 80064a6:	f442 2280 	orr.w	r2, r2, #262144	; 0x40000
 80064aa:	601a      	str	r2, [r3, #0]
 80064ac:	681a      	ldr	r2, [r3, #0]
 80064ae:	f442 3280 	orr.w	r2, r2, #65536	; 0x10000
 80064b2:	601a      	str	r2, [r3, #0]
 80064b4:	e689      	b.n	80061ca <HAL_RCC_OscConfig+0x62>
    __HAL_RCC_LSE_CONFIG(RCC_OscInitStruct->LSEState);
 80064b6:	f042 0204 	orr.w	r2, r2, #4
 80064ba:	621a      	str	r2, [r3, #32]
 80064bc:	6a1a      	ldr	r2, [r3, #32]
 80064be:	f042 0201 	orr.w	r2, r2, #1
 80064c2:	621a      	str	r2, [r3, #32]
 80064c4:	e70d      	b.n	80062e2 <HAL_RCC_OscConfig+0x17a>
      if ((RCC_OscInitStruct->PLL.PLLState) == RCC_PLL_OFF)
 80064c6:	2801      	cmp	r0, #1
 80064c8:	f43f af4d 	beq.w	8006366 <HAL_RCC_OscConfig+0x1fe>
        pll_config = RCC->CFGR;
 80064cc:	686b      	ldr	r3, [r5, #4]
        if ((READ_BIT(pll_config, RCC_CFGR_PLLSRC) != RCC_OscInitStruct->PLL.PLLSource) ||
 80064ce:	6a22      	ldr	r2, [r4, #32]
 80064d0:	f403 3180 	and.w	r1, r3, #65536	; 0x10000
 80064d4:	4291      	cmp	r1, r2
 80064d6:	f47f af45 	bne.w	8006364 <HAL_RCC_OscConfig+0x1fc>
 80064da:	6a60      	ldr	r0, [r4, #36]	; 0x24
            (READ_BIT(pll_config, RCC_CFGR_PLLMULL) != RCC_OscInitStruct->PLL.PLLMUL))
 80064dc:	f403 1370 	and.w	r3, r3, #3932160	; 0x3c0000
    return HAL_ERROR;
 80064e0:	1a18      	subs	r0, r3, r0
 80064e2:	bf18      	it	ne
 80064e4:	2001      	movne	r0, #1
 80064e6:	e73e      	b.n	8006366 <HAL_RCC_OscConfig+0x1fe>
        __HAL_RCC_PLL_DISABLE();
 80064e8:	6011      	str	r1, [r2, #0]
        tickstart = HAL_GetTick();
 80064ea:	f7fe f9cd 	bl	8004888 <HAL_GetTick>
 80064ee:	4606      	mov	r6, r0
        while (__HAL_RCC_GET_FLAG(RCC_FLAG_PLLRDY)  != RESET)
 80064f0:	e005      	b.n	80064fe <HAL_RCC_OscConfig+0x396>
          if ((HAL_GetTick() - tickstart) > PLL_TIMEOUT_VALUE)
 80064f2:	f7fe f9c9 	bl	8004888 <HAL_GetTick>
 80064f6:	1b80      	subs	r0, r0, r6
 80064f8:	2802      	cmp	r0, #2
 80064fa:	f63f af66 	bhi.w	80063ca <HAL_RCC_OscConfig+0x262>
        while (__HAL_RCC_GET_FLAG(RCC_FLAG_PLLRDY)  != RESET)
 80064fe:	682b      	ldr	r3, [r5, #0]
 8006500:	0199      	lsls	r1, r3, #6
 8006502:	d4f6      	bmi.n	80064f2 <HAL_RCC_OscConfig+0x38a>
        if (RCC_OscInitStruct->PLL.PLLSource == RCC_PLLSOURCE_HSE)
 8006504:	6a22      	ldr	r2, [r4, #32]
 8006506:	f5b2 3f80 	cmp.w	r2, #65536	; 0x10000
 800650a:	d105      	bne.n	8006518 <HAL_RCC_OscConfig+0x3b0>
          __HAL_RCC_HSE_PREDIV_CONFIG(RCC_OscInitStruct->HSEPredivValue);
 800650c:	686b      	ldr	r3, [r5, #4]
 800650e:	68a1      	ldr	r1, [r4, #8]
 8006510:	f423 3300 	bic.w	r3, r3, #131072	; 0x20000
 8006514:	430b      	orrs	r3, r1
 8006516:	606b      	str	r3, [r5, #4]
        __HAL_RCC_PLL_ENABLE();
 8006518:	2501      	movs	r5, #1
        __HAL_RCC_PLL_CONFIG(RCC_OscInitStruct->PLL.PLLSource,
 800651a:	4b0d      	ldr	r3, [pc, #52]	; (8006550 <HAL_RCC_OscConfig+0x3e8>)
 800651c:	6a60      	ldr	r0, [r4, #36]	; 0x24
 800651e:	6859      	ldr	r1, [r3, #4]
 8006520:	4302      	orrs	r2, r0
 8006522:	f421 1174 	bic.w	r1, r1, #3997696	; 0x3d0000
        __HAL_RCC_PLL_ENABLE();
 8006526:	480b      	ldr	r0, [pc, #44]	; (8006554 <HAL_RCC_OscConfig+0x3ec>)
        __HAL_RCC_PLL_CONFIG(RCC_OscInitStruct->PLL.PLLSource,
 8006528:	430a      	orrs	r2, r1
 800652a:	605a      	str	r2, [r3, #4]
        __HAL_RCC_PLL_ENABLE();
 800652c:	6005      	str	r5, [r0, #0]
        while (__HAL_RCC_GET_FLAG(RCC_FLAG_PLLRDY)  == RESET)
 800652e:	461c      	mov	r4, r3
        tickstart = HAL_GetTick();
 8006530:	f7fe f9aa 	bl	8004888 <HAL_GetTick>
 8006534:	4605      	mov	r5, r0
        while (__HAL_RCC_GET_FLAG(RCC_FLAG_PLLRDY)  == RESET)
 8006536:	e005      	b.n	8006544 <HAL_RCC_OscConfig+0x3dc>
          if ((HAL_GetTick() - tickstart) > PLL_TIMEOUT_VALUE)
 8006538:	f7fe f9a6 	bl	8004888 <HAL_GetTick>
 800653c:	1b40      	subs	r0, r0, r5
 800653e:	2802      	cmp	r0, #2
 8006540:	f63f af43 	bhi.w	80063ca <HAL_RCC_OscConfig+0x262>
        while (__HAL_RCC_GET_FLAG(RCC_FLAG_PLLRDY)  == RESET)
 8006544:	6823      	ldr	r3, [r4, #0]
 8006546:	019a      	lsls	r2, r3, #6
 8006548:	d5f6      	bpl.n	8006538 <HAL_RCC_OscConfig+0x3d0>
 800654a:	e6fd      	b.n	8006348 <HAL_RCC_OscConfig+0x1e0>
 800654c:	42420000 	.word	0x42420000
 8006550:	40021000 	.word	0x40021000
 8006554:	42420060 	.word	0x42420060

08006558 <HAL_RCC_ClockConfig>:
  if (RCC_ClkInitStruct == NULL)
 8006558:	b178      	cbz	r0, 800657a <HAL_RCC_ClockConfig+0x22>
  if (FLatency > __HAL_FLASH_GET_LATENCY())
 800655a:	4a5d      	ldr	r2, [pc, #372]	; (80066d0 <HAL_RCC_ClockConfig+0x178>)
 800655c:	6813      	ldr	r3, [r2, #0]
 800655e:	f003 0307 	and.w	r3, r3, #7
 8006562:	428b      	cmp	r3, r1
 8006564:	d20b      	bcs.n	800657e <HAL_RCC_ClockConfig+0x26>
    __HAL_FLASH_SET_LATENCY(FLatency);
 8006566:	6813      	ldr	r3, [r2, #0]
 8006568:	f023 0307 	bic.w	r3, r3, #7
 800656c:	430b      	orrs	r3, r1
 800656e:	6013      	str	r3, [r2, #0]
    if (__HAL_FLASH_GET_LATENCY() != FLatency)
 8006570:	6813      	ldr	r3, [r2, #0]
 8006572:	f003 0307 	and.w	r3, r3, #7
 8006576:	428b      	cmp	r3, r1
 8006578:	d001      	beq.n	800657e <HAL_RCC_ClockConfig+0x26>
    return HAL_ERROR;
 800657a:	2001      	movs	r0, #1
}
 800657c:	4770      	bx	lr
{
 800657e:	e92d 41f0 	stmdb	sp!, {r4, r5, r6, r7, r8, lr}
if (((RCC_ClkInitStruct->ClockType) & RCC_CLOCKTYPE_HCLK) == RCC_CLOCKTYPE_HCLK)
 8006582:	6803      	ldr	r3, [r0, #0]
{
 8006584:	b086      	sub	sp, #24
if (((RCC_ClkInitStruct->ClockType) & RCC_CLOCKTYPE_HCLK) == RCC_CLOCKTYPE_HCLK)
 8006586:	079d      	lsls	r5, r3, #30
 8006588:	d514      	bpl.n	80065b4 <HAL_RCC_ClockConfig+0x5c>
    if (((RCC_ClkInitStruct->ClockType) & RCC_CLOCKTYPE_PCLK1) == RCC_CLOCKTYPE_PCLK1)
 800658a:	075c      	lsls	r4, r3, #29
 800658c:	d504      	bpl.n	8006598 <HAL_RCC_ClockConfig+0x40>
      MODIFY_REG(RCC->CFGR, RCC_CFGR_PPRE1, RCC_HCLK_DIV16);
 800658e:	4c51      	ldr	r4, [pc, #324]	; (80066d4 <HAL_RCC_ClockConfig+0x17c>)
 8006590:	6862      	ldr	r2, [r4, #4]
 8006592:	f442 62e0 	orr.w	r2, r2, #1792	; 0x700
 8006596:	6062      	str	r2, [r4, #4]
    if (((RCC_ClkInitStruct->ClockType) & RCC_CLOCKTYPE_PCLK2) == RCC_CLOCKTYPE_PCLK2)
 8006598:	071a      	lsls	r2, r3, #28
 800659a:	d504      	bpl.n	80065a6 <HAL_RCC_ClockConfig+0x4e>
      MODIFY_REG(RCC->CFGR, RCC_CFGR_PPRE2, (RCC_HCLK_DIV16 << 3));
 800659c:	4c4d      	ldr	r4, [pc, #308]	; (80066d4 <HAL_RCC_ClockConfig+0x17c>)
 800659e:	6862      	ldr	r2, [r4, #4]
 80065a0:	f442 5260 	orr.w	r2, r2, #14336	; 0x3800
 80065a4:	6062      	str	r2, [r4, #4]
    MODIFY_REG(RCC->CFGR, RCC_CFGR_HPRE, RCC_ClkInitStruct->AHBCLKDivider);
 80065a6:	4c4b      	ldr	r4, [pc, #300]	; (80066d4 <HAL_RCC_ClockConfig+0x17c>)
 80065a8:	6885      	ldr	r5, [r0, #8]
 80065aa:	6862      	ldr	r2, [r4, #4]
 80065ac:	f022 02f0 	bic.w	r2, r2, #240	; 0xf0
 80065b0:	432a      	orrs	r2, r5
 80065b2:	6062      	str	r2, [r4, #4]
  if (((RCC_ClkInitStruct->ClockType) & RCC_CLOCKTYPE_SYSCLK) == RCC_CLOCKTYPE_SYSCLK)
 80065b4:	07db      	lsls	r3, r3, #31
 80065b6:	4604      	mov	r4, r0
 80065b8:	460d      	mov	r5, r1
 80065ba:	d520      	bpl.n	80065fe <HAL_RCC_ClockConfig+0xa6>
    if (RCC_ClkInitStruct->SYSCLKSource == RCC_SYSCLKSOURCE_HSE)
 80065bc:	6842      	ldr	r2, [r0, #4]
      if (__HAL_RCC_GET_FLAG(RCC_FLAG_HSERDY) == RESET)
 80065be:	4b45      	ldr	r3, [pc, #276]	; (80066d4 <HAL_RCC_ClockConfig+0x17c>)
    if (RCC_ClkInitStruct->SYSCLKSource == RCC_SYSCLKSOURCE_HSE)
 80065c0:	2a01      	cmp	r2, #1
      if (__HAL_RCC_GET_FLAG(RCC_FLAG_HSERDY) == RESET)
 80065c2:	681b      	ldr	r3, [r3, #0]
    if (RCC_ClkInitStruct->SYSCLKSource == RCC_SYSCLKSOURCE_HSE)
 80065c4:	d06f      	beq.n	80066a6 <HAL_RCC_ClockConfig+0x14e>
    else if (RCC_ClkInitStruct->SYSCLKSource == RCC_SYSCLKSOURCE_PLLCLK)
 80065c6:	2a02      	cmp	r2, #2
 80065c8:	d07e      	beq.n	80066c8 <HAL_RCC_ClockConfig+0x170>
      if (__HAL_RCC_GET_FLAG(RCC_FLAG_HSIRDY) == RESET)
 80065ca:	0798      	lsls	r0, r3, #30
 80065cc:	d527      	bpl.n	800661e <HAL_RCC_ClockConfig+0xc6>
    __HAL_RCC_SYSCLK_CONFIG(RCC_ClkInitStruct->SYSCLKSource);
 80065ce:	4e41      	ldr	r6, [pc, #260]	; (80066d4 <HAL_RCC_ClockConfig+0x17c>)
      if ((HAL_GetTick() - tickstart) > CLOCKSWITCH_TIMEOUT_VALUE)
 80065d0:	f241 3888 	movw	r8, #5000	; 0x1388
    __HAL_RCC_SYSCLK_CONFIG(RCC_ClkInitStruct->SYSCLKSource);
 80065d4:	6873      	ldr	r3, [r6, #4]
 80065d6:	f023 0303 	bic.w	r3, r3, #3
 80065da:	4313      	orrs	r3, r2
 80065dc:	6073      	str	r3, [r6, #4]
    tickstart = HAL_GetTick();
 80065de:	f7fe f953 	bl	8004888 <HAL_GetTick>
 80065e2:	4607      	mov	r7, r0
    while (__HAL_RCC_GET_SYSCLK_SOURCE() != (RCC_ClkInitStruct->SYSCLKSource << RCC_CFGR_SWS_Pos))
 80065e4:	e004      	b.n	80065f0 <HAL_RCC_ClockConfig+0x98>
      if ((HAL_GetTick() - tickstart) > CLOCKSWITCH_TIMEOUT_VALUE)
 80065e6:	f7fe f94f 	bl	8004888 <HAL_GetTick>
 80065ea:	1bc0      	subs	r0, r0, r7
 80065ec:	4540      	cmp	r0, r8
 80065ee:	d869      	bhi.n	80066c4 <HAL_RCC_ClockConfig+0x16c>
    while (__HAL_RCC_GET_SYSCLK_SOURCE() != (RCC_ClkInitStruct->SYSCLKSource << RCC_CFGR_SWS_Pos))
 80065f0:	6873      	ldr	r3, [r6, #4]
 80065f2:	6862      	ldr	r2, [r4, #4]
 80065f4:	f003 030c 	and.w	r3, r3, #12
 80065f8:	ebb3 0f82 	cmp.w	r3, r2, lsl #2
 80065fc:	d1f3      	bne.n	80065e6 <HAL_RCC_ClockConfig+0x8e>
  if (FLatency < __HAL_FLASH_GET_LATENCY())
 80065fe:	4a34      	ldr	r2, [pc, #208]	; (80066d0 <HAL_RCC_ClockConfig+0x178>)
 8006600:	6813      	ldr	r3, [r2, #0]
 8006602:	f003 0307 	and.w	r3, r3, #7
 8006606:	42ab      	cmp	r3, r5
 8006608:	d90d      	bls.n	8006626 <HAL_RCC_ClockConfig+0xce>
    __HAL_FLASH_SET_LATENCY(FLatency);
 800660a:	6813      	ldr	r3, [r2, #0]
 800660c:	f023 0307 	bic.w	r3, r3, #7
 8006610:	432b      	orrs	r3, r5
 8006612:	6013      	str	r3, [r2, #0]
    if (__HAL_FLASH_GET_LATENCY() != FLatency)
 8006614:	6813      	ldr	r3, [r2, #0]
 8006616:	f003 0307 	and.w	r3, r3, #7
 800661a:	42ab      	cmp	r3, r5
 800661c:	d003      	beq.n	8006626 <HAL_RCC_ClockConfig+0xce>
    return HAL_ERROR;
 800661e:	2001      	movs	r0, #1
}
 8006620:	b006      	add	sp, #24
 8006622:	e8bd 81f0 	ldmia.w	sp!, {r4, r5, r6, r7, r8, pc}
if (((RCC_ClkInitStruct->ClockType) & RCC_CLOCKTYPE_PCLK1) == RCC_CLOCKTYPE_PCLK1)
 8006626:	6823      	ldr	r3, [r4, #0]
 8006628:	0759      	lsls	r1, r3, #29
 800662a:	d506      	bpl.n	800663a <HAL_RCC_ClockConfig+0xe2>
    MODIFY_REG(RCC->CFGR, RCC_CFGR_PPRE1, RCC_ClkInitStruct->APB1CLKDivider);
 800662c:	4929      	ldr	r1, [pc, #164]	; (80066d4 <HAL_RCC_ClockConfig+0x17c>)
 800662e:	68e0      	ldr	r0, [r4, #12]
 8006630:	684a      	ldr	r2, [r1, #4]
 8006632:	f422 62e0 	bic.w	r2, r2, #1792	; 0x700
 8006636:	4302      	orrs	r2, r0
 8006638:	604a      	str	r2, [r1, #4]
  if (((RCC_ClkInitStruct->ClockType) & RCC_CLOCKTYPE_PCLK2) == RCC_CLOCKTYPE_PCLK2)
 800663a:	071a      	lsls	r2, r3, #28
 800663c:	d507      	bpl.n	800664e <HAL_RCC_ClockConfig+0xf6>
    MODIFY_REG(RCC->CFGR, RCC_CFGR_PPRE2, ((RCC_ClkInitStruct->APB2CLKDivider) << 3));
 800663e:	4a25      	ldr	r2, [pc, #148]	; (80066d4 <HAL_RCC_ClockConfig+0x17c>)
 8006640:	6921      	ldr	r1, [r4, #16]
 8006642:	6853      	ldr	r3, [r2, #4]
 8006644:	f423 5360 	bic.w	r3, r3, #14336	; 0x3800
 8006648:	ea43 03c1 	orr.w	r3, r3, r1, lsl #3
 800664c:	6053      	str	r3, [r2, #4]
  const uint8_t aPredivFactorTable[2] = {1, 2};
 800664e:	f240 2201 	movw	r2, #513	; 0x201
  const uint8_t aPLLMULFactorTable[16] = {2, 3, 4, 5, 6, 7, 8, 9, 10, 11, 12, 13, 14, 15, 16, 16};
 8006652:	4b21      	ldr	r3, [pc, #132]	; (80066d8 <HAL_RCC_ClockConfig+0x180>)
 8006654:	ac06      	add	r4, sp, #24
  const uint8_t aPredivFactorTable[2] = {1, 2};
 8006656:	f8ad 2004 	strh.w	r2, [sp, #4]
  const uint8_t aPLLMULFactorTable[16] = {2, 3, 4, 5, 6, 7, 8, 9, 10, 11, 12, 13, 14, 15, 16, 16};
 800665a:	cb0f      	ldmia	r3, {r0, r1, r2, r3}
 800665c:	e904 000f 	stmdb	r4, {r0, r1, r2, r3}
  tmpreg = RCC->CFGR;
 8006660:	491c      	ldr	r1, [pc, #112]	; (80066d4 <HAL_RCC_ClockConfig+0x17c>)
 8006662:	684a      	ldr	r2, [r1, #4]
  switch (tmpreg & RCC_CFGR_SWS)
 8006664:	f002 030c 	and.w	r3, r2, #12
 8006668:	2b08      	cmp	r3, #8
 800666a:	d11a      	bne.n	80066a2 <HAL_RCC_ClockConfig+0x14a>
      pllmul = aPLLMULFactorTable[(uint32_t)(tmpreg & RCC_CFGR_PLLMULL) >> RCC_CFGR_PLLMULL_Pos];
 800666c:	f3c2 4383 	ubfx	r3, r2, #18, #4
 8006670:	4423      	add	r3, r4
 8006672:	f813 0c10 	ldrb.w	r0, [r3, #-16]
      if ((tmpreg & RCC_CFGR_PLLSRC) != RCC_PLLSOURCE_HSI_DIV2)
 8006676:	03d3      	lsls	r3, r2, #15
 8006678:	d418      	bmi.n	80066ac <HAL_RCC_ClockConfig+0x154>
        pllclk = (uint32_t)((HSI_VALUE >> 1) * pllmul);
 800667a:	4b18      	ldr	r3, [pc, #96]	; (80066dc <HAL_RCC_ClockConfig+0x184>)
 800667c:	fb03 f300 	mul.w	r3, r3, r0
  SystemCoreClock = HAL_RCC_GetSysClockFreq() >> AHBPrescTable[(RCC->CFGR & RCC_CFGR_HPRE) >> RCC_CFGR_HPRE_Pos];
 8006680:	4a14      	ldr	r2, [pc, #80]	; (80066d4 <HAL_RCC_ClockConfig+0x17c>)
 8006682:	4817      	ldr	r0, [pc, #92]	; (80066e0 <HAL_RCC_ClockConfig+0x188>)
 8006684:	6852      	ldr	r2, [r2, #4]
  HAL_InitTick(uwTickPrio);
 8006686:	4917      	ldr	r1, [pc, #92]	; (80066e4 <HAL_RCC_ClockConfig+0x18c>)
  SystemCoreClock = HAL_RCC_GetSysClockFreq() >> AHBPrescTable[(RCC->CFGR & RCC_CFGR_HPRE) >> RCC_CFGR_HPRE_Pos];
 8006688:	f3c2 1203 	ubfx	r2, r2, #4, #4
 800668c:	5c80      	ldrb	r0, [r0, r2]
 800668e:	4a16      	ldr	r2, [pc, #88]	; (80066e8 <HAL_RCC_ClockConfig+0x190>)
 8006690:	40c3      	lsrs	r3, r0
  HAL_InitTick(uwTickPrio);
 8006692:	6808      	ldr	r0, [r1, #0]
  SystemCoreClock = HAL_RCC_GetSysClockFreq() >> AHBPrescTable[(RCC->CFGR & RCC_CFGR_HPRE) >> RCC_CFGR_HPRE_Pos];
 8006694:	6013      	str	r3, [r2, #0]
  HAL_InitTick(uwTickPrio);
 8006696:	f7fe f8b5 	bl	8004804 <HAL_InitTick>
  return HAL_OK;
 800669a:	2000      	movs	r0, #0
}
 800669c:	b006      	add	sp, #24
 800669e:	e8bd 81f0 	ldmia.w	sp!, {r4, r5, r6, r7, r8, pc}
      sysclockfreq = HSE_VALUE;
 80066a2:	4b12      	ldr	r3, [pc, #72]	; (80066ec <HAL_RCC_ClockConfig+0x194>)
 80066a4:	e7ec      	b.n	8006680 <HAL_RCC_ClockConfig+0x128>
      if (__HAL_RCC_GET_FLAG(RCC_FLAG_HSERDY) == RESET)
 80066a6:	039f      	lsls	r7, r3, #14
 80066a8:	d491      	bmi.n	80065ce <HAL_RCC_ClockConfig+0x76>
 80066aa:	e7b8      	b.n	800661e <HAL_RCC_ClockConfig+0xc6>
        prediv = aPredivFactorTable[(uint32_t)(RCC->CFGR & RCC_CFGR_PLLXTPRE) >> RCC_CFGR_PLLXTPRE_Pos];
 80066ac:	684a      	ldr	r2, [r1, #4]
        pllclk = (uint32_t)((HSE_VALUE  * pllmul) / prediv);
 80066ae:	4b0f      	ldr	r3, [pc, #60]	; (80066ec <HAL_RCC_ClockConfig+0x194>)
        prediv = aPredivFactorTable[(uint32_t)(RCC->CFGR & RCC_CFGR_PLLXTPRE) >> RCC_CFGR_PLLXTPRE_Pos];
 80066b0:	f3c2 4240 	ubfx	r2, r2, #17, #1
        pllclk = (uint32_t)((HSE_VALUE  * pllmul) / prediv);
 80066b4:	fb03 f300 	mul.w	r3, r3, r0
        prediv = aPredivFactorTable[(uint32_t)(RCC->CFGR & RCC_CFGR_PLLXTPRE) >> RCC_CFGR_PLLXTPRE_Pos];
 80066b8:	4422      	add	r2, r4
 80066ba:	f812 2c14 	ldrb.w	r2, [r2, #-20]
        pllclk = (uint32_t)((HSE_VALUE  * pllmul) / prediv);
 80066be:	fbb3 f3f2 	udiv	r3, r3, r2
 80066c2:	e7dd      	b.n	8006680 <HAL_RCC_ClockConfig+0x128>
        return HAL_TIMEOUT;
 80066c4:	2003      	movs	r0, #3
 80066c6:	e7ab      	b.n	8006620 <HAL_RCC_ClockConfig+0xc8>
      if (__HAL_RCC_GET_FLAG(RCC_FLAG_PLLRDY) == RESET)
 80066c8:	019e      	lsls	r6, r3, #6
 80066ca:	d480      	bmi.n	80065ce <HAL_RCC_ClockConfig+0x76>
 80066cc:	e7a7      	b.n	800661e <HAL_RCC_ClockConfig+0xc6>
 80066ce:	bf00      	nop
 80066d0:	40022000 	.word	0x40022000
 80066d4:	40021000 	.word	0x40021000
 80066d8:	0800b700 	.word	0x0800b700
 80066dc:	003d0900 	.word	0x003d0900
 80066e0:	0800c380 	.word	0x0800c380
 80066e4:	20000040 	.word	0x20000040
 80066e8:	20000038 	.word	0x20000038
 80066ec:	007a1200 	.word	0x007a1200

080066f0 <HAL_RCC_GetPCLK1Freq>:
  return (HAL_RCC_GetHCLKFreq() >> APBPrescTable[(RCC->CFGR & RCC_CFGR_PPRE1) >> RCC_CFGR_PPRE1_Pos]);
 80066f0:	4b04      	ldr	r3, [pc, #16]	; (8006704 <HAL_RCC_GetPCLK1Freq+0x14>)
 80066f2:	4905      	ldr	r1, [pc, #20]	; (8006708 <HAL_RCC_GetPCLK1Freq+0x18>)
 80066f4:	685b      	ldr	r3, [r3, #4]
  return SystemCoreClock;
 80066f6:	4a05      	ldr	r2, [pc, #20]	; (800670c <HAL_RCC_GetPCLK1Freq+0x1c>)
  return (HAL_RCC_GetHCLKFreq() >> APBPrescTable[(RCC->CFGR & RCC_CFGR_PPRE1) >> RCC_CFGR_PPRE1_Pos]);
 80066f8:	f3c3 2302 	ubfx	r3, r3, #8, #3
 80066fc:	5ccb      	ldrb	r3, [r1, r3]
 80066fe:	6810      	ldr	r0, [r2, #0]
}
 8006700:	40d8      	lsrs	r0, r3
 8006702:	4770      	bx	lr
 8006704:	40021000 	.word	0x40021000
 8006708:	0800c390 	.word	0x0800c390
 800670c:	20000038 	.word	0x20000038

08006710 <HAL_RCC_GetPCLK2Freq>:
  return (HAL_RCC_GetHCLKFreq() >> APBPrescTable[(RCC->CFGR & RCC_CFGR_PPRE2) >> RCC_CFGR_PPRE2_Pos]);
 8006710:	4b04      	ldr	r3, [pc, #16]	; (8006724 <HAL_RCC_GetPCLK2Freq+0x14>)
 8006712:	4905      	ldr	r1, [pc, #20]	; (8006728 <HAL_RCC_GetPCLK2Freq+0x18>)
 8006714:	685b      	ldr	r3, [r3, #4]
  return SystemCoreClock;
 8006716:	4a05      	ldr	r2, [pc, #20]	; (800672c <HAL_RCC_GetPCLK2Freq+0x1c>)
  return (HAL_RCC_GetHCLKFreq() >> APBPrescTable[(RCC->CFGR & RCC_CFGR_PPRE2) >> RCC_CFGR_PPRE2_Pos]);
 8006718:	f3c3 23c2 	ubfx	r3, r3, #11, #3
 800671c:	5ccb      	ldrb	r3, [r1, r3]
 800671e:	6810      	ldr	r0, [r2, #0]
}
 8006720:	40d8      	lsrs	r0, r3
 8006722:	4770      	bx	lr
 8006724:	40021000 	.word	0x40021000
 8006728:	0800c390 	.word	0x0800c390
 800672c:	20000038 	.word	0x20000038

08006730 <HAL_RCCEx_PeriphCLKConfig>:
  *         manually disable it.
  *
  * @retval HAL status
  */
HAL_StatusTypeDef HAL_RCCEx_PeriphCLKConfig(RCC_PeriphCLKInitTypeDef  *PeriphClkInit)
{
 8006730:	e92d 41f0 	stmdb	sp!, {r4, r5, r6, r7, r8, lr}
 8006734:	4604      	mov	r4, r0

  /* Check the parameters */
  assert_param(IS_RCC_PERIPHCLOCK(PeriphClkInit->PeriphClockSelection));

  /*------------------------------- RTC/LCD Configuration ------------------------*/
  if ((((PeriphClkInit->PeriphClockSelection) & RCC_PERIPHCLK_RTC) == RCC_PERIPHCLK_RTC))
 8006736:	6800      	ldr	r0, [r0, #0]
{
 8006738:	b082      	sub	sp, #8
  if ((((PeriphClkInit->PeriphClockSelection) & RCC_PERIPHCLK_RTC) == RCC_PERIPHCLK_RTC))
 800673a:	07c5      	lsls	r5, r0, #31
 800673c:	d52a      	bpl.n	8006794 <HAL_RCCEx_PeriphCLKConfig+0x64>
    FlagStatus       pwrclkchanged = RESET;

    /* As soon as function is called to change RTC clock source, activation of the
       power domain is done. */
    /* Requires to enable write access to Backup Domain of necessary */
    if (__HAL_RCC_PWR_IS_CLK_DISABLED())
 800673e:	4b3a      	ldr	r3, [pc, #232]	; (8006828 <HAL_RCCEx_PeriphCLKConfig+0xf8>)
 8006740:	69da      	ldr	r2, [r3, #28]
 8006742:	00d1      	lsls	r1, r2, #3
 8006744:	d53d      	bpl.n	80067c2 <HAL_RCCEx_PeriphCLKConfig+0x92>
    {
      __HAL_RCC_PWR_CLK_ENABLE();
      pwrclkchanged = SET;
    }

    if (HAL_IS_BIT_CLR(PWR->CR, PWR_CR_DBP))
 8006746:	4b39      	ldr	r3, [pc, #228]	; (800682c <HAL_RCCEx_PeriphCLKConfig+0xfc>)
    FlagStatus       pwrclkchanged = RESET;
 8006748:	2500      	movs	r5, #0
    if (HAL_IS_BIT_CLR(PWR->CR, PWR_CR_DBP))
 800674a:	681a      	ldr	r2, [r3, #0]
 800674c:	05d2      	lsls	r2, r2, #23
 800674e:	d546      	bpl.n	80067de <HAL_RCCEx_PeriphCLKConfig+0xae>
        }
      }
    }

    /* Reset the Backup domain only if the RTC Clock source selection is modified from reset value */
    temp_reg = (RCC->BDCR & RCC_BDCR_RTCSEL);
 8006750:	4935      	ldr	r1, [pc, #212]	; (8006828 <HAL_RCCEx_PeriphCLKConfig+0xf8>)
 8006752:	6860      	ldr	r0, [r4, #4]
 8006754:	6a0a      	ldr	r2, [r1, #32]
    if ((temp_reg != 0x00000000U) && (temp_reg != (PeriphClkInit->RTCClockSelection & RCC_BDCR_RTCSEL)))
 8006756:	f412 7240 	ands.w	r2, r2, #768	; 0x300
 800675a:	d00f      	beq.n	800677c <HAL_RCCEx_PeriphCLKConfig+0x4c>
 800675c:	f400 7340 	and.w	r3, r0, #768	; 0x300
 8006760:	4293      	cmp	r3, r2
 8006762:	d00b      	beq.n	800677c <HAL_RCCEx_PeriphCLKConfig+0x4c>
    {
      /* Store the content of BDCR register before the reset of Backup Domain */
      temp_reg = (RCC->BDCR & ~(RCC_BDCR_RTCSEL));
      /* RTC Clock selection can be changed only if the Backup Domain is reset */
      __HAL_RCC_BACKUPRESET_FORCE();
 8006764:	2701      	movs	r7, #1
      __HAL_RCC_BACKUPRESET_RELEASE();
 8006766:	2600      	movs	r6, #0
      temp_reg = (RCC->BDCR & ~(RCC_BDCR_RTCSEL));
 8006768:	6a0b      	ldr	r3, [r1, #32]
      __HAL_RCC_BACKUPRESET_FORCE();
 800676a:	4a31      	ldr	r2, [pc, #196]	; (8006830 <HAL_RCCEx_PeriphCLKConfig+0x100>)
      temp_reg = (RCC->BDCR & ~(RCC_BDCR_RTCSEL));
 800676c:	f423 7040 	bic.w	r0, r3, #768	; 0x300
      __HAL_RCC_BACKUPRESET_FORCE();
 8006770:	6017      	str	r7, [r2, #0]
      __HAL_RCC_BACKUPRESET_RELEASE();
 8006772:	6016      	str	r6, [r2, #0]
      /* Restore the Content of BDCR register */
      RCC->BDCR = temp_reg;
 8006774:	6208      	str	r0, [r1, #32]

      /* Wait for LSERDY if LSE was enabled */
      if (HAL_IS_BIT_SET(temp_reg, RCC_BDCR_LSEON))
 8006776:	07d8      	lsls	r0, r3, #31
 8006778:	d445      	bmi.n	8006806 <HAL_RCCEx_PeriphCLKConfig+0xd6>
 800677a:	6860      	ldr	r0, [r4, #4]
            return HAL_TIMEOUT;
          }
        }
      }
    }
    __HAL_RCC_RTC_CONFIG(PeriphClkInit->RTCClockSelection);
 800677c:	4a2a      	ldr	r2, [pc, #168]	; (8006828 <HAL_RCCEx_PeriphCLKConfig+0xf8>)
 800677e:	6a13      	ldr	r3, [r2, #32]
 8006780:	f423 7340 	bic.w	r3, r3, #768	; 0x300
 8006784:	4303      	orrs	r3, r0
 8006786:	6213      	str	r3, [r2, #32]

    /* Require to disable power clock if necessary */
    if (pwrclkchanged == SET)
 8006788:	b11d      	cbz	r5, 8006792 <HAL_RCCEx_PeriphCLKConfig+0x62>
    {
      __HAL_RCC_PWR_CLK_DISABLE();
 800678a:	69d3      	ldr	r3, [r2, #28]
 800678c:	f023 5380 	bic.w	r3, r3, #268435456	; 0x10000000
 8006790:	61d3      	str	r3, [r2, #28]
 8006792:	6820      	ldr	r0, [r4, #0]
    }
  }

  /*------------------------------ ADC clock Configuration ------------------*/
  if (((PeriphClkInit->PeriphClockSelection) & RCC_PERIPHCLK_ADC) == RCC_PERIPHCLK_ADC)
 8006794:	0783      	lsls	r3, r0, #30
 8006796:	d506      	bpl.n	80067a6 <HAL_RCCEx_PeriphCLKConfig+0x76>
  {
    /* Check the parameters */
    assert_param(IS_RCC_ADCPLLCLK_DIV(PeriphClkInit->AdcClockSelection));

    /* Configure the ADC clock source */
    __HAL_RCC_ADC_CONFIG(PeriphClkInit->AdcClockSelection);
 8006798:	4a23      	ldr	r2, [pc, #140]	; (8006828 <HAL_RCCEx_PeriphCLKConfig+0xf8>)
 800679a:	68a1      	ldr	r1, [r4, #8]
 800679c:	6853      	ldr	r3, [r2, #4]
 800679e:	f423 4340 	bic.w	r3, r3, #49152	; 0xc000
 80067a2:	430b      	orrs	r3, r1
 80067a4:	6053      	str	r3, [r2, #4]

#if defined(STM32F102x6) || defined(STM32F102xB) || defined(STM32F103x6)\
 || defined(STM32F103xB) || defined(STM32F103xE) || defined(STM32F103xG)\
 || defined(STM32F105xC) || defined(STM32F107xC)
  /*------------------------------ USB clock Configuration ------------------*/
  if (((PeriphClkInit->PeriphClockSelection) & RCC_PERIPHCLK_USB) == RCC_PERIPHCLK_USB)
 80067a6:	f010 0010 	ands.w	r0, r0, #16
 80067aa:	d007      	beq.n	80067bc <HAL_RCCEx_PeriphCLKConfig+0x8c>
    /* Configure the USB clock source */
    __HAL_RCC_USB_CONFIG(PeriphClkInit->UsbClockSelection);
  }
#endif /* STM32F102x6 || STM32F102xB || STM32F103x6 || STM32F103xB || STM32F103xE || STM32F103xG || STM32F105xC || STM32F107xC */

  return HAL_OK;
 80067ac:	2000      	movs	r0, #0
    __HAL_RCC_USB_CONFIG(PeriphClkInit->UsbClockSelection);
 80067ae:	4a1e      	ldr	r2, [pc, #120]	; (8006828 <HAL_RCCEx_PeriphCLKConfig+0xf8>)
 80067b0:	68e1      	ldr	r1, [r4, #12]
 80067b2:	6853      	ldr	r3, [r2, #4]
 80067b4:	f423 0380 	bic.w	r3, r3, #4194304	; 0x400000
 80067b8:	430b      	orrs	r3, r1
 80067ba:	6053      	str	r3, [r2, #4]
}
 80067bc:	b002      	add	sp, #8
 80067be:	e8bd 81f0 	ldmia.w	sp!, {r4, r5, r6, r7, r8, pc}
      __HAL_RCC_PWR_CLK_ENABLE();
 80067c2:	69da      	ldr	r2, [r3, #28]
      pwrclkchanged = SET;
 80067c4:	2501      	movs	r5, #1
      __HAL_RCC_PWR_CLK_ENABLE();
 80067c6:	f042 5280 	orr.w	r2, r2, #268435456	; 0x10000000
 80067ca:	61da      	str	r2, [r3, #28]
 80067cc:	69db      	ldr	r3, [r3, #28]
 80067ce:	f003 5380 	and.w	r3, r3, #268435456	; 0x10000000
 80067d2:	9301      	str	r3, [sp, #4]
 80067d4:	9b01      	ldr	r3, [sp, #4]
    if (HAL_IS_BIT_CLR(PWR->CR, PWR_CR_DBP))
 80067d6:	4b15      	ldr	r3, [pc, #84]	; (800682c <HAL_RCCEx_PeriphCLKConfig+0xfc>)
 80067d8:	681a      	ldr	r2, [r3, #0]
 80067da:	05d2      	lsls	r2, r2, #23
 80067dc:	d4b8      	bmi.n	8006750 <HAL_RCCEx_PeriphCLKConfig+0x20>
      SET_BIT(PWR->CR, PWR_CR_DBP);
 80067de:	681a      	ldr	r2, [r3, #0]
      while (HAL_IS_BIT_CLR(PWR->CR, PWR_CR_DBP))
 80067e0:	461e      	mov	r6, r3
      SET_BIT(PWR->CR, PWR_CR_DBP);
 80067e2:	f442 7280 	orr.w	r2, r2, #256	; 0x100
 80067e6:	601a      	str	r2, [r3, #0]
      tickstart = HAL_GetTick();
 80067e8:	f7fe f84e 	bl	8004888 <HAL_GetTick>
 80067ec:	4607      	mov	r7, r0
      while (HAL_IS_BIT_CLR(PWR->CR, PWR_CR_DBP))
 80067ee:	6833      	ldr	r3, [r6, #0]
 80067f0:	05db      	lsls	r3, r3, #23
 80067f2:	d4ad      	bmi.n	8006750 <HAL_RCCEx_PeriphCLKConfig+0x20>
        if ((HAL_GetTick() - tickstart) > RCC_DBP_TIMEOUT_VALUE)
 80067f4:	f7fe f848 	bl	8004888 <HAL_GetTick>
 80067f8:	1bc0      	subs	r0, r0, r7
 80067fa:	2864      	cmp	r0, #100	; 0x64
 80067fc:	d9f7      	bls.n	80067ee <HAL_RCCEx_PeriphCLKConfig+0xbe>
          return HAL_TIMEOUT;
 80067fe:	2003      	movs	r0, #3
}
 8006800:	b002      	add	sp, #8
 8006802:	e8bd 81f0 	ldmia.w	sp!, {r4, r5, r6, r7, r8, pc}
        while (__HAL_RCC_GET_FLAG(RCC_FLAG_LSERDY) == RESET)
 8006806:	460e      	mov	r6, r1
        tickstart = HAL_GetTick();
 8006808:	f7fe f83e 	bl	8004888 <HAL_GetTick>
          if ((HAL_GetTick() - tickstart) > RCC_LSE_TIMEOUT_VALUE)
 800680c:	f241 3788 	movw	r7, #5000	; 0x1388
        tickstart = HAL_GetTick();
 8006810:	4680      	mov	r8, r0
        while (__HAL_RCC_GET_FLAG(RCC_FLAG_LSERDY) == RESET)
 8006812:	6a33      	ldr	r3, [r6, #32]
 8006814:	079a      	lsls	r2, r3, #30
 8006816:	d4b0      	bmi.n	800677a <HAL_RCCEx_PeriphCLKConfig+0x4a>
          if ((HAL_GetTick() - tickstart) > RCC_LSE_TIMEOUT_VALUE)
 8006818:	f7fe f836 	bl	8004888 <HAL_GetTick>
 800681c:	eba0 0008 	sub.w	r0, r0, r8
 8006820:	42b8      	cmp	r0, r7
 8006822:	d9f6      	bls.n	8006812 <HAL_RCCEx_PeriphCLKConfig+0xe2>
 8006824:	e7eb      	b.n	80067fe <HAL_RCCEx_PeriphCLKConfig+0xce>
 8006826:	bf00      	nop
 8006828:	40021000 	.word	0x40021000
 800682c:	40007000 	.word	0x40007000
 8006830:	42420440 	.word	0x42420440

08006834 <HAL_TIM_Base_Init>:
  * @retval HAL status
  */
HAL_StatusTypeDef HAL_TIM_Base_Init(TIM_HandleTypeDef *htim)
{
  /* Check the TIM handle allocation */
  if (htim == NULL)
 8006834:	2800      	cmp	r0, #0
 8006836:	d036      	beq.n	80068a6 <HAL_TIM_Base_Init+0x72>
  assert_param(IS_TIM_INSTANCE(htim->Instance));
  assert_param(IS_TIM_COUNTER_MODE(htim->Init.CounterMode));
  assert_param(IS_TIM_CLOCKDIVISION_DIV(htim->Init.ClockDivision));
  assert_param(IS_TIM_AUTORELOAD_PRELOAD(htim->Init.AutoReloadPreload));

  if (htim->State == HAL_TIM_STATE_RESET)
 8006838:	f890 303d 	ldrb.w	r3, [r0, #61]	; 0x3d
{
 800683c:	b570      	push	{r4, r5, r6, lr}
  if (htim->State == HAL_TIM_STATE_RESET)
 800683e:	f003 02ff 	and.w	r2, r3, #255	; 0xff
 8006842:	4604      	mov	r4, r0
 8006844:	b30b      	cbz	r3, 800688a <HAL_TIM_Base_Init+0x56>
    HAL_TIM_Base_MspInit(htim);
#endif /* USE_HAL_TIM_REGISTER_CALLBACKS */
  }

  /* Set the TIM state */
  htim->State = HAL_TIM_STATE_BUSY;
 8006846:	2302      	movs	r3, #2

  /* Set the Time Base configuration */
  TIM_Base_SetConfig(htim->Instance, &htim->Init);
 8006848:	6822      	ldr	r2, [r4, #0]
{
  uint32_t tmpcr1;
  tmpcr1 = TIMx->CR1;

  /* Set TIM Time Base Unit parameters ---------------------------------------*/
  if (IS_TIM_COUNTER_MODE_SELECT_INSTANCE(TIMx))
 800684a:	4e20      	ldr	r6, [pc, #128]	; (80068cc <HAL_TIM_Base_Init+0x98>)
  htim->State = HAL_TIM_STATE_BUSY;
 800684c:	f884 303d 	strb.w	r3, [r4, #61]	; 0x3d
  if (IS_TIM_COUNTER_MODE_SELECT_INSTANCE(TIMx))
 8006850:	42b2      	cmp	r2, r6
  tmpcr1 = TIMx->CR1;
 8006852:	6813      	ldr	r3, [r2, #0]
 8006854:	69a5      	ldr	r5, [r4, #24]
 8006856:	68e0      	ldr	r0, [r4, #12]
 8006858:	6861      	ldr	r1, [r4, #4]
  if (IS_TIM_COUNTER_MODE_SELECT_INSTANCE(TIMx))
 800685a:	d026      	beq.n	80068aa <HAL_TIM_Base_Init+0x76>
 800685c:	f1b2 4f80 	cmp.w	r2, #1073741824	; 0x40000000
 8006860:	d018      	beq.n	8006894 <HAL_TIM_Base_Init+0x60>
 8006862:	f5a6 3694 	sub.w	r6, r6, #75776	; 0x12800
 8006866:	42b2      	cmp	r2, r6
 8006868:	d014      	beq.n	8006894 <HAL_TIM_Base_Init+0x60>
 800686a:	f506 6680 	add.w	r6, r6, #1024	; 0x400
 800686e:	42b2      	cmp	r2, r6
 8006870:	d010      	beq.n	8006894 <HAL_TIM_Base_Init+0x60>
    tmpcr1 &= ~TIM_CR1_CKD;
    tmpcr1 |= (uint32_t)Structure->ClockDivision;
  }

  /* Set the auto-reload preload */
  MODIFY_REG(tmpcr1, TIM_CR1_ARPE, Structure->AutoReloadPreload);
 8006872:	f023 0380 	bic.w	r3, r3, #128	; 0x80
 8006876:	432b      	orrs	r3, r5

  TIMx->CR1 = tmpcr1;
 8006878:	6013      	str	r3, [r2, #0]

  /* Set the Autoreload value */
  TIMx->ARR = (uint32_t)Structure->Period ;
 800687a:	62d0      	str	r0, [r2, #44]	; 0x2c

  /* Set the Prescaler value */
  TIMx->PSC = Structure->Prescaler;
 800687c:	6291      	str	r1, [r2, #40]	; 0x28
    TIMx->RCR = Structure->RepetitionCounter;
  }

  /* Generate an update event to reload the Prescaler
     and the repetition counter (only for advanced timer) value immediately */
  TIMx->EGR = TIM_EGR_UG;
 800687e:	2301      	movs	r3, #1
  return HAL_OK;
 8006880:	2000      	movs	r0, #0
  TIMx->EGR = TIM_EGR_UG;
 8006882:	6153      	str	r3, [r2, #20]
  htim->State = HAL_TIM_STATE_READY;
 8006884:	f884 303d 	strb.w	r3, [r4, #61]	; 0x3d
}
 8006888:	bd70      	pop	{r4, r5, r6, pc}
    htim->Lock = HAL_UNLOCKED;
 800688a:	f880 203c 	strb.w	r2, [r0, #60]	; 0x3c
    HAL_TIM_Base_MspInit(htim);
 800688e:	f7fc f84b 	bl	8002928 <HAL_TIM_Base_MspInit>
 8006892:	e7d8      	b.n	8006846 <HAL_TIM_Base_Init+0x12>
    tmpcr1 |= Structure->CounterMode;
 8006894:	68a6      	ldr	r6, [r4, #8]
    tmpcr1 &= ~(TIM_CR1_DIR | TIM_CR1_CMS);
 8006896:	f023 0370 	bic.w	r3, r3, #112	; 0x70
    tmpcr1 |= Structure->CounterMode;
 800689a:	4333      	orrs	r3, r6
    tmpcr1 |= (uint32_t)Structure->ClockDivision;
 800689c:	6926      	ldr	r6, [r4, #16]
    tmpcr1 &= ~TIM_CR1_CKD;
 800689e:	f423 7340 	bic.w	r3, r3, #768	; 0x300
    tmpcr1 |= (uint32_t)Structure->ClockDivision;
 80068a2:	4333      	orrs	r3, r6
 80068a4:	e7e5      	b.n	8006872 <HAL_TIM_Base_Init+0x3e>
    return HAL_ERROR;
 80068a6:	2001      	movs	r0, #1
}
 80068a8:	4770      	bx	lr
    tmpcr1 |= Structure->CounterMode;
 80068aa:	68a6      	ldr	r6, [r4, #8]
    tmpcr1 &= ~(TIM_CR1_DIR | TIM_CR1_CMS);
 80068ac:	f023 0370 	bic.w	r3, r3, #112	; 0x70
    tmpcr1 |= Structure->CounterMode;
 80068b0:	4333      	orrs	r3, r6
    tmpcr1 |= (uint32_t)Structure->ClockDivision;
 80068b2:	6926      	ldr	r6, [r4, #16]
    tmpcr1 &= ~TIM_CR1_CKD;
 80068b4:	f423 7340 	bic.w	r3, r3, #768	; 0x300
    tmpcr1 |= (uint32_t)Structure->ClockDivision;
 80068b8:	4333      	orrs	r3, r6
  MODIFY_REG(tmpcr1, TIM_CR1_ARPE, Structure->AutoReloadPreload);
 80068ba:	f023 0380 	bic.w	r3, r3, #128	; 0x80
 80068be:	432b      	orrs	r3, r5
  TIMx->CR1 = tmpcr1;
 80068c0:	6013      	str	r3, [r2, #0]
  TIMx->ARR = (uint32_t)Structure->Period ;
 80068c2:	62d0      	str	r0, [r2, #44]	; 0x2c
  TIMx->PSC = Structure->Prescaler;
 80068c4:	6291      	str	r1, [r2, #40]	; 0x28
    TIMx->RCR = Structure->RepetitionCounter;
 80068c6:	6963      	ldr	r3, [r4, #20]
 80068c8:	6313      	str	r3, [r2, #48]	; 0x30
 80068ca:	e7d8      	b.n	800687e <HAL_TIM_Base_Init+0x4a>
 80068cc:	40012c00 	.word	0x40012c00

080068d0 <HAL_TIM_Base_Start_IT>:
  __HAL_TIM_ENABLE_IT(htim, TIM_IT_UPDATE);
 80068d0:	6803      	ldr	r3, [r0, #0]
 80068d2:	68da      	ldr	r2, [r3, #12]
 80068d4:	f042 0201 	orr.w	r2, r2, #1
 80068d8:	60da      	str	r2, [r3, #12]
  tmpsmcr = htim->Instance->SMCR & TIM_SMCR_SMS;
 80068da:	689a      	ldr	r2, [r3, #8]
 80068dc:	f002 0207 	and.w	r2, r2, #7
  if (!IS_TIM_SLAVEMODE_TRIGGER_ENABLED(tmpsmcr))
 80068e0:	2a06      	cmp	r2, #6
 80068e2:	d003      	beq.n	80068ec <HAL_TIM_Base_Start_IT+0x1c>
    __HAL_TIM_ENABLE(htim);
 80068e4:	681a      	ldr	r2, [r3, #0]
 80068e6:	f042 0201 	orr.w	r2, r2, #1
 80068ea:	601a      	str	r2, [r3, #0]
}
 80068ec:	2000      	movs	r0, #0
 80068ee:	4770      	bx	lr

080068f0 <HAL_TIM_ConfigClockSource>:
  __HAL_LOCK(htim);
 80068f0:	f890 303c 	ldrb.w	r3, [r0, #60]	; 0x3c
 80068f4:	2b01      	cmp	r3, #1
 80068f6:	d05a      	beq.n	80069ae <HAL_TIM_ConfigClockSource+0xbe>
  htim->State = HAL_TIM_STATE_BUSY;
 80068f8:	2202      	movs	r2, #2
{
 80068fa:	b4f0      	push	{r4, r5, r6, r7}
  __HAL_LOCK(htim);
 80068fc:	2501      	movs	r5, #1
  tmpsmcr = htim->Instance->SMCR;
 80068fe:	6803      	ldr	r3, [r0, #0]
  htim->State = HAL_TIM_STATE_BUSY;
 8006900:	f880 203d 	strb.w	r2, [r0, #61]	; 0x3d
  tmpsmcr = htim->Instance->SMCR;
 8006904:	689a      	ldr	r2, [r3, #8]
  switch (sClockSourceConfig->ClockSource)
 8006906:	680c      	ldr	r4, [r1, #0]
  tmpsmcr &= ~(TIM_SMCR_ETF | TIM_SMCR_ETPS | TIM_SMCR_ECE | TIM_SMCR_ETP);
 8006908:	f422 427f 	bic.w	r2, r2, #65280	; 0xff00
 800690c:	f022 0277 	bic.w	r2, r2, #119	; 0x77
  switch (sClockSourceConfig->ClockSource)
 8006910:	2c40      	cmp	r4, #64	; 0x40
  __HAL_LOCK(htim);
 8006912:	f880 503c 	strb.w	r5, [r0, #60]	; 0x3c
  htim->Instance->SMCR = tmpsmcr;
 8006916:	609a      	str	r2, [r3, #8]
  switch (sClockSourceConfig->ClockSource)
 8006918:	d074      	beq.n	8006a04 <HAL_TIM_ConfigClockSource+0x114>
 800691a:	d94a      	bls.n	80069b2 <HAL_TIM_ConfigClockSource+0xc2>
 800691c:	2c60      	cmp	r4, #96	; 0x60
 800691e:	d02d      	beq.n	800697c <HAL_TIM_ConfigClockSource+0x8c>
 8006920:	d956      	bls.n	80069d0 <HAL_TIM_ConfigClockSource+0xe0>
 8006922:	2c70      	cmp	r4, #112	; 0x70
 8006924:	d01a      	beq.n	800695c <HAL_TIM_ConfigClockSource+0x6c>
 8006926:	f5b4 5f00 	cmp.w	r4, #8192	; 0x2000
 800692a:	d10e      	bne.n	800694a <HAL_TIM_ConfigClockSource+0x5a>

  /* Reset the ETR Bits */
  tmpsmcr &= ~(TIM_SMCR_ETF | TIM_SMCR_ETPS | TIM_SMCR_ECE | TIM_SMCR_ETP);

  /* Set the Prescaler, the Filter value and the Polarity */
  tmpsmcr |= (uint32_t)(TIM_ExtTRGPrescaler | (TIM_ExtTRGPolarity | (ExtTRGFilter << 8U)));
 800692c:	e9d1 5201 	ldrd	r5, r2, [r1, #4]
 8006930:	68cc      	ldr	r4, [r1, #12]
  tmpsmcr = TIMx->SMCR;
 8006932:	6899      	ldr	r1, [r3, #8]
  tmpsmcr |= (uint32_t)(TIM_ExtTRGPrescaler | (TIM_ExtTRGPolarity | (ExtTRGFilter << 8U)));
 8006934:	432a      	orrs	r2, r5
 8006936:	ea42 2204 	orr.w	r2, r2, r4, lsl #8
  tmpsmcr &= ~(TIM_SMCR_ETF | TIM_SMCR_ETPS | TIM_SMCR_ECE | TIM_SMCR_ETP);
 800693a:	f421 417f 	bic.w	r1, r1, #65280	; 0xff00
  tmpsmcr |= (uint32_t)(TIM_ExtTRGPrescaler | (TIM_ExtTRGPolarity | (ExtTRGFilter << 8U)));
 800693e:	430a      	orrs	r2, r1

  /* Write to TIMx SMCR */
  TIMx->SMCR = tmpsmcr;
 8006940:	609a      	str	r2, [r3, #8]
      htim->Instance->SMCR |= TIM_SMCR_ECE;
 8006942:	689a      	ldr	r2, [r3, #8]
 8006944:	f442 4280 	orr.w	r2, r2, #16384	; 0x4000
 8006948:	609a      	str	r2, [r3, #8]
  __HAL_UNLOCK(htim);
 800694a:	2300      	movs	r3, #0
}
 800694c:	bcf0      	pop	{r4, r5, r6, r7}
  htim->State = HAL_TIM_STATE_READY;
 800694e:	2201      	movs	r2, #1
  __HAL_UNLOCK(htim);
 8006950:	f880 303c 	strb.w	r3, [r0, #60]	; 0x3c
  htim->State = HAL_TIM_STATE_READY;
 8006954:	f880 203d 	strb.w	r2, [r0, #61]	; 0x3d
  return HAL_OK;
 8006958:	4618      	mov	r0, r3
}
 800695a:	4770      	bx	lr
  tmpsmcr |= (uint32_t)(TIM_ExtTRGPrescaler | (TIM_ExtTRGPolarity | (ExtTRGFilter << 8U)));
 800695c:	e9d1 5201 	ldrd	r5, r2, [r1, #4]
 8006960:	68cc      	ldr	r4, [r1, #12]
  tmpsmcr = TIMx->SMCR;
 8006962:	6899      	ldr	r1, [r3, #8]
  tmpsmcr |= (uint32_t)(TIM_ExtTRGPrescaler | (TIM_ExtTRGPolarity | (ExtTRGFilter << 8U)));
 8006964:	432a      	orrs	r2, r5
 8006966:	ea42 2204 	orr.w	r2, r2, r4, lsl #8
  tmpsmcr &= ~(TIM_SMCR_ETF | TIM_SMCR_ETPS | TIM_SMCR_ECE | TIM_SMCR_ETP);
 800696a:	f421 417f 	bic.w	r1, r1, #65280	; 0xff00
  tmpsmcr |= (uint32_t)(TIM_ExtTRGPrescaler | (TIM_ExtTRGPolarity | (ExtTRGFilter << 8U)));
 800696e:	430a      	orrs	r2, r1
  TIMx->SMCR = tmpsmcr;
 8006970:	609a      	str	r2, [r3, #8]
      tmpsmcr = htim->Instance->SMCR;
 8006972:	689a      	ldr	r2, [r3, #8]
      tmpsmcr |= (TIM_SLAVEMODE_EXTERNAL1 | TIM_CLOCKSOURCE_ETRMODE1);
 8006974:	f042 0277 	orr.w	r2, r2, #119	; 0x77
      htim->Instance->SMCR = tmpsmcr;
 8006978:	609a      	str	r2, [r3, #8]
      break;
 800697a:	e7e6      	b.n	800694a <HAL_TIM_ConfigClockSource+0x5a>
  TIMx->CCER &= ~TIM_CCER_CC2E;
 800697c:	6a1c      	ldr	r4, [r3, #32]
      TIM_TI2_ConfigInputStage(htim->Instance,
 800697e:	684d      	ldr	r5, [r1, #4]
  TIMx->CCER &= ~TIM_CCER_CC2E;
 8006980:	f024 0410 	bic.w	r4, r4, #16
      TIM_TI2_ConfigInputStage(htim->Instance,
 8006984:	68ce      	ldr	r6, [r1, #12]
  TIMx->CCER &= ~TIM_CCER_CC2E;
 8006986:	621c      	str	r4, [r3, #32]
  tmpccmr1 = TIMx->CCMR1;
 8006988:	6999      	ldr	r1, [r3, #24]
  tmpccer = TIMx->CCER;
 800698a:	6a1a      	ldr	r2, [r3, #32]
  tmpccmr1 &= ~TIM_CCMR1_IC2F;
 800698c:	f421 4170 	bic.w	r1, r1, #61440	; 0xf000
  tmpccer &= ~(TIM_CCER_CC2P | TIM_CCER_CC2NP);
 8006990:	f022 02a0 	bic.w	r2, r2, #160	; 0xa0
  tmpccer |= (TIM_ICPolarity << 4U);
 8006994:	ea42 1205 	orr.w	r2, r2, r5, lsl #4
  tmpccmr1 |= (TIM_ICFilter << 12U);
 8006998:	ea41 3106 	orr.w	r1, r1, r6, lsl #12
  TIMx->CCMR1 = tmpccmr1 ;
 800699c:	6199      	str	r1, [r3, #24]
  TIMx->CCER = tmpccer;
 800699e:	621a      	str	r2, [r3, #32]
  tmpsmcr = TIMx->SMCR;
 80069a0:	689a      	ldr	r2, [r3, #8]
  tmpsmcr &= ~TIM_SMCR_TS;
 80069a2:	f022 0270 	bic.w	r2, r2, #112	; 0x70
  tmpsmcr |= (InputTriggerSource | TIM_SLAVEMODE_EXTERNAL1);
 80069a6:	f042 0267 	orr.w	r2, r2, #103	; 0x67
  TIMx->SMCR = tmpsmcr;
 80069aa:	609a      	str	r2, [r3, #8]
 80069ac:	e7cd      	b.n	800694a <HAL_TIM_ConfigClockSource+0x5a>
  __HAL_LOCK(htim);
 80069ae:	2002      	movs	r0, #2
}
 80069b0:	4770      	bx	lr
  switch (sClockSourceConfig->ClockSource)
 80069b2:	2c10      	cmp	r4, #16
 80069b4:	d004      	beq.n	80069c0 <HAL_TIM_ConfigClockSource+0xd0>
 80069b6:	d93d      	bls.n	8006a34 <HAL_TIM_ConfigClockSource+0x144>
 80069b8:	2c20      	cmp	r4, #32
 80069ba:	d001      	beq.n	80069c0 <HAL_TIM_ConfigClockSource+0xd0>
 80069bc:	2c30      	cmp	r4, #48	; 0x30
 80069be:	d1c4      	bne.n	800694a <HAL_TIM_ConfigClockSource+0x5a>
  tmpsmcr = TIMx->SMCR;
 80069c0:	689a      	ldr	r2, [r3, #8]
  tmpsmcr |= (InputTriggerSource | TIM_SLAVEMODE_EXTERNAL1);
 80069c2:	f044 0407 	orr.w	r4, r4, #7
  tmpsmcr &= ~TIM_SMCR_TS;
 80069c6:	f022 0270 	bic.w	r2, r2, #112	; 0x70
  tmpsmcr |= (InputTriggerSource | TIM_SLAVEMODE_EXTERNAL1);
 80069ca:	4314      	orrs	r4, r2
  TIMx->SMCR = tmpsmcr;
 80069cc:	609c      	str	r4, [r3, #8]
 80069ce:	e7bc      	b.n	800694a <HAL_TIM_ConfigClockSource+0x5a>
  switch (sClockSourceConfig->ClockSource)
 80069d0:	2c50      	cmp	r4, #80	; 0x50
 80069d2:	d1ba      	bne.n	800694a <HAL_TIM_ConfigClockSource+0x5a>
  tmpccer = TIMx->CCER;
 80069d4:	6a1d      	ldr	r5, [r3, #32]
  TIMx->CCER &= ~TIM_CCER_CC1E;
 80069d6:	6a1e      	ldr	r6, [r3, #32]
      TIM_TI1_ConfigInputStage(htim->Instance,
 80069d8:	684c      	ldr	r4, [r1, #4]
  TIMx->CCER &= ~TIM_CCER_CC1E;
 80069da:	f026 0601 	bic.w	r6, r6, #1
      TIM_TI1_ConfigInputStage(htim->Instance,
 80069de:	68cf      	ldr	r7, [r1, #12]
  TIMx->CCER &= ~TIM_CCER_CC1E;
 80069e0:	621e      	str	r6, [r3, #32]
  tmpccmr1 = TIMx->CCMR1;
 80069e2:	699a      	ldr	r2, [r3, #24]
  tmpccer &= ~(TIM_CCER_CC1P | TIM_CCER_CC1NP);
 80069e4:	f025 010a 	bic.w	r1, r5, #10
  tmpccmr1 &= ~TIM_CCMR1_IC1F;
 80069e8:	f022 02f0 	bic.w	r2, r2, #240	; 0xf0
  tmpccmr1 |= (TIM_ICFilter << 4U);
 80069ec:	ea42 1207 	orr.w	r2, r2, r7, lsl #4
  tmpccer |= TIM_ICPolarity;
 80069f0:	4321      	orrs	r1, r4
  TIMx->CCMR1 = tmpccmr1;
 80069f2:	619a      	str	r2, [r3, #24]
  TIMx->CCER = tmpccer;
 80069f4:	6219      	str	r1, [r3, #32]
  tmpsmcr = TIMx->SMCR;
 80069f6:	689a      	ldr	r2, [r3, #8]
  tmpsmcr &= ~TIM_SMCR_TS;
 80069f8:	f022 0270 	bic.w	r2, r2, #112	; 0x70
  tmpsmcr |= (InputTriggerSource | TIM_SLAVEMODE_EXTERNAL1);
 80069fc:	f042 0257 	orr.w	r2, r2, #87	; 0x57
  TIMx->SMCR = tmpsmcr;
 8006a00:	609a      	str	r2, [r3, #8]
 8006a02:	e7a2      	b.n	800694a <HAL_TIM_ConfigClockSource+0x5a>
  tmpccer = TIMx->CCER;
 8006a04:	6a1d      	ldr	r5, [r3, #32]
  TIMx->CCER &= ~TIM_CCER_CC1E;
 8006a06:	6a1e      	ldr	r6, [r3, #32]
      TIM_TI1_ConfigInputStage(htim->Instance,
 8006a08:	684c      	ldr	r4, [r1, #4]
  TIMx->CCER &= ~TIM_CCER_CC1E;
 8006a0a:	f026 0601 	bic.w	r6, r6, #1
      TIM_TI1_ConfigInputStage(htim->Instance,
 8006a0e:	68cf      	ldr	r7, [r1, #12]
  TIMx->CCER &= ~TIM_CCER_CC1E;
 8006a10:	621e      	str	r6, [r3, #32]
  tmpccmr1 = TIMx->CCMR1;
 8006a12:	699a      	ldr	r2, [r3, #24]
  tmpccer &= ~(TIM_CCER_CC1P | TIM_CCER_CC1NP);
 8006a14:	f025 010a 	bic.w	r1, r5, #10
  tmpccmr1 &= ~TIM_CCMR1_IC1F;
 8006a18:	f022 02f0 	bic.w	r2, r2, #240	; 0xf0
  tmpccmr1 |= (TIM_ICFilter << 4U);
 8006a1c:	ea42 1207 	orr.w	r2, r2, r7, lsl #4
  tmpccer |= TIM_ICPolarity;
 8006a20:	4321      	orrs	r1, r4
  TIMx->CCMR1 = tmpccmr1;
 8006a22:	619a      	str	r2, [r3, #24]
  TIMx->CCER = tmpccer;
 8006a24:	6219      	str	r1, [r3, #32]
  tmpsmcr = TIMx->SMCR;
 8006a26:	689a      	ldr	r2, [r3, #8]
  tmpsmcr &= ~TIM_SMCR_TS;
 8006a28:	f022 0270 	bic.w	r2, r2, #112	; 0x70
  tmpsmcr |= (InputTriggerSource | TIM_SLAVEMODE_EXTERNAL1);
 8006a2c:	f042 0247 	orr.w	r2, r2, #71	; 0x47
  TIMx->SMCR = tmpsmcr;
 8006a30:	609a      	str	r2, [r3, #8]
 8006a32:	e78a      	b.n	800694a <HAL_TIM_ConfigClockSource+0x5a>
  switch (sClockSourceConfig->ClockSource)
 8006a34:	2c00      	cmp	r4, #0
 8006a36:	d0c3      	beq.n	80069c0 <HAL_TIM_ConfigClockSource+0xd0>
 8006a38:	e787      	b.n	800694a <HAL_TIM_ConfigClockSource+0x5a>
 8006a3a:	bf00      	nop

08006a3c <HAL_TIM_PeriodElapsedCallback>:
 8006a3c:	4770      	bx	lr
 8006a3e:	bf00      	nop

08006a40 <HAL_TIM_OC_DelayElapsedCallback>:
 8006a40:	4770      	bx	lr
 8006a42:	bf00      	nop

08006a44 <HAL_TIM_IC_CaptureCallback>:
 8006a44:	4770      	bx	lr
 8006a46:	bf00      	nop

08006a48 <HAL_TIM_PWM_PulseFinishedCallback>:
 8006a48:	4770      	bx	lr
 8006a4a:	bf00      	nop

08006a4c <HAL_TIM_TriggerCallback>:
 8006a4c:	4770      	bx	lr
 8006a4e:	bf00      	nop

08006a50 <HAL_TIM_IRQHandler>:
  if (__HAL_TIM_GET_FLAG(htim, TIM_FLAG_CC1) != RESET)
 8006a50:	6803      	ldr	r3, [r0, #0]
{
 8006a52:	b510      	push	{r4, lr}
  if (__HAL_TIM_GET_FLAG(htim, TIM_FLAG_CC1) != RESET)
 8006a54:	691a      	ldr	r2, [r3, #16]
{
 8006a56:	4604      	mov	r4, r0
  if (__HAL_TIM_GET_FLAG(htim, TIM_FLAG_CC1) != RESET)
 8006a58:	0791      	lsls	r1, r2, #30
 8006a5a:	d502      	bpl.n	8006a62 <HAL_TIM_IRQHandler+0x12>
    if (__HAL_TIM_GET_IT_SOURCE(htim, TIM_IT_CC1) != RESET)
 8006a5c:	68da      	ldr	r2, [r3, #12]
 8006a5e:	0792      	lsls	r2, r2, #30
 8006a60:	d45f      	bmi.n	8006b22 <HAL_TIM_IRQHandler+0xd2>
  if (__HAL_TIM_GET_FLAG(htim, TIM_FLAG_CC2) != RESET)
 8006a62:	691a      	ldr	r2, [r3, #16]
 8006a64:	0750      	lsls	r0, r2, #29
 8006a66:	d502      	bpl.n	8006a6e <HAL_TIM_IRQHandler+0x1e>
    if (__HAL_TIM_GET_IT_SOURCE(htim, TIM_IT_CC2) != RESET)
 8006a68:	68da      	ldr	r2, [r3, #12]
 8006a6a:	0751      	lsls	r1, r2, #29
 8006a6c:	d446      	bmi.n	8006afc <HAL_TIM_IRQHandler+0xac>
  if (__HAL_TIM_GET_FLAG(htim, TIM_FLAG_CC3) != RESET)
 8006a6e:	691a      	ldr	r2, [r3, #16]
 8006a70:	0712      	lsls	r2, r2, #28
 8006a72:	d502      	bpl.n	8006a7a <HAL_TIM_IRQHandler+0x2a>
    if (__HAL_TIM_GET_IT_SOURCE(htim, TIM_IT_CC3) != RESET)
 8006a74:	68da      	ldr	r2, [r3, #12]
 8006a76:	0710      	lsls	r0, r2, #28
 8006a78:	d42e      	bmi.n	8006ad8 <HAL_TIM_IRQHandler+0x88>
  if (__HAL_TIM_GET_FLAG(htim, TIM_FLAG_CC4) != RESET)
 8006a7a:	691a      	ldr	r2, [r3, #16]
 8006a7c:	06d2      	lsls	r2, r2, #27
 8006a7e:	d502      	bpl.n	8006a86 <HAL_TIM_IRQHandler+0x36>
    if (__HAL_TIM_GET_IT_SOURCE(htim, TIM_IT_CC4) != RESET)
 8006a80:	68da      	ldr	r2, [r3, #12]
 8006a82:	06d0      	lsls	r0, r2, #27
 8006a84:	d418      	bmi.n	8006ab8 <HAL_TIM_IRQHandler+0x68>
  if (__HAL_TIM_GET_FLAG(htim, TIM_FLAG_UPDATE) != RESET)
 8006a86:	691a      	ldr	r2, [r3, #16]
 8006a88:	07d1      	lsls	r1, r2, #31
 8006a8a:	d502      	bpl.n	8006a92 <HAL_TIM_IRQHandler+0x42>
    if (__HAL_TIM_GET_IT_SOURCE(htim, TIM_IT_UPDATE) != RESET)
 8006a8c:	68da      	ldr	r2, [r3, #12]
 8006a8e:	07d2      	lsls	r2, r2, #31
 8006a90:	d45d      	bmi.n	8006b4e <HAL_TIM_IRQHandler+0xfe>
  if (__HAL_TIM_GET_FLAG(htim, TIM_FLAG_BREAK) != RESET)
 8006a92:	691a      	ldr	r2, [r3, #16]
 8006a94:	0610      	lsls	r0, r2, #24
 8006a96:	d502      	bpl.n	8006a9e <HAL_TIM_IRQHandler+0x4e>
    if (__HAL_TIM_GET_IT_SOURCE(htim, TIM_IT_BREAK) != RESET)
 8006a98:	68da      	ldr	r2, [r3, #12]
 8006a9a:	0611      	lsls	r1, r2, #24
 8006a9c:	d45f      	bmi.n	8006b5e <HAL_TIM_IRQHandler+0x10e>
  if (__HAL_TIM_GET_FLAG(htim, TIM_FLAG_TRIGGER) != RESET)
 8006a9e:	691a      	ldr	r2, [r3, #16]
 8006aa0:	0652      	lsls	r2, r2, #25
 8006aa2:	d502      	bpl.n	8006aaa <HAL_TIM_IRQHandler+0x5a>
    if (__HAL_TIM_GET_IT_SOURCE(htim, TIM_IT_TRIGGER) != RESET)
 8006aa4:	68da      	ldr	r2, [r3, #12]
 8006aa6:	0650      	lsls	r0, r2, #25
 8006aa8:	d461      	bmi.n	8006b6e <HAL_TIM_IRQHandler+0x11e>
  if (__HAL_TIM_GET_FLAG(htim, TIM_FLAG_COM) != RESET)
 8006aaa:	691a      	ldr	r2, [r3, #16]
 8006aac:	0691      	lsls	r1, r2, #26
 8006aae:	d502      	bpl.n	8006ab6 <HAL_TIM_IRQHandler+0x66>
    if (__HAL_TIM_GET_IT_SOURCE(htim, TIM_IT_COM) != RESET)
 8006ab0:	68da      	ldr	r2, [r3, #12]
 8006ab2:	0692      	lsls	r2, r2, #26
 8006ab4:	d443      	bmi.n	8006b3e <HAL_TIM_IRQHandler+0xee>
}
 8006ab6:	bd10      	pop	{r4, pc}
      __HAL_TIM_CLEAR_IT(htim, TIM_IT_CC4);
 8006ab8:	f06f 0110 	mvn.w	r1, #16
      htim->Channel = HAL_TIM_ACTIVE_CHANNEL_4;
 8006abc:	2208      	movs	r2, #8
      __HAL_TIM_CLEAR_IT(htim, TIM_IT_CC4);
 8006abe:	6119      	str	r1, [r3, #16]
      if ((htim->Instance->CCMR2 & TIM_CCMR2_CC4S) != 0x00U)
 8006ac0:	69db      	ldr	r3, [r3, #28]
        HAL_TIM_IC_CaptureCallback(htim);
 8006ac2:	4620      	mov	r0, r4
      if ((htim->Instance->CCMR2 & TIM_CCMR2_CC4S) != 0x00U)
 8006ac4:	f413 7f40 	tst.w	r3, #768	; 0x300
      htim->Channel = HAL_TIM_ACTIVE_CHANNEL_4;
 8006ac8:	7722      	strb	r2, [r4, #28]
      if ((htim->Instance->CCMR2 & TIM_CCMR2_CC4S) != 0x00U)
 8006aca:	d064      	beq.n	8006b96 <HAL_TIM_IRQHandler+0x146>
        HAL_TIM_IC_CaptureCallback(htim);
 8006acc:	f7ff ffba 	bl	8006a44 <HAL_TIM_IC_CaptureCallback>
      htim->Channel = HAL_TIM_ACTIVE_CHANNEL_CLEARED;
 8006ad0:	2200      	movs	r2, #0
 8006ad2:	6823      	ldr	r3, [r4, #0]
 8006ad4:	7722      	strb	r2, [r4, #28]
 8006ad6:	e7d6      	b.n	8006a86 <HAL_TIM_IRQHandler+0x36>
      __HAL_TIM_CLEAR_IT(htim, TIM_IT_CC3);
 8006ad8:	f06f 0108 	mvn.w	r1, #8
      htim->Channel = HAL_TIM_ACTIVE_CHANNEL_3;
 8006adc:	2204      	movs	r2, #4
      __HAL_TIM_CLEAR_IT(htim, TIM_IT_CC3);
 8006ade:	6119      	str	r1, [r3, #16]
      if ((htim->Instance->CCMR2 & TIM_CCMR2_CC3S) != 0x00U)
 8006ae0:	69db      	ldr	r3, [r3, #28]
        HAL_TIM_IC_CaptureCallback(htim);
 8006ae2:	4620      	mov	r0, r4
      if ((htim->Instance->CCMR2 & TIM_CCMR2_CC3S) != 0x00U)
 8006ae4:	0799      	lsls	r1, r3, #30
      htim->Channel = HAL_TIM_ACTIVE_CHANNEL_3;
 8006ae6:	7722      	strb	r2, [r4, #28]
      if ((htim->Instance->CCMR2 & TIM_CCMR2_CC3S) != 0x00U)
 8006ae8:	d152      	bne.n	8006b90 <HAL_TIM_IRQHandler+0x140>
        HAL_TIM_OC_DelayElapsedCallback(htim);
 8006aea:	f7ff ffa9 	bl	8006a40 <HAL_TIM_OC_DelayElapsedCallback>
        HAL_TIM_PWM_PulseFinishedCallback(htim);
 8006aee:	4620      	mov	r0, r4
 8006af0:	f7ff ffaa 	bl	8006a48 <HAL_TIM_PWM_PulseFinishedCallback>
      htim->Channel = HAL_TIM_ACTIVE_CHANNEL_CLEARED;
 8006af4:	2200      	movs	r2, #0
 8006af6:	6823      	ldr	r3, [r4, #0]
 8006af8:	7722      	strb	r2, [r4, #28]
 8006afa:	e7be      	b.n	8006a7a <HAL_TIM_IRQHandler+0x2a>
      __HAL_TIM_CLEAR_IT(htim, TIM_IT_CC2);
 8006afc:	f06f 0104 	mvn.w	r1, #4
      htim->Channel = HAL_TIM_ACTIVE_CHANNEL_2;
 8006b00:	2202      	movs	r2, #2
      __HAL_TIM_CLEAR_IT(htim, TIM_IT_CC2);
 8006b02:	6119      	str	r1, [r3, #16]
      if ((htim->Instance->CCMR1 & TIM_CCMR1_CC2S) != 0x00U)
 8006b04:	699b      	ldr	r3, [r3, #24]
        HAL_TIM_IC_CaptureCallback(htim);
 8006b06:	4620      	mov	r0, r4
      if ((htim->Instance->CCMR1 & TIM_CCMR1_CC2S) != 0x00U)
 8006b08:	f413 7f40 	tst.w	r3, #768	; 0x300
      htim->Channel = HAL_TIM_ACTIVE_CHANNEL_2;
 8006b0c:	7722      	strb	r2, [r4, #28]
      if ((htim->Instance->CCMR1 & TIM_CCMR1_CC2S) != 0x00U)
 8006b0e:	d13c      	bne.n	8006b8a <HAL_TIM_IRQHandler+0x13a>
        HAL_TIM_OC_DelayElapsedCallback(htim);
 8006b10:	f7ff ff96 	bl	8006a40 <HAL_TIM_OC_DelayElapsedCallback>
        HAL_TIM_PWM_PulseFinishedCallback(htim);
 8006b14:	4620      	mov	r0, r4
 8006b16:	f7ff ff97 	bl	8006a48 <HAL_TIM_PWM_PulseFinishedCallback>
      htim->Channel = HAL_TIM_ACTIVE_CHANNEL_CLEARED;
 8006b1a:	2200      	movs	r2, #0
 8006b1c:	6823      	ldr	r3, [r4, #0]
 8006b1e:	7722      	strb	r2, [r4, #28]
 8006b20:	e7a5      	b.n	8006a6e <HAL_TIM_IRQHandler+0x1e>
        __HAL_TIM_CLEAR_IT(htim, TIM_IT_CC1);
 8006b22:	f06f 0102 	mvn.w	r1, #2
        htim->Channel = HAL_TIM_ACTIVE_CHANNEL_1;
 8006b26:	2201      	movs	r2, #1
        __HAL_TIM_CLEAR_IT(htim, TIM_IT_CC1);
 8006b28:	6119      	str	r1, [r3, #16]
        if ((htim->Instance->CCMR1 & TIM_CCMR1_CC1S) != 0x00U)
 8006b2a:	699b      	ldr	r3, [r3, #24]
        htim->Channel = HAL_TIM_ACTIVE_CHANNEL_1;
 8006b2c:	7702      	strb	r2, [r0, #28]
        if ((htim->Instance->CCMR1 & TIM_CCMR1_CC1S) != 0x00U)
 8006b2e:	079b      	lsls	r3, r3, #30
 8006b30:	d025      	beq.n	8006b7e <HAL_TIM_IRQHandler+0x12e>
          HAL_TIM_IC_CaptureCallback(htim);
 8006b32:	f7ff ff87 	bl	8006a44 <HAL_TIM_IC_CaptureCallback>
        htim->Channel = HAL_TIM_ACTIVE_CHANNEL_CLEARED;
 8006b36:	2200      	movs	r2, #0
 8006b38:	6823      	ldr	r3, [r4, #0]
 8006b3a:	7722      	strb	r2, [r4, #28]
 8006b3c:	e791      	b.n	8006a62 <HAL_TIM_IRQHandler+0x12>
      __HAL_TIM_CLEAR_IT(htim, TIM_FLAG_COM);
 8006b3e:	f06f 0220 	mvn.w	r2, #32
      HAL_TIMEx_CommutCallback(htim);
 8006b42:	4620      	mov	r0, r4
}
 8006b44:	e8bd 4010 	ldmia.w	sp!, {r4, lr}
      __HAL_TIM_CLEAR_IT(htim, TIM_FLAG_COM);
 8006b48:	611a      	str	r2, [r3, #16]
      HAL_TIMEx_CommutCallback(htim);
 8006b4a:	f000 b84d 	b.w	8006be8 <HAL_TIMEx_CommutCallback>
      __HAL_TIM_CLEAR_IT(htim, TIM_IT_UPDATE);
 8006b4e:	f06f 0201 	mvn.w	r2, #1
      HAL_TIM_PeriodElapsedCallback(htim);
 8006b52:	4620      	mov	r0, r4
      __HAL_TIM_CLEAR_IT(htim, TIM_IT_UPDATE);
 8006b54:	611a      	str	r2, [r3, #16]
      HAL_TIM_PeriodElapsedCallback(htim);
 8006b56:	f7ff ff71 	bl	8006a3c <HAL_TIM_PeriodElapsedCallback>
 8006b5a:	6823      	ldr	r3, [r4, #0]
 8006b5c:	e799      	b.n	8006a92 <HAL_TIM_IRQHandler+0x42>
      __HAL_TIM_CLEAR_IT(htim, TIM_IT_BREAK);
 8006b5e:	f06f 0280 	mvn.w	r2, #128	; 0x80
      HAL_TIMEx_BreakCallback(htim);
 8006b62:	4620      	mov	r0, r4
      __HAL_TIM_CLEAR_IT(htim, TIM_IT_BREAK);
 8006b64:	611a      	str	r2, [r3, #16]
      HAL_TIMEx_BreakCallback(htim);
 8006b66:	f000 f841 	bl	8006bec <HAL_TIMEx_BreakCallback>
 8006b6a:	6823      	ldr	r3, [r4, #0]
 8006b6c:	e797      	b.n	8006a9e <HAL_TIM_IRQHandler+0x4e>
      __HAL_TIM_CLEAR_IT(htim, TIM_IT_TRIGGER);
 8006b6e:	f06f 0240 	mvn.w	r2, #64	; 0x40
      HAL_TIM_TriggerCallback(htim);
 8006b72:	4620      	mov	r0, r4
      __HAL_TIM_CLEAR_IT(htim, TIM_IT_TRIGGER);
 8006b74:	611a      	str	r2, [r3, #16]
      HAL_TIM_TriggerCallback(htim);
 8006b76:	f7ff ff69 	bl	8006a4c <HAL_TIM_TriggerCallback>
 8006b7a:	6823      	ldr	r3, [r4, #0]
 8006b7c:	e795      	b.n	8006aaa <HAL_TIM_IRQHandler+0x5a>
          HAL_TIM_OC_DelayElapsedCallback(htim);
 8006b7e:	f7ff ff5f 	bl	8006a40 <HAL_TIM_OC_DelayElapsedCallback>
          HAL_TIM_PWM_PulseFinishedCallback(htim);
 8006b82:	4620      	mov	r0, r4
 8006b84:	f7ff ff60 	bl	8006a48 <HAL_TIM_PWM_PulseFinishedCallback>
 8006b88:	e7d5      	b.n	8006b36 <HAL_TIM_IRQHandler+0xe6>
        HAL_TIM_IC_CaptureCallback(htim);
 8006b8a:	f7ff ff5b 	bl	8006a44 <HAL_TIM_IC_CaptureCallback>
 8006b8e:	e7c4      	b.n	8006b1a <HAL_TIM_IRQHandler+0xca>
        HAL_TIM_IC_CaptureCallback(htim);
 8006b90:	f7ff ff58 	bl	8006a44 <HAL_TIM_IC_CaptureCallback>
 8006b94:	e7ae      	b.n	8006af4 <HAL_TIM_IRQHandler+0xa4>
        HAL_TIM_OC_DelayElapsedCallback(htim);
 8006b96:	f7ff ff53 	bl	8006a40 <HAL_TIM_OC_DelayElapsedCallback>
        HAL_TIM_PWM_PulseFinishedCallback(htim);
 8006b9a:	4620      	mov	r0, r4
 8006b9c:	f7ff ff54 	bl	8006a48 <HAL_TIM_PWM_PulseFinishedCallback>
 8006ba0:	e796      	b.n	8006ad0 <HAL_TIM_IRQHandler+0x80>
 8006ba2:	bf00      	nop

08006ba4 <HAL_TIMEx_MasterConfigSynchronization>:
  assert_param(IS_TIM_SYNCHRO_INSTANCE(htim->Instance));
  assert_param(IS_TIM_TRGO_SOURCE(sMasterConfig->MasterOutputTrigger));
  assert_param(IS_TIM_MSM_STATE(sMasterConfig->MasterSlaveMode));

  /* Check input state */
  __HAL_LOCK(htim);
 8006ba4:	f890 203c 	ldrb.w	r2, [r0, #60]	; 0x3c
 8006ba8:	2a01      	cmp	r2, #1
 8006baa:	d01a      	beq.n	8006be2 <HAL_TIMEx_MasterConfigSynchronization+0x3e>

  /* Change the handler state */
  htim->State = HAL_TIM_STATE_BUSY;
 8006bac:	2202      	movs	r2, #2
{
 8006bae:	b4f0      	push	{r4, r5, r6, r7}
 8006bb0:	4603      	mov	r3, r0
  htim->Instance->SMCR = tmpsmcr;

  /* Change the htim state */
  htim->State = HAL_TIM_STATE_READY;

  __HAL_UNLOCK(htim);
 8006bb2:	2500      	movs	r5, #0
  htim->State = HAL_TIM_STATE_READY;
 8006bb4:	2601      	movs	r6, #1
  tmpcr2 = htim->Instance->CR2;
 8006bb6:	6804      	ldr	r4, [r0, #0]
  htim->State = HAL_TIM_STATE_BUSY;
 8006bb8:	f880 203d 	strb.w	r2, [r0, #61]	; 0x3d
  tmpcr2 = htim->Instance->CR2;
 8006bbc:	6860      	ldr	r0, [r4, #4]
  tmpsmcr |= sMasterConfig->MasterSlaveMode;
 8006bbe:	e9d1 2700 	ldrd	r2, r7, [r1]
  tmpcr2 &= ~TIM_CR2_MMS;
 8006bc2:	f020 0170 	bic.w	r1, r0, #112	; 0x70
  tmpcr2 |=  sMasterConfig->MasterOutputTrigger;
 8006bc6:	4311      	orrs	r1, r2
  tmpsmcr = htim->Instance->SMCR;
 8006bc8:	68a2      	ldr	r2, [r4, #8]

  return HAL_OK;
 8006bca:	4628      	mov	r0, r5
  tmpsmcr &= ~TIM_SMCR_MSM;
 8006bcc:	f022 0280 	bic.w	r2, r2, #128	; 0x80
  tmpsmcr |= sMasterConfig->MasterSlaveMode;
 8006bd0:	433a      	orrs	r2, r7
  htim->Instance->CR2 = tmpcr2;
 8006bd2:	6061      	str	r1, [r4, #4]
  htim->Instance->SMCR = tmpsmcr;
 8006bd4:	60a2      	str	r2, [r4, #8]
  htim->State = HAL_TIM_STATE_READY;
 8006bd6:	f883 603d 	strb.w	r6, [r3, #61]	; 0x3d
  __HAL_UNLOCK(htim);
 8006bda:	f883 503c 	strb.w	r5, [r3, #60]	; 0x3c
}
 8006bde:	bcf0      	pop	{r4, r5, r6, r7}
 8006be0:	4770      	bx	lr
  __HAL_LOCK(htim);
 8006be2:	2002      	movs	r0, #2
}
 8006be4:	4770      	bx	lr
 8006be6:	bf00      	nop

08006be8 <HAL_TIMEx_CommutCallback>:
 8006be8:	4770      	bx	lr
 8006bea:	bf00      	nop

08006bec <HAL_TIMEx_BreakCallback>:
 8006bec:	4770      	bx	lr
 8006bee:	bf00      	nop

08006bf0 <HAL_UART_Init>:
  * @retval HAL status
  */
HAL_StatusTypeDef HAL_UART_Init(UART_HandleTypeDef *huart)
{
  /* Check the UART handle allocation */
  if (huart == NULL)
 8006bf0:	2800      	cmp	r0, #0
 8006bf2:	d05e      	beq.n	8006cb2 <HAL_UART_Init+0xc2>
{
 8006bf4:	b538      	push	{r3, r4, r5, lr}
  assert_param(IS_UART_WORD_LENGTH(huart->Init.WordLength));
#if defined(USART_CR1_OVER8)
  assert_param(IS_UART_OVERSAMPLING(huart->Init.OverSampling));
#endif /* USART_CR1_OVER8 */

  if (huart->gState == HAL_UART_STATE_RESET)
 8006bf6:	f890 3039 	ldrb.w	r3, [r0, #57]	; 0x39
 8006bfa:	4604      	mov	r4, r0
 8006bfc:	f003 02ff 	and.w	r2, r3, #255	; 0xff
 8006c00:	2b00      	cmp	r3, #0
 8006c02:	d051      	beq.n	8006ca8 <HAL_UART_Init+0xb8>
    /* Init the low level hardware : GPIO, CLOCK */
    HAL_UART_MspInit(huart);
#endif /* (USE_HAL_UART_REGISTER_CALLBACKS) */
  }

  huart->gState = HAL_UART_STATE_BUSY;
 8006c04:	2224      	movs	r2, #36	; 0x24

  /* Disable the peripheral */
  __HAL_UART_DISABLE(huart);
 8006c06:	6823      	ldr	r3, [r4, #0]
  huart->gState = HAL_UART_STATE_BUSY;
 8006c08:	f884 2039 	strb.w	r2, [r4, #57]	; 0x39
  __HAL_UART_DISABLE(huart);
 8006c0c:	68da      	ldr	r2, [r3, #12]
  assert_param(IS_UART_MODE(huart->Init.Mode));

  /*-------------------------- USART CR2 Configuration -----------------------*/
  /* Configure the UART Stop Bits: Set STOP[13:12] bits
     according to huart->Init.StopBits value */
  MODIFY_REG(huart->Instance->CR2, USART_CR2_STOP, huart->Init.StopBits);
 8006c0e:	68e0      	ldr	r0, [r4, #12]
  __HAL_UART_DISABLE(huart);
 8006c10:	f422 5200 	bic.w	r2, r2, #8192	; 0x2000
 8006c14:	60da      	str	r2, [r3, #12]
  MODIFY_REG(huart->Instance->CR2, USART_CR2_STOP, huart->Init.StopBits);
 8006c16:	6919      	ldr	r1, [r3, #16]
  tmpreg = (uint32_t)huart->Init.WordLength | huart->Init.Parity | huart->Init.Mode | huart->Init.OverSampling;
  MODIFY_REG(huart->Instance->CR1,
             (uint32_t)(USART_CR1_M | USART_CR1_PCE | USART_CR1_PS | USART_CR1_TE | USART_CR1_RE | USART_CR1_OVER8),
             tmpreg);
#else
  tmpreg = (uint32_t)huart->Init.WordLength | huart->Init.Parity | huart->Init.Mode;
 8006c18:	68a2      	ldr	r2, [r4, #8]
  MODIFY_REG(huart->Instance->CR2, USART_CR2_STOP, huart->Init.StopBits);
 8006c1a:	f421 5140 	bic.w	r1, r1, #12288	; 0x3000
 8006c1e:	4301      	orrs	r1, r0
 8006c20:	6119      	str	r1, [r3, #16]
  MODIFY_REG(huart->Instance->CR1,
 8006c22:	68d9      	ldr	r1, [r3, #12]
  tmpreg = (uint32_t)huart->Init.WordLength | huart->Init.Parity | huart->Init.Mode;
 8006c24:	e9d4 5004 	ldrd	r5, r0, [r4, #16]
  MODIFY_REG(huart->Instance->CR1,
 8006c28:	f421 51b0 	bic.w	r1, r1, #5632	; 0x1600
  tmpreg = (uint32_t)huart->Init.WordLength | huart->Init.Parity | huart->Init.Mode;
 8006c2c:	432a      	orrs	r2, r5
  MODIFY_REG(huart->Instance->CR1,
 8006c2e:	f021 010c 	bic.w	r1, r1, #12
  tmpreg = (uint32_t)huart->Init.WordLength | huart->Init.Parity | huart->Init.Mode;
 8006c32:	4302      	orrs	r2, r0
  MODIFY_REG(huart->Instance->CR1,
 8006c34:	430a      	orrs	r2, r1
 8006c36:	60da      	str	r2, [r3, #12]
             tmpreg);
#endif /* USART_CR1_OVER8 */

  /*-------------------------- USART CR3 Configuration -----------------------*/
  /* Configure the UART HFC: Set CTSE and RTSE bits according to huart->Init.HwFlowCtl value */
  MODIFY_REG(huart->Instance->CR3, (USART_CR3_RTSE | USART_CR3_CTSE), huart->Init.HwFlowCtl);
 8006c38:	695a      	ldr	r2, [r3, #20]
 8006c3a:	69a0      	ldr	r0, [r4, #24]
      huart->Instance->BRR = UART_BRR_SAMPLING16(pclk, huart->Init.BaudRate);
    }
  }
#else
  /*-------------------------- USART BRR Configuration ---------------------*/
  if(huart->Instance == USART1)
 8006c3c:	491f      	ldr	r1, [pc, #124]	; (8006cbc <HAL_UART_Init+0xcc>)
  MODIFY_REG(huart->Instance->CR3, (USART_CR3_RTSE | USART_CR3_CTSE), huart->Init.HwFlowCtl);
 8006c3e:	f422 7240 	bic.w	r2, r2, #768	; 0x300
 8006c42:	4302      	orrs	r2, r0
  if(huart->Instance == USART1)
 8006c44:	428b      	cmp	r3, r1
  MODIFY_REG(huart->Instance->CR3, (USART_CR3_RTSE | USART_CR3_CTSE), huart->Init.HwFlowCtl);
 8006c46:	615a      	str	r2, [r3, #20]
  if(huart->Instance == USART1)
 8006c48:	d035      	beq.n	8006cb6 <HAL_UART_Init+0xc6>
    pclk = HAL_RCC_GetPCLK2Freq();
    huart->Instance->BRR = UART_BRR_SAMPLING16(pclk, huart->Init.BaudRate);
  }
  else
  {
    pclk = HAL_RCC_GetPCLK1Freq();
 8006c4a:	f7ff fd51 	bl	80066f0 <HAL_RCC_GetPCLK1Freq>
    huart->Instance->BRR = UART_BRR_SAMPLING16(pclk, huart->Init.BaudRate);
 8006c4e:	6862      	ldr	r2, [r4, #4]
 8006c50:	eb00 0080 	add.w	r0, r0, r0, lsl #2
 8006c54:	0092      	lsls	r2, r2, #2
 8006c56:	eb00 0080 	add.w	r0, r0, r0, lsl #2
 8006c5a:	fbb0 f0f2 	udiv	r0, r0, r2
 8006c5e:	2264      	movs	r2, #100	; 0x64
 8006c60:	4d17      	ldr	r5, [pc, #92]	; (8006cc0 <HAL_UART_Init+0xd0>)
 8006c62:	6823      	ldr	r3, [r4, #0]
 8006c64:	fba5 c100 	umull	ip, r1, r5, r0
 8006c68:	0949      	lsrs	r1, r1, #5
 8006c6a:	fb02 0211 	mls	r2, r2, r1, r0
 8006c6e:	0112      	lsls	r2, r2, #4
 8006c70:	3232      	adds	r2, #50	; 0x32
 8006c72:	fba5 0202 	umull	r0, r2, r5, r2
 8006c76:	0109      	lsls	r1, r1, #4
 8006c78:	eb01 1252 	add.w	r2, r1, r2, lsr #5
  huart->ErrorCode = HAL_UART_ERROR_NONE;
 8006c7c:	2500      	movs	r5, #0
  huart->gState = HAL_UART_STATE_READY;
 8006c7e:	2120      	movs	r1, #32
    huart->Instance->BRR = UART_BRR_SAMPLING16(pclk, huart->Init.BaudRate);
 8006c80:	609a      	str	r2, [r3, #8]
  CLEAR_BIT(huart->Instance->CR2, (USART_CR2_LINEN | USART_CR2_CLKEN));
 8006c82:	691a      	ldr	r2, [r3, #16]
  return HAL_OK;
 8006c84:	4628      	mov	r0, r5
  CLEAR_BIT(huart->Instance->CR2, (USART_CR2_LINEN | USART_CR2_CLKEN));
 8006c86:	f422 4290 	bic.w	r2, r2, #18432	; 0x4800
 8006c8a:	611a      	str	r2, [r3, #16]
  CLEAR_BIT(huart->Instance->CR3, (USART_CR3_SCEN | USART_CR3_HDSEL | USART_CR3_IREN));
 8006c8c:	695a      	ldr	r2, [r3, #20]
 8006c8e:	f022 022a 	bic.w	r2, r2, #42	; 0x2a
 8006c92:	615a      	str	r2, [r3, #20]
  __HAL_UART_ENABLE(huart);
 8006c94:	68da      	ldr	r2, [r3, #12]
 8006c96:	f442 5200 	orr.w	r2, r2, #8192	; 0x2000
 8006c9a:	60da      	str	r2, [r3, #12]
  huart->ErrorCode = HAL_UART_ERROR_NONE;
 8006c9c:	63e5      	str	r5, [r4, #60]	; 0x3c
  huart->gState = HAL_UART_STATE_READY;
 8006c9e:	f884 1039 	strb.w	r1, [r4, #57]	; 0x39
  huart->RxState = HAL_UART_STATE_READY;
 8006ca2:	f884 103a 	strb.w	r1, [r4, #58]	; 0x3a
}
 8006ca6:	bd38      	pop	{r3, r4, r5, pc}
    huart->Lock = HAL_UNLOCKED;
 8006ca8:	f880 2038 	strb.w	r2, [r0, #56]	; 0x38
    HAL_UART_MspInit(huart);
 8006cac:	f7fb fe76 	bl	800299c <HAL_UART_MspInit>
 8006cb0:	e7a8      	b.n	8006c04 <HAL_UART_Init+0x14>
    return HAL_ERROR;
 8006cb2:	2001      	movs	r0, #1
}
 8006cb4:	4770      	bx	lr
    pclk = HAL_RCC_GetPCLK2Freq();
 8006cb6:	f7ff fd2b 	bl	8006710 <HAL_RCC_GetPCLK2Freq>
 8006cba:	e7c8      	b.n	8006c4e <HAL_UART_Init+0x5e>
 8006cbc:	40013800 	.word	0x40013800
 8006cc0:	51eb851f 	.word	0x51eb851f

08006cc4 <HAL_UART_Receive_DMA>:
{
 8006cc4:	b570      	push	{r4, r5, r6, lr}
  if (huart->RxState == HAL_UART_STATE_READY)
 8006cc6:	f890 403a 	ldrb.w	r4, [r0, #58]	; 0x3a
{
 8006cca:	b082      	sub	sp, #8
  if (huart->RxState == HAL_UART_STATE_READY)
 8006ccc:	2c20      	cmp	r4, #32
 8006cce:	d138      	bne.n	8006d42 <HAL_UART_Receive_DMA+0x7e>
    if ((pData == NULL) || (Size == 0U))
 8006cd0:	2900      	cmp	r1, #0
 8006cd2:	d039      	beq.n	8006d48 <HAL_UART_Receive_DMA+0x84>
 8006cd4:	2a00      	cmp	r2, #0
 8006cd6:	d037      	beq.n	8006d48 <HAL_UART_Receive_DMA+0x84>
    __HAL_LOCK(huart);
 8006cd8:	f890 3038 	ldrb.w	r3, [r0, #56]	; 0x38
 8006cdc:	2b01      	cmp	r3, #1
 8006cde:	d030      	beq.n	8006d42 <HAL_UART_Receive_DMA+0x7e>
 8006ce0:	4604      	mov	r4, r0
    huart->ErrorCode = HAL_UART_ERROR_NONE;
 8006ce2:	2500      	movs	r5, #0
 8006ce4:	4613      	mov	r3, r2
    __HAL_LOCK(huart);
 8006ce6:	2601      	movs	r6, #1
 8006ce8:	460a      	mov	r2, r1
    huart->RxState = HAL_UART_STATE_BUSY_RX;
 8006cea:	2122      	movs	r1, #34	; 0x22
    huart->hdmarx->XferCpltCallback = UART_DMAReceiveCplt;
 8006cec:	6b40      	ldr	r0, [r0, #52]	; 0x34
    huart->ErrorCode = HAL_UART_ERROR_NONE;
 8006cee:	63e5      	str	r5, [r4, #60]	; 0x3c
    __HAL_LOCK(huart);
 8006cf0:	f884 6038 	strb.w	r6, [r4, #56]	; 0x38
    huart->RxState = HAL_UART_STATE_BUSY_RX;
 8006cf4:	f884 103a 	strb.w	r1, [r4, #58]	; 0x3a
    huart->hdmarx->XferCpltCallback = UART_DMAReceiveCplt;
 8006cf8:	4e15      	ldr	r6, [pc, #84]	; (8006d50 <HAL_UART_Receive_DMA+0x8c>)
    huart->hdmarx->XferHalfCpltCallback = UART_DMARxHalfCplt;
 8006cfa:	4916      	ldr	r1, [pc, #88]	; (8006d54 <HAL_UART_Receive_DMA+0x90>)
    huart->pRxBuffPtr = pData;
 8006cfc:	62a2      	str	r2, [r4, #40]	; 0x28
    huart->RxXferSize = Size;
 8006cfe:	85a3      	strh	r3, [r4, #44]	; 0x2c
    huart->hdmarx->XferCpltCallback = UART_DMAReceiveCplt;
 8006d00:	6286      	str	r6, [r0, #40]	; 0x28
    huart->hdmarx->XferHalfCpltCallback = UART_DMARxHalfCplt;
 8006d02:	62c1      	str	r1, [r0, #44]	; 0x2c
    huart->hdmarx->XferErrorCallback = UART_DMAError;
 8006d04:	4e14      	ldr	r6, [pc, #80]	; (8006d58 <HAL_UART_Receive_DMA+0x94>)
    HAL_DMA_Start_IT(huart->hdmarx, (uint32_t)&huart->Instance->DR, *(uint32_t *)tmp, Size);
 8006d06:	6821      	ldr	r1, [r4, #0]
    huart->hdmarx->XferAbortCallback = NULL;
 8006d08:	6345      	str	r5, [r0, #52]	; 0x34
    huart->hdmarx->XferErrorCallback = UART_DMAError;
 8006d0a:	6306      	str	r6, [r0, #48]	; 0x30
    HAL_DMA_Start_IT(huart->hdmarx, (uint32_t)&huart->Instance->DR, *(uint32_t *)tmp, Size);
 8006d0c:	3104      	adds	r1, #4
 8006d0e:	f7fd fe75 	bl	80049fc <HAL_DMA_Start_IT>
    return HAL_OK;
 8006d12:	4628      	mov	r0, r5
    __HAL_UART_CLEAR_OREFLAG(huart);
 8006d14:	6823      	ldr	r3, [r4, #0]
 8006d16:	9501      	str	r5, [sp, #4]
 8006d18:	681a      	ldr	r2, [r3, #0]
 8006d1a:	9201      	str	r2, [sp, #4]
 8006d1c:	685a      	ldr	r2, [r3, #4]
    __HAL_UNLOCK(huart);
 8006d1e:	f884 5038 	strb.w	r5, [r4, #56]	; 0x38
    __HAL_UART_CLEAR_OREFLAG(huart);
 8006d22:	9201      	str	r2, [sp, #4]
 8006d24:	9a01      	ldr	r2, [sp, #4]
    SET_BIT(huart->Instance->CR1, USART_CR1_PEIE);
 8006d26:	68da      	ldr	r2, [r3, #12]
 8006d28:	f442 7280 	orr.w	r2, r2, #256	; 0x100
 8006d2c:	60da      	str	r2, [r3, #12]
    SET_BIT(huart->Instance->CR3, USART_CR3_EIE);
 8006d2e:	695a      	ldr	r2, [r3, #20]
 8006d30:	f042 0201 	orr.w	r2, r2, #1
 8006d34:	615a      	str	r2, [r3, #20]
    SET_BIT(huart->Instance->CR3, USART_CR3_DMAR);
 8006d36:	695a      	ldr	r2, [r3, #20]
 8006d38:	f042 0240 	orr.w	r2, r2, #64	; 0x40
 8006d3c:	615a      	str	r2, [r3, #20]
}
 8006d3e:	b002      	add	sp, #8
 8006d40:	bd70      	pop	{r4, r5, r6, pc}
    return HAL_BUSY;
 8006d42:	2002      	movs	r0, #2
}
 8006d44:	b002      	add	sp, #8
 8006d46:	bd70      	pop	{r4, r5, r6, pc}
      return HAL_ERROR;
 8006d48:	2001      	movs	r0, #1
}
 8006d4a:	b002      	add	sp, #8
 8006d4c:	bd70      	pop	{r4, r5, r6, pc}
 8006d4e:	bf00      	nop
 8006d50:	08006d61 	.word	0x08006d61
 8006d54:	08006d9d 	.word	0x08006d9d
 8006d58:	08006dad 	.word	0x08006dad

08006d5c <HAL_UART_RxCpltCallback>:
 8006d5c:	4770      	bx	lr
 8006d5e:	bf00      	nop

08006d60 <UART_DMAReceiveCplt>:
{
 8006d60:	b508      	push	{r3, lr}
  if ((hdma->Instance->CCR & DMA_CCR_CIRC) == 0U)
 8006d62:	6803      	ldr	r3, [r0, #0]
  UART_HandleTypeDef *huart = (UART_HandleTypeDef *)((DMA_HandleTypeDef *)hdma)->Parent;
 8006d64:	6a40      	ldr	r0, [r0, #36]	; 0x24
  if ((hdma->Instance->CCR & DMA_CCR_CIRC) == 0U)
 8006d66:	681b      	ldr	r3, [r3, #0]
 8006d68:	f013 0320 	ands.w	r3, r3, #32
 8006d6c:	d110      	bne.n	8006d90 <UART_DMAReceiveCplt+0x30>
    huart->RxState = HAL_UART_STATE_READY;
 8006d6e:	2120      	movs	r1, #32
    CLEAR_BIT(huart->Instance->CR1, USART_CR1_PEIE);
 8006d70:	6802      	ldr	r2, [r0, #0]
    huart->RxXferCount = 0U;
 8006d72:	85c3      	strh	r3, [r0, #46]	; 0x2e
    CLEAR_BIT(huart->Instance->CR1, USART_CR1_PEIE);
 8006d74:	68d3      	ldr	r3, [r2, #12]
 8006d76:	f423 7380 	bic.w	r3, r3, #256	; 0x100
 8006d7a:	60d3      	str	r3, [r2, #12]
    CLEAR_BIT(huart->Instance->CR3, USART_CR3_EIE);
 8006d7c:	6953      	ldr	r3, [r2, #20]
 8006d7e:	f023 0301 	bic.w	r3, r3, #1
 8006d82:	6153      	str	r3, [r2, #20]
    CLEAR_BIT(huart->Instance->CR3, USART_CR3_DMAR);
 8006d84:	6953      	ldr	r3, [r2, #20]
 8006d86:	f023 0340 	bic.w	r3, r3, #64	; 0x40
 8006d8a:	6153      	str	r3, [r2, #20]
    huart->RxState = HAL_UART_STATE_READY;
 8006d8c:	f880 103a 	strb.w	r1, [r0, #58]	; 0x3a
  HAL_UART_RxCpltCallback(huart);
 8006d90:	f7ff ffe4 	bl	8006d5c <HAL_UART_RxCpltCallback>
}
 8006d94:	bd08      	pop	{r3, pc}
 8006d96:	bf00      	nop

08006d98 <HAL_UART_RxHalfCpltCallback>:
 8006d98:	4770      	bx	lr
 8006d9a:	bf00      	nop

08006d9c <UART_DMARxHalfCplt>:
{
 8006d9c:	b508      	push	{r3, lr}
  HAL_UART_RxHalfCpltCallback(huart);
 8006d9e:	6a40      	ldr	r0, [r0, #36]	; 0x24
 8006da0:	f7ff fffa 	bl	8006d98 <HAL_UART_RxHalfCpltCallback>
}
 8006da4:	bd08      	pop	{r3, pc}
 8006da6:	bf00      	nop

08006da8 <HAL_UART_ErrorCallback>:
 8006da8:	4770      	bx	lr
 8006daa:	bf00      	nop

08006dac <UART_DMAError>:
{
 8006dac:	b508      	push	{r3, lr}
  UART_HandleTypeDef *huart = (UART_HandleTypeDef *)((DMA_HandleTypeDef *)hdma)->Parent;
 8006dae:	6a43      	ldr	r3, [r0, #36]	; 0x24
  dmarequest = HAL_IS_BIT_SET(huart->Instance->CR3, USART_CR3_DMAT);
 8006db0:	681a      	ldr	r2, [r3, #0]
 8006db2:	6950      	ldr	r0, [r2, #20]
  if ((huart->gState == HAL_UART_STATE_BUSY_TX) && dmarequest)
 8006db4:	f893 1039 	ldrb.w	r1, [r3, #57]	; 0x39
 8006db8:	2921      	cmp	r1, #33	; 0x21
 8006dba:	d01c      	beq.n	8006df6 <UART_DMAError+0x4a>
  dmarequest = HAL_IS_BIT_SET(huart->Instance->CR3, USART_CR3_DMAR);
 8006dbc:	6950      	ldr	r0, [r2, #20]
  if ((huart->RxState == HAL_UART_STATE_BUSY_RX) && dmarequest)
 8006dbe:	f893 103a 	ldrb.w	r1, [r3, #58]	; 0x3a
 8006dc2:	2922      	cmp	r1, #34	; 0x22
 8006dc4:	d007      	beq.n	8006dd6 <UART_DMAError+0x2a>
  huart->ErrorCode |= HAL_UART_ERROR_DMA;
 8006dc6:	6bda      	ldr	r2, [r3, #60]	; 0x3c
  HAL_UART_ErrorCallback(huart);
 8006dc8:	4618      	mov	r0, r3
  huart->ErrorCode |= HAL_UART_ERROR_DMA;
 8006dca:	f042 0210 	orr.w	r2, r2, #16
 8006dce:	63da      	str	r2, [r3, #60]	; 0x3c
  HAL_UART_ErrorCallback(huart);
 8006dd0:	f7ff ffea 	bl	8006da8 <HAL_UART_ErrorCallback>
}
 8006dd4:	bd08      	pop	{r3, pc}
  if ((huart->RxState == HAL_UART_STATE_BUSY_RX) && dmarequest)
 8006dd6:	0641      	lsls	r1, r0, #25
 8006dd8:	d5f5      	bpl.n	8006dc6 <UART_DMAError+0x1a>
    huart->RxXferCount = 0x00U;
 8006dda:	2100      	movs	r1, #0
  huart->RxState = HAL_UART_STATE_READY;
 8006ddc:	2020      	movs	r0, #32
    huart->RxXferCount = 0x00U;
 8006dde:	85d9      	strh	r1, [r3, #46]	; 0x2e
  CLEAR_BIT(huart->Instance->CR1, (USART_CR1_RXNEIE | USART_CR1_PEIE));
 8006de0:	68d1      	ldr	r1, [r2, #12]
 8006de2:	f421 7190 	bic.w	r1, r1, #288	; 0x120
 8006de6:	60d1      	str	r1, [r2, #12]
  CLEAR_BIT(huart->Instance->CR3, USART_CR3_EIE);
 8006de8:	6951      	ldr	r1, [r2, #20]
 8006dea:	f021 0101 	bic.w	r1, r1, #1
 8006dee:	6151      	str	r1, [r2, #20]
  huart->RxState = HAL_UART_STATE_READY;
 8006df0:	f883 003a 	strb.w	r0, [r3, #58]	; 0x3a
 8006df4:	e7e7      	b.n	8006dc6 <UART_DMAError+0x1a>
  if ((huart->gState == HAL_UART_STATE_BUSY_TX) && dmarequest)
 8006df6:	0600      	lsls	r0, r0, #24
 8006df8:	d5e0      	bpl.n	8006dbc <UART_DMAError+0x10>
    huart->TxXferCount = 0x00U;
 8006dfa:	2100      	movs	r1, #0
  huart->gState = HAL_UART_STATE_READY;
 8006dfc:	2020      	movs	r0, #32
    huart->TxXferCount = 0x00U;
 8006dfe:	84d9      	strh	r1, [r3, #38]	; 0x26
  CLEAR_BIT(huart->Instance->CR1, (USART_CR1_TXEIE | USART_CR1_TCIE));
 8006e00:	68d1      	ldr	r1, [r2, #12]
 8006e02:	f021 01c0 	bic.w	r1, r1, #192	; 0xc0
 8006e06:	60d1      	str	r1, [r2, #12]
  huart->gState = HAL_UART_STATE_READY;
 8006e08:	f883 0039 	strb.w	r0, [r3, #57]	; 0x39
 8006e0c:	e7d6      	b.n	8006dbc <UART_DMAError+0x10>
 8006e0e:	bf00      	nop

08006e10 <USB_CoreInit>:
  * @param  cfg : pointer to a USB_CfgTypeDef structure that contains
  *         the configuration information for the specified USBx peripheral.
  * @retval HAL status
  */
HAL_StatusTypeDef USB_CoreInit(USB_TypeDef *USBx, USB_CfgTypeDef cfg)
{
 8006e10:	b084      	sub	sp, #16
 8006e12:	a801      	add	r0, sp, #4
 8006e14:	e880 000e 	stmia.w	r0, {r1, r2, r3}
              only by USB OTG FS peripheral.
            - This function is added to ensure compatibility across platforms.
   */

  return HAL_OK;
}
 8006e18:	b004      	add	sp, #16
 8006e1a:	2000      	movs	r0, #0
 8006e1c:	4770      	bx	lr
 8006e1e:	bf00      	nop

08006e20 <USB_EnableGlobalInt>:
  *         Enables the controller's Global Int in the AHB Config reg
  * @param  USBx : Selected device
  * @retval HAL status
  */
HAL_StatusTypeDef USB_EnableGlobalInt(USB_TypeDef *USBx)
{
 8006e20:	4602      	mov	r2, r0
                   USB_CNTR_SUSPM | USB_CNTR_ERRM |
                   USB_CNTR_SOFM | USB_CNTR_ESOFM |
                   USB_CNTR_RESETM;

  /* Set interrupt mask */
  USBx->CNTR |= winterruptmask;
 8006e22:	f8b0 3040 	ldrh.w	r3, [r0, #64]	; 0x40

  return HAL_OK;
}
 8006e26:	2000      	movs	r0, #0
  USBx->CNTR |= winterruptmask;
 8006e28:	f443 433f 	orr.w	r3, r3, #48896	; 0xbf00
 8006e2c:	f8a2 3040 	strh.w	r3, [r2, #64]	; 0x40
}
 8006e30:	4770      	bx	lr
 8006e32:	bf00      	nop

08006e34 <USB_DisableGlobalInt>:
                   USB_CNTR_SUSPM | USB_CNTR_ERRM |
                   USB_CNTR_SOFM | USB_CNTR_ESOFM |
                   USB_CNTR_RESETM;

  /* Clear interrupt mask */
  USBx->CNTR &= ~winterruptmask;
 8006e34:	f244 03ff 	movw	r3, #16639	; 0x40ff
{
 8006e38:	4602      	mov	r2, r0
  USBx->CNTR &= ~winterruptmask;
 8006e3a:	f8b0 1040 	ldrh.w	r1, [r0, #64]	; 0x40

  return HAL_OK;
}
 8006e3e:	2000      	movs	r0, #0
  USBx->CNTR &= ~winterruptmask;
 8006e40:	400b      	ands	r3, r1
 8006e42:	f8a2 3040 	strh.w	r3, [r2, #64]	; 0x40
}
 8006e46:	4770      	bx	lr

08006e48 <USB_SetCurrentMode>:
  /* NOTE : - This function is not required by USB Device FS peripheral, it is used
              only by USB OTG FS peripheral.
            - This function is added to ensure compatibility across platforms.
   */
  return HAL_OK;
}
 8006e48:	2000      	movs	r0, #0
 8006e4a:	4770      	bx	lr

08006e4c <USB_DevInit>:
  * @param  cfg  : pointer to a USB_CfgTypeDef structure that contains
  *         the configuration information for the specified USBx peripheral.
  * @retval HAL status
  */
HAL_StatusTypeDef USB_DevInit(USB_TypeDef *USBx, USB_CfgTypeDef cfg)
{
 8006e4c:	b084      	sub	sp, #16
 8006e4e:	b470      	push	{r4, r5, r6}
 8006e50:	4604      	mov	r4, r0
  /* Prevent unused argument(s) compilation warning */
  UNUSED(cfg);

  /* Init Device */
  /*CNTR_FRES = 1*/
  USBx->CNTR = USB_CNTR_FRES;
 8006e52:	2501      	movs	r5, #1

  /*CNTR_FRES = 0*/
  USBx->CNTR = 0;
 8006e54:	2000      	movs	r0, #0
  USBx->CNTR = USB_CNTR_FRES;
 8006e56:	f8a4 5040 	strh.w	r5, [r4, #64]	; 0x40
  USBx->CNTR = 0;
 8006e5a:	f8a4 0040 	strh.w	r0, [r4, #64]	; 0x40

  /*Clear pending interrupts*/
  USBx->ISTR = 0;
 8006e5e:	f8a4 0044 	strh.w	r0, [r4, #68]	; 0x44

  /*Set Btable Address*/
  USBx->BTABLE = BTABLE_ADDRESS;
 8006e62:	f8a4 0050 	strh.w	r0, [r4, #80]	; 0x50
  USBx->CNTR |= winterruptmask;
 8006e66:	f8b4 6040 	ldrh.w	r6, [r4, #64]	; 0x40
{
 8006e6a:	ad04      	add	r5, sp, #16
  USBx->CNTR |= winterruptmask;
 8006e6c:	f446 463f 	orr.w	r6, r6, #48896	; 0xbf00
 8006e70:	f8a4 6040 	strh.w	r6, [r4, #64]	; 0x40
{
 8006e74:	e885 000e 	stmia.w	r5, {r1, r2, r3}

  /* Enable USB Device Interrupt mask */
  (void)USB_EnableGlobalInt(USBx);

  return HAL_OK;
}
 8006e78:	bc70      	pop	{r4, r5, r6}
 8006e7a:	b004      	add	sp, #16
 8006e7c:	4770      	bx	lr
 8006e7e:	bf00      	nop

08006e80 <USB_ActivateEndpoint>:
  * @param  USBx : Selected device
  * @param  ep: pointer to endpoint structure
  * @retval HAL status
  */
HAL_StatusTypeDef USB_ActivateEndpoint(USB_TypeDef *USBx, USB_EPTypeDef *ep)
{
 8006e80:	b470      	push	{r4, r5, r6}
  HAL_StatusTypeDef ret = HAL_OK;
  uint16_t wEpRegVal;

  wEpRegVal = PCD_GET_ENDPOINT(USBx, ep->num) & USB_EP_T_MASK;
 8006e82:	780d      	ldrb	r5, [r1, #0]
{
 8006e84:	4603      	mov	r3, r0
  wEpRegVal = PCD_GET_ENDPOINT(USBx, ep->num) & USB_EP_T_MASK;
 8006e86:	f830 4025 	ldrh.w	r4, [r0, r5, lsl #2]
 8006e8a:	4abc      	ldr	r2, [pc, #752]	; (800717c <USB_ActivateEndpoint+0x2fc>)

  /* initialize Endpoint */
  switch (ep->type)
 8006e8c:	78c8      	ldrb	r0, [r1, #3]
  wEpRegVal = PCD_GET_ENDPOINT(USBx, ep->num) & USB_EP_T_MASK;
 8006e8e:	4022      	ands	r2, r4
  switch (ep->type)
 8006e90:	2803      	cmp	r0, #3
 8006e92:	f200 8142 	bhi.w	800711a <USB_ActivateEndpoint+0x29a>
 8006e96:	e8df f000 	tbb	[pc, r0]
 8006e9a:	464e      	.short	0x464e
 8006e9c:	4a02      	.short	0x4a02
  HAL_StatusTypeDef ret = HAL_OK;
 8006e9e:	2000      	movs	r0, #0
    default:
      ret = HAL_ERROR;
      break;
  }

  PCD_SET_ENDPOINT(USBx, ep->num, wEpRegVal | USB_EP_CTR_RX | USB_EP_CTR_TX);
 8006ea0:	f248 0480 	movw	r4, #32896	; 0x8080
 8006ea4:	4322      	orrs	r2, r4
 8006ea6:	f823 2025 	strh.w	r2, [r3, r5, lsl #2]

  PCD_SET_EP_ADDRESS(USBx, ep->num, ep->num);
 8006eaa:	780d      	ldrb	r5, [r1, #0]
 8006eac:	4eb4      	ldr	r6, [pc, #720]	; (8007180 <USB_ActivateEndpoint+0x300>)
 8006eae:	f833 2025 	ldrh.w	r2, [r3, r5, lsl #2]
 8006eb2:	432c      	orrs	r4, r5
 8006eb4:	4032      	ands	r2, r6
 8006eb6:	4322      	orrs	r2, r4
 8006eb8:	f823 2025 	strh.w	r2, [r3, r5, lsl #2]

  if (ep->doublebuffer == 0U)
 8006ebc:	7b0a      	ldrb	r2, [r1, #12]
 8006ebe:	2a00      	cmp	r2, #0
 8006ec0:	d13d      	bne.n	8006f3e <USB_ActivateEndpoint+0xbe>
 8006ec2:	88cc      	ldrh	r4, [r1, #6]
 8006ec4:	780a      	ldrb	r2, [r1, #0]
  {
    if (ep->is_in != 0U)
 8006ec6:	784d      	ldrb	r5, [r1, #1]
 8006ec8:	0864      	lsrs	r4, r4, #1
 8006eca:	0064      	lsls	r4, r4, #1
 8006ecc:	eb03 1202 	add.w	r2, r3, r2, lsl #4
 8006ed0:	2d00      	cmp	r5, #0
 8006ed2:	f000 80e8 	beq.w	80070a6 <USB_ActivateEndpoint+0x226>
    {
      /*Set the endpoint Transmit buffer address */
      PCD_SET_EP_TX_ADDRESS(USBx, ep->num, ep->pmaadress);
 8006ed6:	f8b3 5050 	ldrh.w	r5, [r3, #80]	; 0x50
 8006eda:	442a      	add	r2, r5
 8006edc:	f8a2 4400 	strh.w	r4, [r2, #1024]	; 0x400
      PCD_CLEAR_TX_DTOG(USBx, ep->num);
 8006ee0:	780a      	ldrb	r2, [r1, #0]
 8006ee2:	f833 5022 	ldrh.w	r5, [r3, r2, lsl #2]
 8006ee6:	eb03 0482 	add.w	r4, r3, r2, lsl #2
 8006eea:	066d      	lsls	r5, r5, #25
 8006eec:	d50b      	bpl.n	8006f06 <USB_ActivateEndpoint+0x86>
 8006eee:	f833 4022 	ldrh.w	r4, [r3, r2, lsl #2]
 8006ef2:	4026      	ands	r6, r4
 8006ef4:	f446 4600 	orr.w	r6, r6, #32768	; 0x8000
 8006ef8:	f046 06c0 	orr.w	r6, r6, #192	; 0xc0
 8006efc:	f823 6022 	strh.w	r6, [r3, r2, lsl #2]
 8006f00:	780c      	ldrb	r4, [r1, #0]
 8006f02:	eb03 0484 	add.w	r4, r3, r4, lsl #2

      if (ep->type != EP_TYPE_ISOC)
 8006f06:	78cb      	ldrb	r3, [r1, #3]
 8006f08:	2b01      	cmp	r3, #1
 8006f0a:	f000 8120 	beq.w	800714e <USB_ActivateEndpoint+0x2ce>
      {
        /* Configure NAK status for the Endpoint */
        PCD_SET_EP_TX_STATUS(USBx, ep->num, USB_EP_TX_NAK);
 8006f0e:	8822      	ldrh	r2, [r4, #0]
 8006f10:	4b9c      	ldr	r3, [pc, #624]	; (8007184 <USB_ActivateEndpoint+0x304>)
 8006f12:	4013      	ands	r3, r2
 8006f14:	f083 0320 	eor.w	r3, r3, #32
 8006f18:	f443 4300 	orr.w	r3, r3, #32768	; 0x8000
 8006f1c:	f043 0380 	orr.w	r3, r3, #128	; 0x80
 8006f20:	8023      	strh	r3, [r4, #0]
      PCD_SET_EP_RX_STATUS(USBx, ep->num, USB_EP_RX_DIS);
    }
  }

  return ret;
}
 8006f22:	bc70      	pop	{r4, r5, r6}
 8006f24:	4770      	bx	lr
      wEpRegVal |= USB_EP_ISOCHRONOUS;
 8006f26:	f442 6280 	orr.w	r2, r2, #1024	; 0x400
  HAL_StatusTypeDef ret = HAL_OK;
 8006f2a:	2000      	movs	r0, #0
      break;
 8006f2c:	e7b8      	b.n	8006ea0 <USB_ActivateEndpoint+0x20>
      wEpRegVal |= USB_EP_INTERRUPT;
 8006f2e:	f442 62c0 	orr.w	r2, r2, #1536	; 0x600
  HAL_StatusTypeDef ret = HAL_OK;
 8006f32:	2000      	movs	r0, #0
      break;
 8006f34:	e7b4      	b.n	8006ea0 <USB_ActivateEndpoint+0x20>
      wEpRegVal |= USB_EP_CONTROL;
 8006f36:	f442 7200 	orr.w	r2, r2, #512	; 0x200
  HAL_StatusTypeDef ret = HAL_OK;
 8006f3a:	2000      	movs	r0, #0
      break;
 8006f3c:	e7b0      	b.n	8006ea0 <USB_ActivateEndpoint+0x20>
    PCD_SET_EP_DBUF(USBx, ep->num);
 8006f3e:	780c      	ldrb	r4, [r1, #0]
 8006f40:	f833 2024 	ldrh.w	r2, [r3, r4, lsl #2]
 8006f44:	4032      	ands	r2, r6
 8006f46:	f442 4201 	orr.w	r2, r2, #33024	; 0x8100
 8006f4a:	f042 0280 	orr.w	r2, r2, #128	; 0x80
 8006f4e:	f823 2024 	strh.w	r2, [r3, r4, lsl #2]
    PCD_SET_EP_DBUF_ADDR(USBx, ep->num, ep->pmaaddr0, ep->pmaaddr1);
 8006f52:	780a      	ldrb	r2, [r1, #0]
 8006f54:	890c      	ldrh	r4, [r1, #8]
 8006f56:	f8b3 5050 	ldrh.w	r5, [r3, #80]	; 0x50
 8006f5a:	eb03 1202 	add.w	r2, r3, r2, lsl #4
 8006f5e:	0864      	lsrs	r4, r4, #1
 8006f60:	f502 6280 	add.w	r2, r2, #1024	; 0x400
 8006f64:	0064      	lsls	r4, r4, #1
 8006f66:	b2ad      	uxth	r5, r5
 8006f68:	5354      	strh	r4, [r2, r5]
 8006f6a:	780a      	ldrb	r2, [r1, #0]
 8006f6c:	894c      	ldrh	r4, [r1, #10]
 8006f6e:	f8b3 5050 	ldrh.w	r5, [r3, #80]	; 0x50
 8006f72:	eb03 1202 	add.w	r2, r3, r2, lsl #4
 8006f76:	0864      	lsrs	r4, r4, #1
 8006f78:	f502 6281 	add.w	r2, r2, #1032	; 0x408
 8006f7c:	0064      	lsls	r4, r4, #1
 8006f7e:	b2ad      	uxth	r5, r5
 8006f80:	5354      	strh	r4, [r2, r5]
    if (ep->is_in == 0U)
 8006f82:	784a      	ldrb	r2, [r1, #1]
 8006f84:	2a00      	cmp	r2, #0
 8006f86:	d142      	bne.n	800700e <USB_ActivateEndpoint+0x18e>
      PCD_CLEAR_RX_DTOG(USBx, ep->num);
 8006f88:	780a      	ldrb	r2, [r1, #0]
 8006f8a:	f833 5022 	ldrh.w	r5, [r3, r2, lsl #2]
 8006f8e:	eb03 0482 	add.w	r4, r3, r2, lsl #2
 8006f92:	046d      	lsls	r5, r5, #17
 8006f94:	d50b      	bpl.n	8006fae <USB_ActivateEndpoint+0x12e>
 8006f96:	f833 4022 	ldrh.w	r4, [r3, r2, lsl #2]
 8006f9a:	4026      	ands	r6, r4
 8006f9c:	f446 4640 	orr.w	r6, r6, #49152	; 0xc000
 8006fa0:	f046 0680 	orr.w	r6, r6, #128	; 0x80
 8006fa4:	f823 6022 	strh.w	r6, [r3, r2, lsl #2]
 8006fa8:	780c      	ldrb	r4, [r1, #0]
 8006faa:	eb03 0484 	add.w	r4, r3, r4, lsl #2
      PCD_CLEAR_TX_DTOG(USBx, ep->num);
 8006fae:	8822      	ldrh	r2, [r4, #0]
 8006fb0:	0656      	lsls	r6, r2, #25
 8006fb2:	d50c      	bpl.n	8006fce <USB_ActivateEndpoint+0x14e>
 8006fb4:	8822      	ldrh	r2, [r4, #0]
 8006fb6:	f022 02f0 	bic.w	r2, r2, #240	; 0xf0
 8006fba:	0512      	lsls	r2, r2, #20
 8006fbc:	0d12      	lsrs	r2, r2, #20
 8006fbe:	f442 4200 	orr.w	r2, r2, #32768	; 0x8000
 8006fc2:	f042 02c0 	orr.w	r2, r2, #192	; 0xc0
 8006fc6:	8022      	strh	r2, [r4, #0]
 8006fc8:	780c      	ldrb	r4, [r1, #0]
 8006fca:	eb03 0484 	add.w	r4, r3, r4, lsl #2
      PCD_SET_EP_RX_STATUS(USBx, ep->num, USB_EP_RX_VALID);
 8006fce:	f248 0680 	movw	r6, #32896	; 0x8080
      PCD_TX_DTOG(USBx, ep->num);
 8006fd2:	8822      	ldrh	r2, [r4, #0]
      PCD_SET_EP_RX_STATUS(USBx, ep->num, USB_EP_RX_VALID);
 8006fd4:	4d6c      	ldr	r5, [pc, #432]	; (8007188 <USB_ActivateEndpoint+0x308>)
      PCD_TX_DTOG(USBx, ep->num);
 8006fd6:	f022 02f0 	bic.w	r2, r2, #240	; 0xf0
 8006fda:	0512      	lsls	r2, r2, #20
 8006fdc:	0d12      	lsrs	r2, r2, #20
 8006fde:	f442 4200 	orr.w	r2, r2, #32768	; 0x8000
 8006fe2:	f042 02c0 	orr.w	r2, r2, #192	; 0xc0
 8006fe6:	8022      	strh	r2, [r4, #0]
      PCD_SET_EP_RX_STATUS(USBx, ep->num, USB_EP_RX_VALID);
 8006fe8:	780c      	ldrb	r4, [r1, #0]
 8006fea:	f833 2024 	ldrh.w	r2, [r3, r4, lsl #2]
 8006fee:	402a      	ands	r2, r5
 8006ff0:	f482 5240 	eor.w	r2, r2, #12288	; 0x3000
 8006ff4:	4332      	orrs	r2, r6
 8006ff6:	f823 2024 	strh.w	r2, [r3, r4, lsl #2]
      PCD_SET_EP_TX_STATUS(USBx, ep->num, USB_EP_TX_DIS);
 8006ffa:	7809      	ldrb	r1, [r1, #0]
 8006ffc:	4a61      	ldr	r2, [pc, #388]	; (8007184 <USB_ActivateEndpoint+0x304>)
 8006ffe:	f833 4021 	ldrh.w	r4, [r3, r1, lsl #2]
 8007002:	4022      	ands	r2, r4
 8007004:	4332      	orrs	r2, r6
 8007006:	f823 2021 	strh.w	r2, [r3, r1, lsl #2]
}
 800700a:	bc70      	pop	{r4, r5, r6}
 800700c:	4770      	bx	lr
      PCD_CLEAR_RX_DTOG(USBx, ep->num);
 800700e:	780a      	ldrb	r2, [r1, #0]
 8007010:	f833 5022 	ldrh.w	r5, [r3, r2, lsl #2]
 8007014:	eb03 0482 	add.w	r4, r3, r2, lsl #2
 8007018:	046d      	lsls	r5, r5, #17
 800701a:	d50b      	bpl.n	8007034 <USB_ActivateEndpoint+0x1b4>
 800701c:	f833 4022 	ldrh.w	r4, [r3, r2, lsl #2]
 8007020:	4026      	ands	r6, r4
 8007022:	f446 4640 	orr.w	r6, r6, #49152	; 0xc000
 8007026:	f046 0680 	orr.w	r6, r6, #128	; 0x80
 800702a:	f823 6022 	strh.w	r6, [r3, r2, lsl #2]
 800702e:	780c      	ldrb	r4, [r1, #0]
 8007030:	eb03 0484 	add.w	r4, r3, r4, lsl #2
      PCD_CLEAR_TX_DTOG(USBx, ep->num);
 8007034:	8822      	ldrh	r2, [r4, #0]
 8007036:	0652      	lsls	r2, r2, #25
 8007038:	d50c      	bpl.n	8007054 <USB_ActivateEndpoint+0x1d4>
 800703a:	8822      	ldrh	r2, [r4, #0]
 800703c:	f022 02f0 	bic.w	r2, r2, #240	; 0xf0
 8007040:	0512      	lsls	r2, r2, #20
 8007042:	0d12      	lsrs	r2, r2, #20
 8007044:	f442 4200 	orr.w	r2, r2, #32768	; 0x8000
 8007048:	f042 02c0 	orr.w	r2, r2, #192	; 0xc0
 800704c:	8022      	strh	r2, [r4, #0]
 800704e:	780c      	ldrb	r4, [r1, #0]
 8007050:	eb03 0484 	add.w	r4, r3, r4, lsl #2
      PCD_RX_DTOG(USBx, ep->num);
 8007054:	8822      	ldrh	r2, [r4, #0]
 8007056:	f022 02f0 	bic.w	r2, r2, #240	; 0xf0
 800705a:	0512      	lsls	r2, r2, #20
 800705c:	0d12      	lsrs	r2, r2, #20
 800705e:	f442 4240 	orr.w	r2, r2, #49152	; 0xc000
 8007062:	f042 0280 	orr.w	r2, r2, #128	; 0x80
 8007066:	8022      	strh	r2, [r4, #0]
      if (ep->type != EP_TYPE_ISOC)
 8007068:	78ca      	ldrb	r2, [r1, #3]
        PCD_SET_EP_TX_STATUS(USBx, ep->num, USB_EP_TX_NAK);
 800706a:	780c      	ldrb	r4, [r1, #0]
      if (ep->type != EP_TYPE_ISOC)
 800706c:	2a01      	cmp	r2, #1
 800706e:	d061      	beq.n	8007134 <USB_ActivateEndpoint+0x2b4>
        PCD_SET_EP_TX_STATUS(USBx, ep->num, USB_EP_TX_NAK);
 8007070:	f833 5024 	ldrh.w	r5, [r3, r4, lsl #2]
 8007074:	4a43      	ldr	r2, [pc, #268]	; (8007184 <USB_ActivateEndpoint+0x304>)
 8007076:	402a      	ands	r2, r5
 8007078:	f082 0220 	eor.w	r2, r2, #32
 800707c:	f442 4200 	orr.w	r2, r2, #32768	; 0x8000
 8007080:	f042 0280 	orr.w	r2, r2, #128	; 0x80
 8007084:	f823 2024 	strh.w	r2, [r3, r4, lsl #2]
      PCD_SET_EP_RX_STATUS(USBx, ep->num, USB_EP_RX_DIS);
 8007088:	7809      	ldrb	r1, [r1, #0]
}
 800708a:	bc70      	pop	{r4, r5, r6}
      PCD_SET_EP_RX_STATUS(USBx, ep->num, USB_EP_RX_DIS);
 800708c:	f833 2021 	ldrh.w	r2, [r3, r1, lsl #2]
 8007090:	f022 02f0 	bic.w	r2, r2, #240	; 0xf0
 8007094:	0492      	lsls	r2, r2, #18
 8007096:	0c92      	lsrs	r2, r2, #18
 8007098:	f442 4200 	orr.w	r2, r2, #32768	; 0x8000
 800709c:	f042 0280 	orr.w	r2, r2, #128	; 0x80
 80070a0:	f823 2021 	strh.w	r2, [r3, r1, lsl #2]
}
 80070a4:	4770      	bx	lr
      PCD_SET_EP_RX_ADDRESS(USBx, ep->num, ep->pmaadress);
 80070a6:	f8b3 6050 	ldrh.w	r6, [r3, #80]	; 0x50
      PCD_SET_EP_RX_CNT(USBx, ep->num, ep->maxpacket);
 80070aa:	690d      	ldr	r5, [r1, #16]
      PCD_SET_EP_RX_ADDRESS(USBx, ep->num, ep->pmaadress);
 80070ac:	4432      	add	r2, r6
 80070ae:	f8a2 4408 	strh.w	r4, [r2, #1032]	; 0x408
      PCD_SET_EP_RX_CNT(USBx, ep->num, ep->maxpacket);
 80070b2:	780a      	ldrb	r2, [r1, #0]
 80070b4:	f8b3 4050 	ldrh.w	r4, [r3, #80]	; 0x50
 80070b8:	eb03 1202 	add.w	r2, r3, r2, lsl #4
 80070bc:	f202 420c 	addw	r2, r2, #1036	; 0x40c
 80070c0:	b2a4      	uxth	r4, r4
 80070c2:	b365      	cbz	r5, 800711e <USB_ActivateEndpoint+0x29e>
 80070c4:	2d3e      	cmp	r5, #62	; 0x3e
 80070c6:	d84d      	bhi.n	8007164 <USB_ActivateEndpoint+0x2e4>
 80070c8:	086e      	lsrs	r6, r5, #1
 80070ca:	07ed      	lsls	r5, r5, #31
 80070cc:	bf48      	it	mi
 80070ce:	3601      	addmi	r6, #1
 80070d0:	02b6      	lsls	r6, r6, #10
 80070d2:	b2b6      	uxth	r6, r6
 80070d4:	5316      	strh	r6, [r2, r4]
      PCD_CLEAR_RX_DTOG(USBx, ep->num);
 80070d6:	780c      	ldrb	r4, [r1, #0]
 80070d8:	f833 5024 	ldrh.w	r5, [r3, r4, lsl #2]
 80070dc:	eb03 0284 	add.w	r2, r3, r4, lsl #2
 80070e0:	046e      	lsls	r6, r5, #17
 80070e2:	d50e      	bpl.n	8007102 <USB_ActivateEndpoint+0x282>
 80070e4:	f833 2024 	ldrh.w	r2, [r3, r4, lsl #2]
 80070e8:	f022 02f0 	bic.w	r2, r2, #240	; 0xf0
 80070ec:	0512      	lsls	r2, r2, #20
 80070ee:	0d12      	lsrs	r2, r2, #20
 80070f0:	f442 4240 	orr.w	r2, r2, #49152	; 0xc000
 80070f4:	f042 0280 	orr.w	r2, r2, #128	; 0x80
 80070f8:	f823 2024 	strh.w	r2, [r3, r4, lsl #2]
 80070fc:	780a      	ldrb	r2, [r1, #0]
 80070fe:	eb03 0282 	add.w	r2, r3, r2, lsl #2
      PCD_SET_EP_RX_STATUS(USBx, ep->num, USB_EP_RX_VALID);
 8007102:	8811      	ldrh	r1, [r2, #0]
 8007104:	4b20      	ldr	r3, [pc, #128]	; (8007188 <USB_ActivateEndpoint+0x308>)
}
 8007106:	bc70      	pop	{r4, r5, r6}
      PCD_SET_EP_RX_STATUS(USBx, ep->num, USB_EP_RX_VALID);
 8007108:	400b      	ands	r3, r1
 800710a:	f483 5340 	eor.w	r3, r3, #12288	; 0x3000
 800710e:	f443 4300 	orr.w	r3, r3, #32768	; 0x8000
 8007112:	f043 0380 	orr.w	r3, r3, #128	; 0x80
 8007116:	8013      	strh	r3, [r2, #0]
}
 8007118:	4770      	bx	lr
      ret = HAL_ERROR;
 800711a:	2001      	movs	r0, #1
 800711c:	e6c0      	b.n	8006ea0 <USB_ActivateEndpoint+0x20>
      PCD_SET_EP_RX_CNT(USBx, ep->num, ep->maxpacket);
 800711e:	5b15      	ldrh	r5, [r2, r4]
 8007120:	f425 45f8 	bic.w	r5, r5, #31744	; 0x7c00
 8007124:	042d      	lsls	r5, r5, #16
 8007126:	0c2d      	lsrs	r5, r5, #16
 8007128:	5315      	strh	r5, [r2, r4]
 800712a:	5b15      	ldrh	r5, [r2, r4]
 800712c:	f445 4500 	orr.w	r5, r5, #32768	; 0x8000
 8007130:	5315      	strh	r5, [r2, r4]
 8007132:	e7d0      	b.n	80070d6 <USB_ActivateEndpoint+0x256>
        PCD_SET_EP_TX_STATUS(USBx, ep->num, USB_EP_TX_DIS);
 8007134:	f833 2024 	ldrh.w	r2, [r3, r4, lsl #2]
 8007138:	f022 02c0 	bic.w	r2, r2, #192	; 0xc0
 800713c:	0512      	lsls	r2, r2, #20
 800713e:	0d12      	lsrs	r2, r2, #20
 8007140:	f442 4200 	orr.w	r2, r2, #32768	; 0x8000
 8007144:	f042 0280 	orr.w	r2, r2, #128	; 0x80
 8007148:	f823 2024 	strh.w	r2, [r3, r4, lsl #2]
 800714c:	e79c      	b.n	8007088 <USB_ActivateEndpoint+0x208>
        PCD_SET_EP_TX_STATUS(USBx, ep->num, USB_EP_TX_DIS);
 800714e:	8823      	ldrh	r3, [r4, #0]
 8007150:	f023 03c0 	bic.w	r3, r3, #192	; 0xc0
 8007154:	051b      	lsls	r3, r3, #20
 8007156:	0d1b      	lsrs	r3, r3, #20
 8007158:	f443 4300 	orr.w	r3, r3, #32768	; 0x8000
 800715c:	f043 0380 	orr.w	r3, r3, #128	; 0x80
 8007160:	8023      	strh	r3, [r4, #0]
 8007162:	e752      	b.n	800700a <USB_ActivateEndpoint+0x18a>
      PCD_SET_EP_RX_CNT(USBx, ep->num, ep->maxpacket);
 8007164:	096e      	lsrs	r6, r5, #5
 8007166:	06ed      	lsls	r5, r5, #27
 8007168:	4d08      	ldr	r5, [pc, #32]	; (800718c <USB_ActivateEndpoint+0x30c>)
 800716a:	bf08      	it	eq
 800716c:	f106 36ff 	addeq.w	r6, r6, #4294967295
 8007170:	ea45 2586 	orr.w	r5, r5, r6, lsl #10
 8007174:	b2ad      	uxth	r5, r5
 8007176:	5315      	strh	r5, [r2, r4]
 8007178:	e7ad      	b.n	80070d6 <USB_ActivateEndpoint+0x256>
 800717a:	bf00      	nop
 800717c:	ffff898f 	.word	0xffff898f
 8007180:	ffff8f8f 	.word	0xffff8f8f
 8007184:	ffff8fbf 	.word	0xffff8fbf
 8007188:	ffffbf8f 	.word	0xffffbf8f
 800718c:	ffff8000 	.word	0xffff8000

08007190 <USB_DeactivateEndpoint>:
  * @param  USBx : Selected device
  * @param  ep: pointer to endpoint structure
  * @retval HAL status
  */
HAL_StatusTypeDef USB_DeactivateEndpoint(USB_TypeDef *USBx, USB_EPTypeDef *ep)
{
 8007190:	b430      	push	{r4, r5}
 8007192:	780a      	ldrb	r2, [r1, #0]
  if (ep->doublebuffer == 0U)
 8007194:	7b0d      	ldrb	r5, [r1, #12]
 8007196:	eb00 0382 	add.w	r3, r0, r2, lsl #2
 800719a:	784c      	ldrb	r4, [r1, #1]
 800719c:	bb15      	cbnz	r5, 80071e4 <USB_DeactivateEndpoint+0x54>
  {
    if (ep->is_in != 0U)
 800719e:	2c00      	cmp	r4, #0
 80071a0:	f000 8099 	beq.w	80072d6 <USB_DeactivateEndpoint+0x146>
    {
      PCD_CLEAR_TX_DTOG(USBx, ep->num);
 80071a4:	f830 4022 	ldrh.w	r4, [r0, r2, lsl #2]
 80071a8:	0664      	lsls	r4, r4, #25
 80071aa:	d50e      	bpl.n	80071ca <USB_DeactivateEndpoint+0x3a>
 80071ac:	f830 3022 	ldrh.w	r3, [r0, r2, lsl #2]
 80071b0:	f023 03f0 	bic.w	r3, r3, #240	; 0xf0
 80071b4:	051b      	lsls	r3, r3, #20
 80071b6:	0d1b      	lsrs	r3, r3, #20
 80071b8:	f443 4300 	orr.w	r3, r3, #32768	; 0x8000
 80071bc:	f043 03c0 	orr.w	r3, r3, #192	; 0xc0
 80071c0:	f820 3022 	strh.w	r3, [r0, r2, lsl #2]
 80071c4:	780b      	ldrb	r3, [r1, #0]
 80071c6:	eb00 0383 	add.w	r3, r0, r3, lsl #2
      /* Configure DISABLE status for the Endpoint*/
      PCD_SET_EP_TX_STATUS(USBx, ep->num, USB_EP_TX_DIS);
 80071ca:	881a      	ldrh	r2, [r3, #0]
      PCD_SET_EP_RX_STATUS(USBx, ep->num, USB_EP_RX_DIS);
    }
  }

  return HAL_OK;
}
 80071cc:	2000      	movs	r0, #0
 80071ce:	bc30      	pop	{r4, r5}
      PCD_SET_EP_TX_STATUS(USBx, ep->num, USB_EP_TX_DIS);
 80071d0:	f022 02c0 	bic.w	r2, r2, #192	; 0xc0
 80071d4:	0512      	lsls	r2, r2, #20
 80071d6:	0d12      	lsrs	r2, r2, #20
 80071d8:	f442 4200 	orr.w	r2, r2, #32768	; 0x8000
 80071dc:	f042 0280 	orr.w	r2, r2, #128	; 0x80
 80071e0:	801a      	strh	r2, [r3, #0]
}
 80071e2:	4770      	bx	lr
    if (ep->is_in == 0U)
 80071e4:	2c00      	cmp	r4, #0
 80071e6:	d141      	bne.n	800726c <USB_DeactivateEndpoint+0xdc>
      PCD_CLEAR_RX_DTOG(USBx, ep->num);
 80071e8:	f830 4022 	ldrh.w	r4, [r0, r2, lsl #2]
 80071ec:	0464      	lsls	r4, r4, #17
 80071ee:	d50e      	bpl.n	800720e <USB_DeactivateEndpoint+0x7e>
 80071f0:	f830 3022 	ldrh.w	r3, [r0, r2, lsl #2]
 80071f4:	f023 03f0 	bic.w	r3, r3, #240	; 0xf0
 80071f8:	051b      	lsls	r3, r3, #20
 80071fa:	0d1b      	lsrs	r3, r3, #20
 80071fc:	f443 4340 	orr.w	r3, r3, #49152	; 0xc000
 8007200:	f043 0380 	orr.w	r3, r3, #128	; 0x80
 8007204:	f820 3022 	strh.w	r3, [r0, r2, lsl #2]
 8007208:	780b      	ldrb	r3, [r1, #0]
 800720a:	eb00 0383 	add.w	r3, r0, r3, lsl #2
      PCD_CLEAR_TX_DTOG(USBx, ep->num);
 800720e:	881a      	ldrh	r2, [r3, #0]
 8007210:	0655      	lsls	r5, r2, #25
 8007212:	d50c      	bpl.n	800722e <USB_DeactivateEndpoint+0x9e>
 8007214:	881a      	ldrh	r2, [r3, #0]
 8007216:	f022 02f0 	bic.w	r2, r2, #240	; 0xf0
 800721a:	0512      	lsls	r2, r2, #20
 800721c:	0d12      	lsrs	r2, r2, #20
 800721e:	f442 4200 	orr.w	r2, r2, #32768	; 0x8000
 8007222:	f042 02c0 	orr.w	r2, r2, #192	; 0xc0
 8007226:	801a      	strh	r2, [r3, #0]
 8007228:	780b      	ldrb	r3, [r1, #0]
 800722a:	eb00 0383 	add.w	r3, r0, r3, lsl #2
      PCD_SET_EP_RX_STATUS(USBx, ep->num, USB_EP_RX_DIS);
 800722e:	f248 0580 	movw	r5, #32896	; 0x8080
      PCD_TX_DTOG(USBx, ep->num);
 8007232:	881a      	ldrh	r2, [r3, #0]
      PCD_SET_EP_RX_STATUS(USBx, ep->num, USB_EP_RX_DIS);
 8007234:	4c3f      	ldr	r4, [pc, #252]	; (8007334 <USB_DeactivateEndpoint+0x1a4>)
      PCD_TX_DTOG(USBx, ep->num);
 8007236:	f022 02f0 	bic.w	r2, r2, #240	; 0xf0
 800723a:	0512      	lsls	r2, r2, #20
 800723c:	0d12      	lsrs	r2, r2, #20
 800723e:	f442 4200 	orr.w	r2, r2, #32768	; 0x8000
 8007242:	f042 02c0 	orr.w	r2, r2, #192	; 0xc0
 8007246:	801a      	strh	r2, [r3, #0]
      PCD_SET_EP_RX_STATUS(USBx, ep->num, USB_EP_RX_DIS);
 8007248:	780a      	ldrb	r2, [r1, #0]
 800724a:	f830 3022 	ldrh.w	r3, [r0, r2, lsl #2]
 800724e:	4023      	ands	r3, r4
 8007250:	432b      	orrs	r3, r5
 8007252:	f820 3022 	strh.w	r3, [r0, r2, lsl #2]
      PCD_SET_EP_TX_STATUS(USBx, ep->num, USB_EP_TX_DIS);
 8007256:	780a      	ldrb	r2, [r1, #0]
 8007258:	4b37      	ldr	r3, [pc, #220]	; (8007338 <USB_DeactivateEndpoint+0x1a8>)
 800725a:	f830 1022 	ldrh.w	r1, [r0, r2, lsl #2]
 800725e:	400b      	ands	r3, r1
 8007260:	431d      	orrs	r5, r3
 8007262:	f820 5022 	strh.w	r5, [r0, r2, lsl #2]
}
 8007266:	2000      	movs	r0, #0
 8007268:	bc30      	pop	{r4, r5}
 800726a:	4770      	bx	lr
      PCD_CLEAR_RX_DTOG(USBx, ep->num);
 800726c:	f830 4022 	ldrh.w	r4, [r0, r2, lsl #2]
 8007270:	0464      	lsls	r4, r4, #17
 8007272:	d50e      	bpl.n	8007292 <USB_DeactivateEndpoint+0x102>
 8007274:	f830 3022 	ldrh.w	r3, [r0, r2, lsl #2]
 8007278:	f023 03f0 	bic.w	r3, r3, #240	; 0xf0
 800727c:	051b      	lsls	r3, r3, #20
 800727e:	0d1b      	lsrs	r3, r3, #20
 8007280:	f443 4340 	orr.w	r3, r3, #49152	; 0xc000
 8007284:	f043 0380 	orr.w	r3, r3, #128	; 0x80
 8007288:	f820 3022 	strh.w	r3, [r0, r2, lsl #2]
 800728c:	780b      	ldrb	r3, [r1, #0]
 800728e:	eb00 0383 	add.w	r3, r0, r3, lsl #2
      PCD_CLEAR_TX_DTOG(USBx, ep->num);
 8007292:	881a      	ldrh	r2, [r3, #0]
 8007294:	0652      	lsls	r2, r2, #25
 8007296:	d43e      	bmi.n	8007316 <USB_DeactivateEndpoint+0x186>
      PCD_SET_EP_TX_STATUS(USBx, ep->num, USB_EP_TX_DIS);
 8007298:	f248 0580 	movw	r5, #32896	; 0x8080
      PCD_RX_DTOG(USBx, ep->num);
 800729c:	881a      	ldrh	r2, [r3, #0]
      PCD_SET_EP_TX_STATUS(USBx, ep->num, USB_EP_TX_DIS);
 800729e:	4c26      	ldr	r4, [pc, #152]	; (8007338 <USB_DeactivateEndpoint+0x1a8>)
      PCD_RX_DTOG(USBx, ep->num);
 80072a0:	f022 02f0 	bic.w	r2, r2, #240	; 0xf0
 80072a4:	0512      	lsls	r2, r2, #20
 80072a6:	0d12      	lsrs	r2, r2, #20
 80072a8:	f442 4240 	orr.w	r2, r2, #49152	; 0xc000
 80072ac:	f042 0280 	orr.w	r2, r2, #128	; 0x80
 80072b0:	801a      	strh	r2, [r3, #0]
      PCD_SET_EP_TX_STATUS(USBx, ep->num, USB_EP_TX_DIS);
 80072b2:	780a      	ldrb	r2, [r1, #0]
 80072b4:	f830 3022 	ldrh.w	r3, [r0, r2, lsl #2]
 80072b8:	4023      	ands	r3, r4
 80072ba:	432b      	orrs	r3, r5
 80072bc:	f820 3022 	strh.w	r3, [r0, r2, lsl #2]
      PCD_SET_EP_RX_STATUS(USBx, ep->num, USB_EP_RX_DIS);
 80072c0:	780a      	ldrb	r2, [r1, #0]
 80072c2:	4b1c      	ldr	r3, [pc, #112]	; (8007334 <USB_DeactivateEndpoint+0x1a4>)
 80072c4:	f830 1022 	ldrh.w	r1, [r0, r2, lsl #2]
 80072c8:	400b      	ands	r3, r1
 80072ca:	431d      	orrs	r5, r3
 80072cc:	f820 5022 	strh.w	r5, [r0, r2, lsl #2]
}
 80072d0:	2000      	movs	r0, #0
 80072d2:	bc30      	pop	{r4, r5}
 80072d4:	4770      	bx	lr
      PCD_CLEAR_RX_DTOG(USBx, ep->num);
 80072d6:	f830 4022 	ldrh.w	r4, [r0, r2, lsl #2]
 80072da:	0465      	lsls	r5, r4, #17
 80072dc:	d50e      	bpl.n	80072fc <USB_DeactivateEndpoint+0x16c>
 80072de:	f830 3022 	ldrh.w	r3, [r0, r2, lsl #2]
 80072e2:	f023 03f0 	bic.w	r3, r3, #240	; 0xf0
 80072e6:	051b      	lsls	r3, r3, #20
 80072e8:	0d1b      	lsrs	r3, r3, #20
 80072ea:	f443 4340 	orr.w	r3, r3, #49152	; 0xc000
 80072ee:	f043 0380 	orr.w	r3, r3, #128	; 0x80
 80072f2:	f820 3022 	strh.w	r3, [r0, r2, lsl #2]
 80072f6:	780b      	ldrb	r3, [r1, #0]
 80072f8:	eb00 0383 	add.w	r3, r0, r3, lsl #2
      PCD_SET_EP_RX_STATUS(USBx, ep->num, USB_EP_RX_DIS);
 80072fc:	881a      	ldrh	r2, [r3, #0]
}
 80072fe:	2000      	movs	r0, #0
 8007300:	bc30      	pop	{r4, r5}
      PCD_SET_EP_RX_STATUS(USBx, ep->num, USB_EP_RX_DIS);
 8007302:	f022 02f0 	bic.w	r2, r2, #240	; 0xf0
 8007306:	0492      	lsls	r2, r2, #18
 8007308:	0c92      	lsrs	r2, r2, #18
 800730a:	f442 4200 	orr.w	r2, r2, #32768	; 0x8000
 800730e:	f042 0280 	orr.w	r2, r2, #128	; 0x80
 8007312:	801a      	strh	r2, [r3, #0]
}
 8007314:	4770      	bx	lr
      PCD_CLEAR_TX_DTOG(USBx, ep->num);
 8007316:	881a      	ldrh	r2, [r3, #0]
 8007318:	f022 02f0 	bic.w	r2, r2, #240	; 0xf0
 800731c:	0512      	lsls	r2, r2, #20
 800731e:	0d12      	lsrs	r2, r2, #20
 8007320:	f442 4200 	orr.w	r2, r2, #32768	; 0x8000
 8007324:	f042 02c0 	orr.w	r2, r2, #192	; 0xc0
 8007328:	801a      	strh	r2, [r3, #0]
 800732a:	780b      	ldrb	r3, [r1, #0]
 800732c:	eb00 0383 	add.w	r3, r0, r3, lsl #2
 8007330:	e7b2      	b.n	8007298 <USB_DeactivateEndpoint+0x108>
 8007332:	bf00      	nop
 8007334:	ffffbf8f 	.word	0xffffbf8f
 8007338:	ffff8fbf 	.word	0xffff8fbf

0800733c <USB_EPStartXfer>:
  * @param  USBx : Selected device
  * @param  ep: pointer to endpoint structure
  * @retval HAL status
  */
HAL_StatusTypeDef USB_EPStartXfer(USB_TypeDef *USBx, USB_EPTypeDef *ep)
{
 800733c:	b4f0      	push	{r4, r5, r6, r7}
  uint16_t pmabuffer;
  uint32_t len;

  /* IN endpoint */
  if (ep->is_in == 1U)
 800733e:	784c      	ldrb	r4, [r1, #1]
 8007340:	698b      	ldr	r3, [r1, #24]
 8007342:	2c01      	cmp	r4, #1
 8007344:	690a      	ldr	r2, [r1, #16]
 8007346:	d05a      	beq.n	80073fe <USB_EPStartXfer+0xc2>
    PCD_SET_EP_TX_STATUS(USBx, ep->num, USB_EP_TX_VALID);
  }
  else /* OUT endpoint */
  {
    /* Multi packet transfer*/
    if (ep->xfer_len > ep->maxpacket)
 8007348:	4293      	cmp	r3, r2
      ep->xfer_len -= len;
    }
    else
    {
      len = ep->xfer_len;
      ep->xfer_len = 0U;
 800734a:	bf98      	it	ls
 800734c:	2600      	movls	r6, #0
    }

    /* configure and validate Rx endpoint */
    if (ep->doublebuffer == 0U)
 800734e:	7b0d      	ldrb	r5, [r1, #12]
      ep->xfer_len -= len;
 8007350:	bf88      	it	hi
 8007352:	1a9e      	subhi	r6, r3, r2
 8007354:	618e      	str	r6, [r1, #24]
 8007356:	bf88      	it	hi
 8007358:	4613      	movhi	r3, r2
 800735a:	780a      	ldrb	r2, [r1, #0]
    if (ep->doublebuffer == 0U)
 800735c:	bb15      	cbnz	r5, 80073a4 <USB_EPStartXfer+0x68>
    {
      /*Set RX buffer count*/
      PCD_SET_EP_RX_CNT(USBx, ep->num, len);
 800735e:	f8b0 5050 	ldrh.w	r5, [r0, #80]	; 0x50
 8007362:	f200 440c 	addw	r4, r0, #1036	; 0x40c
 8007366:	0112      	lsls	r2, r2, #4
 8007368:	442c      	add	r4, r5
 800736a:	2b00      	cmp	r3, #0
 800736c:	f000 80a8 	beq.w	80074c0 <USB_EPStartXfer+0x184>
 8007370:	2b3e      	cmp	r3, #62	; 0x3e
 8007372:	f200 80c9 	bhi.w	8007508 <USB_EPStartXfer+0x1cc>
 8007376:	085d      	lsrs	r5, r3, #1
 8007378:	07db      	lsls	r3, r3, #31
 800737a:	bf48      	it	mi
 800737c:	3501      	addmi	r5, #1
 800737e:	02ad      	lsls	r5, r5, #10
 8007380:	b2ad      	uxth	r5, r5
 8007382:	52a5      	strh	r5, [r4, r2]
 8007384:	780a      	ldrb	r2, [r1, #0]
    {
      /*Set the Double buffer counter*/
      PCD_SET_EP_DBUF_CNT(USBx, ep->num, ep->is_in, len);
    }

    PCD_SET_EP_RX_STATUS(USBx, ep->num, USB_EP_RX_VALID);
 8007386:	f830 1022 	ldrh.w	r1, [r0, r2, lsl #2]
 800738a:	4b7d      	ldr	r3, [pc, #500]	; (8007580 <USB_EPStartXfer+0x244>)
  }

  return HAL_OK;
}
 800738c:	bcf0      	pop	{r4, r5, r6, r7}
    PCD_SET_EP_RX_STATUS(USBx, ep->num, USB_EP_RX_VALID);
 800738e:	400b      	ands	r3, r1
 8007390:	f483 5340 	eor.w	r3, r3, #12288	; 0x3000
 8007394:	f443 4300 	orr.w	r3, r3, #32768	; 0x8000
 8007398:	f043 0380 	orr.w	r3, r3, #128	; 0x80
 800739c:	f820 3022 	strh.w	r3, [r0, r2, lsl #2]
}
 80073a0:	2000      	movs	r0, #0
 80073a2:	4770      	bx	lr
      PCD_SET_EP_DBUF_CNT(USBx, ep->num, ep->is_in, len);
 80073a4:	2c00      	cmp	r4, #0
 80073a6:	d1ee      	bne.n	8007386 <USB_EPStartXfer+0x4a>
 80073a8:	f8b0 5050 	ldrh.w	r5, [r0, #80]	; 0x50
 80073ac:	f200 4404 	addw	r4, r0, #1028	; 0x404
 80073b0:	0112      	lsls	r2, r2, #4
 80073b2:	442c      	add	r4, r5
 80073b4:	2b00      	cmp	r3, #0
 80073b6:	f040 80b3 	bne.w	8007520 <USB_EPStartXfer+0x1e4>
 80073ba:	5aa5      	ldrh	r5, [r4, r2]
 80073bc:	4e71      	ldr	r6, [pc, #452]	; (8007584 <USB_EPStartXfer+0x248>)
 80073be:	f425 45f8 	bic.w	r5, r5, #31744	; 0x7c00
 80073c2:	042d      	lsls	r5, r5, #16
 80073c4:	0c2d      	lsrs	r5, r5, #16
 80073c6:	52a5      	strh	r5, [r4, r2]
 80073c8:	5aa5      	ldrh	r5, [r4, r2]
 80073ca:	f445 4500 	orr.w	r5, r5, #32768	; 0x8000
 80073ce:	52a5      	strh	r5, [r4, r2]
 80073d0:	784c      	ldrb	r4, [r1, #1]
 80073d2:	2c00      	cmp	r4, #0
 80073d4:	f040 80af 	bne.w	8007536 <USB_EPStartXfer+0x1fa>
 80073d8:	f8b0 3050 	ldrh.w	r3, [r0, #80]	; 0x50
 80073dc:	780a      	ldrb	r2, [r1, #0]
 80073de:	f200 440c 	addw	r4, r0, #1036	; 0x40c
 80073e2:	0112      	lsls	r2, r2, #4
 80073e4:	441c      	add	r4, r3
 80073e6:	5aa3      	ldrh	r3, [r4, r2]
 80073e8:	f423 43f8 	bic.w	r3, r3, #31744	; 0x7c00
 80073ec:	041b      	lsls	r3, r3, #16
 80073ee:	0c1b      	lsrs	r3, r3, #16
 80073f0:	52a3      	strh	r3, [r4, r2]
 80073f2:	5aa3      	ldrh	r3, [r4, r2]
 80073f4:	4333      	orrs	r3, r6
 80073f6:	b29b      	uxth	r3, r3
 80073f8:	52a3      	strh	r3, [r4, r2]
 80073fa:	780a      	ldrb	r2, [r1, #0]
 80073fc:	e7c3      	b.n	8007386 <USB_EPStartXfer+0x4a>
    if (ep->xfer_len > ep->maxpacket)
 80073fe:	4293      	cmp	r3, r2
      ep->xfer_len -= len;
 8007400:	bf86      	itte	hi
 8007402:	1a9c      	subhi	r4, r3, r2
 8007404:	4613      	movhi	r3, r2
      ep->xfer_len = 0U;
 8007406:	2400      	movls	r4, #0
 8007408:	b29a      	uxth	r2, r3
    if (ep->doublebuffer == 0U)
 800740a:	7b0d      	ldrb	r5, [r1, #12]
 800740c:	3201      	adds	r2, #1
 800740e:	0856      	lsrs	r6, r2, #1
 8007410:	618c      	str	r4, [r1, #24]
 8007412:	b29b      	uxth	r3, r3
 8007414:	694a      	ldr	r2, [r1, #20]
 8007416:	f500 6780 	add.w	r7, r0, #1024	; 0x400
 800741a:	b36d      	cbz	r5, 8007478 <USB_EPStartXfer+0x13c>
      if ((PCD_GET_ENDPOINT(USBx, ep->num) & USB_EP_DTOG_TX) != 0U)
 800741c:	780d      	ldrb	r5, [r1, #0]
 800741e:	f830 4025 	ldrh.w	r4, [r0, r5, lsl #2]
 8007422:	012d      	lsls	r5, r5, #4
 8007424:	0664      	lsls	r4, r4, #25
        PCD_SET_EP_DBUF1_CNT(USBx, ep->num, ep->is_in, len);
 8007426:	f8b0 c050 	ldrh.w	ip, [r0, #80]	; 0x50
      if ((PCD_GET_ENDPOINT(USBx, ep->num) & USB_EP_DTOG_TX) != 0U)
 800742a:	d555      	bpl.n	80074d8 <USB_EPStartXfer+0x19c>
        PCD_SET_EP_DBUF1_CNT(USBx, ep->num, ep->is_in, len);
 800742c:	f200 440c 	addw	r4, r0, #1036	; 0x40c
 8007430:	4464      	add	r4, ip
 8007432:	5363      	strh	r3, [r4, r5]
        pmabuffer = ep->pmaaddr1;
 8007434:	894c      	ldrh	r4, [r1, #10]
  uint32_t BaseAddr = (uint32_t)USBx;
  uint32_t i, temp1, temp2;
  __IO uint16_t *pdwVal;
  uint8_t *pBuf = pbUsrBuf;

  pdwVal = (__IO uint16_t *)(BaseAddr + 0x400U + ((uint32_t)wPMABufAddr * PMA_ACCESS));
 8007436:	eb07 0444 	add.w	r4, r7, r4, lsl #1

  for (i = n; i != 0U; i--)
 800743a:	b13e      	cbz	r6, 800744c <USB_EPStartXfer+0x110>
 800743c:	eb02 0346 	add.w	r3, r2, r6, lsl #1
 8007440:	f832 5b02 	ldrh.w	r5, [r2], #2
 8007444:	4293      	cmp	r3, r2
  {
    temp1 = *pBuf;
    pBuf++;
    temp2 = temp1 | ((uint16_t)((uint16_t) *pBuf << 8));
    *pdwVal = (uint16_t)temp2;
 8007446:	f824 5b04 	strh.w	r5, [r4], #4
  for (i = n; i != 0U; i--)
 800744a:	d1f9      	bne.n	8007440 <USB_EPStartXfer+0x104>
 800744c:	780c      	ldrb	r4, [r1, #0]
      PCD_FreeUserBuffer(USBx, ep->num, ep->is_in);
 800744e:	784b      	ldrb	r3, [r1, #1]
 8007450:	eb00 0284 	add.w	r2, r0, r4, lsl #2
 8007454:	2b00      	cmp	r3, #0
 8007456:	d145      	bne.n	80074e4 <USB_EPStartXfer+0x1a8>
 8007458:	f830 3024 	ldrh.w	r3, [r0, r4, lsl #2]
 800745c:	f023 03f0 	bic.w	r3, r3, #240	; 0xf0
 8007460:	051b      	lsls	r3, r3, #20
 8007462:	0d1b      	lsrs	r3, r3, #20
 8007464:	f443 4300 	orr.w	r3, r3, #32768	; 0x8000
 8007468:	f043 03c0 	orr.w	r3, r3, #192	; 0xc0
 800746c:	f820 3024 	strh.w	r3, [r0, r4, lsl #2]
 8007470:	780a      	ldrb	r2, [r1, #0]
 8007472:	eb00 0282 	add.w	r2, r0, r2, lsl #2
 8007476:	e016      	b.n	80074a6 <USB_EPStartXfer+0x16a>
  pdwVal = (__IO uint16_t *)(BaseAddr + 0x400U + ((uint32_t)wPMABufAddr * PMA_ACCESS));
 8007478:	88cc      	ldrh	r4, [r1, #6]
 800747a:	eb07 0444 	add.w	r4, r7, r4, lsl #1
  for (i = n; i != 0U; i--)
 800747e:	b13e      	cbz	r6, 8007490 <USB_EPStartXfer+0x154>
 8007480:	eb04 0686 	add.w	r6, r4, r6, lsl #2
 8007484:	f832 5b02 	ldrh.w	r5, [r2], #2
    *pdwVal = (uint16_t)temp2;
 8007488:	f824 5b04 	strh.w	r5, [r4], #4
  for (i = n; i != 0U; i--)
 800748c:	42a6      	cmp	r6, r4
 800748e:	d1f9      	bne.n	8007484 <USB_EPStartXfer+0x148>
      PCD_SET_EP_TX_CNT(USBx, ep->num, len);
 8007490:	f8b0 5050 	ldrh.w	r5, [r0, #80]	; 0x50
 8007494:	780c      	ldrb	r4, [r1, #0]
 8007496:	f200 4204 	addw	r2, r0, #1028	; 0x404
 800749a:	442a      	add	r2, r5
 800749c:	0124      	lsls	r4, r4, #4
 800749e:	52a3      	strh	r3, [r4, r2]
 80074a0:	780a      	ldrb	r2, [r1, #0]
 80074a2:	eb00 0282 	add.w	r2, r0, r2, lsl #2
    PCD_SET_EP_TX_STATUS(USBx, ep->num, USB_EP_TX_VALID);
 80074a6:	8811      	ldrh	r1, [r2, #0]
 80074a8:	4b37      	ldr	r3, [pc, #220]	; (8007588 <USB_EPStartXfer+0x24c>)
}
 80074aa:	2000      	movs	r0, #0
 80074ac:	bcf0      	pop	{r4, r5, r6, r7}
    PCD_SET_EP_TX_STATUS(USBx, ep->num, USB_EP_TX_VALID);
 80074ae:	400b      	ands	r3, r1
 80074b0:	f083 0330 	eor.w	r3, r3, #48	; 0x30
 80074b4:	f443 4300 	orr.w	r3, r3, #32768	; 0x8000
 80074b8:	f043 0380 	orr.w	r3, r3, #128	; 0x80
 80074bc:	8013      	strh	r3, [r2, #0]
}
 80074be:	4770      	bx	lr
      PCD_SET_EP_RX_CNT(USBx, ep->num, len);
 80074c0:	5aa3      	ldrh	r3, [r4, r2]
 80074c2:	f423 43f8 	bic.w	r3, r3, #31744	; 0x7c00
 80074c6:	041b      	lsls	r3, r3, #16
 80074c8:	0c1b      	lsrs	r3, r3, #16
 80074ca:	52a3      	strh	r3, [r4, r2]
 80074cc:	5aa3      	ldrh	r3, [r4, r2]
 80074ce:	f443 4300 	orr.w	r3, r3, #32768	; 0x8000
 80074d2:	52a3      	strh	r3, [r4, r2]
 80074d4:	780a      	ldrb	r2, [r1, #0]
 80074d6:	e756      	b.n	8007386 <USB_EPStartXfer+0x4a>
        PCD_SET_EP_DBUF0_CNT(USBx, ep->num, ep->is_in, len);
 80074d8:	f200 4404 	addw	r4, r0, #1028	; 0x404
 80074dc:	4464      	add	r4, ip
 80074de:	5363      	strh	r3, [r4, r5]
        pmabuffer = ep->pmaaddr0;
 80074e0:	890c      	ldrh	r4, [r1, #8]
 80074e2:	e7a8      	b.n	8007436 <USB_EPStartXfer+0xfa>
      PCD_FreeUserBuffer(USBx, ep->num, ep->is_in);
 80074e4:	2b01      	cmp	r3, #1
 80074e6:	d1de      	bne.n	80074a6 <USB_EPStartXfer+0x16a>
 80074e8:	f830 3024 	ldrh.w	r3, [r0, r4, lsl #2]
 80074ec:	f023 03f0 	bic.w	r3, r3, #240	; 0xf0
 80074f0:	051b      	lsls	r3, r3, #20
 80074f2:	0d1b      	lsrs	r3, r3, #20
 80074f4:	f443 4340 	orr.w	r3, r3, #49152	; 0xc000
 80074f8:	f043 0380 	orr.w	r3, r3, #128	; 0x80
 80074fc:	f820 3024 	strh.w	r3, [r0, r4, lsl #2]
 8007500:	780a      	ldrb	r2, [r1, #0]
 8007502:	eb00 0282 	add.w	r2, r0, r2, lsl #2
 8007506:	e7ce      	b.n	80074a6 <USB_EPStartXfer+0x16a>
      PCD_SET_EP_RX_CNT(USBx, ep->num, len);
 8007508:	095d      	lsrs	r5, r3, #5
 800750a:	06df      	lsls	r7, r3, #27
 800750c:	4b1d      	ldr	r3, [pc, #116]	; (8007584 <USB_EPStartXfer+0x248>)
 800750e:	bf08      	it	eq
 8007510:	f105 35ff 	addeq.w	r5, r5, #4294967295
 8007514:	ea43 2385 	orr.w	r3, r3, r5, lsl #10
 8007518:	b29b      	uxth	r3, r3
 800751a:	52a3      	strh	r3, [r4, r2]
 800751c:	780a      	ldrb	r2, [r1, #0]
 800751e:	e732      	b.n	8007386 <USB_EPStartXfer+0x4a>
      PCD_SET_EP_DBUF_CNT(USBx, ep->num, ep->is_in, len);
 8007520:	2b3e      	cmp	r3, #62	; 0x3e
 8007522:	d816      	bhi.n	8007552 <USB_EPStartXfer+0x216>
 8007524:	085d      	lsrs	r5, r3, #1
 8007526:	07de      	lsls	r6, r3, #31
 8007528:	bf48      	it	mi
 800752a:	3501      	addmi	r5, #1
 800752c:	02ad      	lsls	r5, r5, #10
 800752e:	b2ad      	uxth	r5, r5
 8007530:	52a5      	strh	r5, [r4, r2]
 8007532:	784c      	ldrb	r4, [r1, #1]
 8007534:	b1d4      	cbz	r4, 800756c <USB_EPStartXfer+0x230>
 8007536:	2c01      	cmp	r4, #1
 8007538:	780a      	ldrb	r2, [r1, #0]
 800753a:	f47f af24 	bne.w	8007386 <USB_EPStartXfer+0x4a>
 800753e:	f8b0 5050 	ldrh.w	r5, [r0, #80]	; 0x50
 8007542:	f200 440c 	addw	r4, r0, #1036	; 0x40c
 8007546:	0112      	lsls	r2, r2, #4
 8007548:	b29b      	uxth	r3, r3
 800754a:	442c      	add	r4, r5
 800754c:	52a3      	strh	r3, [r4, r2]
 800754e:	780a      	ldrb	r2, [r1, #0]
 8007550:	e719      	b.n	8007386 <USB_EPStartXfer+0x4a>
 8007552:	095e      	lsrs	r6, r3, #5
 8007554:	06dd      	lsls	r5, r3, #27
 8007556:	4d0b      	ldr	r5, [pc, #44]	; (8007584 <USB_EPStartXfer+0x248>)
 8007558:	bf08      	it	eq
 800755a:	f106 36ff 	addeq.w	r6, r6, #4294967295
 800755e:	ea45 2586 	orr.w	r5, r5, r6, lsl #10
 8007562:	b2ad      	uxth	r5, r5
 8007564:	52a5      	strh	r5, [r4, r2]
 8007566:	784c      	ldrb	r4, [r1, #1]
 8007568:	2c00      	cmp	r4, #0
 800756a:	d1e4      	bne.n	8007536 <USB_EPStartXfer+0x1fa>
 800756c:	f8b0 4050 	ldrh.w	r4, [r0, #80]	; 0x50
 8007570:	780b      	ldrb	r3, [r1, #0]
 8007572:	f200 420c 	addw	r2, r0, #1036	; 0x40c
 8007576:	4422      	add	r2, r4
 8007578:	011b      	lsls	r3, r3, #4
 800757a:	52d5      	strh	r5, [r2, r3]
 800757c:	780a      	ldrb	r2, [r1, #0]
 800757e:	e702      	b.n	8007386 <USB_EPStartXfer+0x4a>
 8007580:	ffffbf8f 	.word	0xffffbf8f
 8007584:	ffff8000 	.word	0xffff8000
 8007588:	ffff8fbf 	.word	0xffff8fbf

0800758c <USB_EPSetStall>:
  if (ep->is_in != 0U)
 800758c:	784b      	ldrb	r3, [r1, #1]
 800758e:	780a      	ldrb	r2, [r1, #0]
    PCD_SET_EP_TX_STATUS(USBx, ep->num, USB_EP_TX_STALL);
 8007590:	f830 1022 	ldrh.w	r1, [r0, r2, lsl #2]
  if (ep->is_in != 0U)
 8007594:	b95b      	cbnz	r3, 80075ae <USB_EPSetStall+0x22>
    PCD_SET_EP_RX_STATUS(USBx, ep->num, USB_EP_RX_STALL);
 8007596:	4b0c      	ldr	r3, [pc, #48]	; (80075c8 <USB_EPSetStall+0x3c>)
 8007598:	400b      	ands	r3, r1
 800759a:	f483 5380 	eor.w	r3, r3, #4096	; 0x1000
 800759e:	f443 4300 	orr.w	r3, r3, #32768	; 0x8000
 80075a2:	f043 0380 	orr.w	r3, r3, #128	; 0x80
 80075a6:	f820 3022 	strh.w	r3, [r0, r2, lsl #2]
}
 80075aa:	2000      	movs	r0, #0
 80075ac:	4770      	bx	lr
    PCD_SET_EP_TX_STATUS(USBx, ep->num, USB_EP_TX_STALL);
 80075ae:	4b07      	ldr	r3, [pc, #28]	; (80075cc <USB_EPSetStall+0x40>)
 80075b0:	400b      	ands	r3, r1
 80075b2:	f083 0310 	eor.w	r3, r3, #16
 80075b6:	f443 4300 	orr.w	r3, r3, #32768	; 0x8000
 80075ba:	f043 0380 	orr.w	r3, r3, #128	; 0x80
 80075be:	f820 3022 	strh.w	r3, [r0, r2, lsl #2]
}
 80075c2:	2000      	movs	r0, #0
 80075c4:	4770      	bx	lr
 80075c6:	bf00      	nop
 80075c8:	ffffbf8f 	.word	0xffffbf8f
 80075cc:	ffff8fbf 	.word	0xffff8fbf

080075d0 <USB_EPClearStall>:
  if (ep->doublebuffer == 0U)
 80075d0:	7b0b      	ldrb	r3, [r1, #12]
 80075d2:	2b00      	cmp	r3, #0
 80075d4:	d139      	bne.n	800764a <USB_EPClearStall+0x7a>
{
 80075d6:	b410      	push	{r4}
 80075d8:	780b      	ldrb	r3, [r1, #0]
    if (ep->is_in != 0U)
 80075da:	784c      	ldrb	r4, [r1, #1]
 80075dc:	eb00 0283 	add.w	r2, r0, r3, lsl #2
 80075e0:	b314      	cbz	r4, 8007628 <USB_EPClearStall+0x58>
      PCD_CLEAR_TX_DTOG(USBx, ep->num);
 80075e2:	f830 2023 	ldrh.w	r2, [r0, r3, lsl #2]
 80075e6:	0652      	lsls	r2, r2, #25
 80075e8:	d50b      	bpl.n	8007602 <USB_EPClearStall+0x32>
 80075ea:	f830 2023 	ldrh.w	r2, [r0, r3, lsl #2]
 80075ee:	f022 02f0 	bic.w	r2, r2, #240	; 0xf0
 80075f2:	0512      	lsls	r2, r2, #20
 80075f4:	0d12      	lsrs	r2, r2, #20
 80075f6:	f442 4200 	orr.w	r2, r2, #32768	; 0x8000
 80075fa:	f042 02c0 	orr.w	r2, r2, #192	; 0xc0
 80075fe:	f820 2023 	strh.w	r2, [r0, r3, lsl #2]
      if (ep->type != EP_TYPE_ISOC)
 8007602:	78cb      	ldrb	r3, [r1, #3]
 8007604:	2b01      	cmp	r3, #1
 8007606:	d01d      	beq.n	8007644 <USB_EPClearStall+0x74>
        PCD_SET_EP_TX_STATUS(USBx, ep->num, USB_EP_TX_NAK);
 8007608:	780a      	ldrb	r2, [r1, #0]
 800760a:	4b19      	ldr	r3, [pc, #100]	; (8007670 <USB_EPClearStall+0xa0>)
 800760c:	f830 1022 	ldrh.w	r1, [r0, r2, lsl #2]
}
 8007610:	bc10      	pop	{r4}
        PCD_SET_EP_TX_STATUS(USBx, ep->num, USB_EP_TX_NAK);
 8007612:	400b      	ands	r3, r1
 8007614:	f083 0320 	eor.w	r3, r3, #32
 8007618:	f443 4300 	orr.w	r3, r3, #32768	; 0x8000
 800761c:	f043 0380 	orr.w	r3, r3, #128	; 0x80
 8007620:	f820 3022 	strh.w	r3, [r0, r2, lsl #2]
}
 8007624:	2000      	movs	r0, #0
 8007626:	4770      	bx	lr
      PCD_CLEAR_RX_DTOG(USBx, ep->num);
 8007628:	f830 4023 	ldrh.w	r4, [r0, r3, lsl #2]
 800762c:	0464      	lsls	r4, r4, #17
 800762e:	d40e      	bmi.n	800764e <USB_EPClearStall+0x7e>
      PCD_SET_EP_RX_STATUS(USBx, ep->num, USB_EP_RX_VALID);
 8007630:	8811      	ldrh	r1, [r2, #0]
 8007632:	4b10      	ldr	r3, [pc, #64]	; (8007674 <USB_EPClearStall+0xa4>)
 8007634:	400b      	ands	r3, r1
 8007636:	f483 5340 	eor.w	r3, r3, #12288	; 0x3000
 800763a:	f443 4300 	orr.w	r3, r3, #32768	; 0x8000
 800763e:	f043 0380 	orr.w	r3, r3, #128	; 0x80
 8007642:	8013      	strh	r3, [r2, #0]
}
 8007644:	2000      	movs	r0, #0
 8007646:	bc10      	pop	{r4}
 8007648:	4770      	bx	lr
 800764a:	2000      	movs	r0, #0
 800764c:	4770      	bx	lr
      PCD_CLEAR_RX_DTOG(USBx, ep->num);
 800764e:	f830 2023 	ldrh.w	r2, [r0, r3, lsl #2]
 8007652:	f022 02f0 	bic.w	r2, r2, #240	; 0xf0
 8007656:	0512      	lsls	r2, r2, #20
 8007658:	0d12      	lsrs	r2, r2, #20
 800765a:	f442 4240 	orr.w	r2, r2, #49152	; 0xc000
 800765e:	f042 0280 	orr.w	r2, r2, #128	; 0x80
 8007662:	f820 2023 	strh.w	r2, [r0, r3, lsl #2]
 8007666:	780a      	ldrb	r2, [r1, #0]
 8007668:	eb00 0282 	add.w	r2, r0, r2, lsl #2
 800766c:	e7e0      	b.n	8007630 <USB_EPClearStall+0x60>
 800766e:	bf00      	nop
 8007670:	ffff8fbf 	.word	0xffff8fbf
 8007674:	ffffbf8f 	.word	0xffffbf8f

08007678 <USB_SetDevAddress>:
  if (address == 0U)
 8007678:	b911      	cbnz	r1, 8007680 <USB_SetDevAddress+0x8>
    USBx->DADDR = USB_DADDR_EF;
 800767a:	2380      	movs	r3, #128	; 0x80
 800767c:	f8a0 304c 	strh.w	r3, [r0, #76]	; 0x4c
}
 8007680:	2000      	movs	r0, #0
 8007682:	4770      	bx	lr

08007684 <USB_DevConnect>:
 8007684:	2000      	movs	r0, #0
 8007686:	4770      	bx	lr

08007688 <USB_DevDisconnect>:
 8007688:	2000      	movs	r0, #0
 800768a:	4770      	bx	lr

0800768c <USB_ReadInterrupts>:
  tmpreg = USBx->ISTR;
 800768c:	f8b0 0044 	ldrh.w	r0, [r0, #68]	; 0x44
}
 8007690:	4770      	bx	lr
 8007692:	bf00      	nop

08007694 <USB_EP0_OutStart>:
}
 8007694:	2000      	movs	r0, #0
 8007696:	4770      	bx	lr

08007698 <USB_ReadPMA>:
  uint32_t BaseAddr = (uint32_t)USBx;
  uint32_t i, temp;
  __IO uint16_t *pdwVal;
  uint8_t *pBuf = pbUsrBuf;

  pdwVal = (__IO uint16_t *)(BaseAddr + 0x400U + ((uint32_t)wPMABufAddr * PMA_ACCESS));
 8007698:	eb00 0242 	add.w	r2, r0, r2, lsl #1

  for (i = n; i != 0U; i--)
 800769c:	0858      	lsrs	r0, r3, #1
  pdwVal = (__IO uint16_t *)(BaseAddr + 0x400U + ((uint32_t)wPMABufAddr * PMA_ACCESS));
 800769e:	f502 6280 	add.w	r2, r2, #1024	; 0x400
  for (i = n; i != 0U; i--)
 80076a2:	d01a      	beq.n	80076da <USB_ReadPMA+0x42>
{
 80076a4:	b4f0      	push	{r4, r5, r6, r7}
  pdwVal = (__IO uint16_t *)(BaseAddr + 0x400U + ((uint32_t)wPMABufAddr * PMA_ACCESS));
 80076a6:	4617      	mov	r7, r2
  for (i = n; i != 0U; i--)
 80076a8:	4606      	mov	r6, r0
 80076aa:	1c8d      	adds	r5, r1, #2
  {
    temp = *(__IO uint16_t *)pdwVal;
 80076ac:	f837 4b04 	ldrh.w	r4, [r7], #4
  for (i = n; i != 0U; i--)
 80076b0:	3e01      	subs	r6, #1
    temp = *(__IO uint16_t *)pdwVal;
 80076b2:	b2a4      	uxth	r4, r4
    pdwVal++;
    *pBuf = (uint8_t)((temp >> 0) & 0xFFU);
    pBuf++;
    *pBuf = (uint8_t)((temp >> 8) & 0xFFU);
 80076b4:	ea4f 2c14 	mov.w	ip, r4, lsr #8
    *pBuf = (uint8_t)((temp >> 0) & 0xFFU);
 80076b8:	f805 4c02 	strb.w	r4, [r5, #-2]
    *pBuf = (uint8_t)((temp >> 8) & 0xFFU);
 80076bc:	f805 cc01 	strb.w	ip, [r5, #-1]
 80076c0:	f105 0502 	add.w	r5, r5, #2
  for (i = n; i != 0U; i--)
 80076c4:	d1f2      	bne.n	80076ac <USB_ReadPMA+0x14>
  if ((wNBytes % 2U) != 0U)
  {
    temp = *pdwVal;
    *pBuf = (uint8_t)((temp >> 0) & 0xFFU);
  }
}
 80076c6:	bcf0      	pop	{r4, r5, r6, r7}
 80076c8:	eb01 0140 	add.w	r1, r1, r0, lsl #1
 80076cc:	eb02 0280 	add.w	r2, r2, r0, lsl #2
  if ((wNBytes % 2U) != 0U)
 80076d0:	07d8      	lsls	r0, r3, #31
    temp = *pdwVal;
 80076d2:	bf44      	itt	mi
 80076d4:	8813      	ldrhmi	r3, [r2, #0]
    *pBuf = (uint8_t)((temp >> 0) & 0xFFU);
 80076d6:	700b      	strbmi	r3, [r1, #0]
}
 80076d8:	4770      	bx	lr
  if ((wNBytes % 2U) != 0U)
 80076da:	07db      	lsls	r3, r3, #31
    temp = *pdwVal;
 80076dc:	bf44      	itt	mi
 80076de:	8813      	ldrhmi	r3, [r2, #0]
    *pBuf = (uint8_t)((temp >> 0) & 0xFFU);
 80076e0:	700b      	strbmi	r3, [r1, #0]
 80076e2:	4770      	bx	lr

080076e4 <USBD_CDC_EP0_RxReady>:
  */
static uint8_t  USBD_CDC_EP0_RxReady(USBD_HandleTypeDef *pdev)
{
  USBD_CDC_HandleTypeDef   *hcdc = (USBD_CDC_HandleTypeDef *) pdev->pClassData;

  if ((pdev->pUserData != NULL) && (hcdc->CmdOpCode != 0xFFU))
 80076e4:	f8d0 32bc 	ldr.w	r3, [r0, #700]	; 0x2bc
 80076e8:	b183      	cbz	r3, 800770c <USBD_CDC_EP0_RxReady+0x28>
{
 80076ea:	b510      	push	{r4, lr}
  USBD_CDC_HandleTypeDef   *hcdc = (USBD_CDC_HandleTypeDef *) pdev->pClassData;
 80076ec:	f8d0 42b8 	ldr.w	r4, [r0, #696]	; 0x2b8
  if ((pdev->pUserData != NULL) && (hcdc->CmdOpCode != 0xFFU))
 80076f0:	f894 0200 	ldrb.w	r0, [r4, #512]	; 0x200
 80076f4:	28ff      	cmp	r0, #255	; 0xff
 80076f6:	d007      	beq.n	8007708 <USBD_CDC_EP0_RxReady+0x24>
  {
    ((USBD_CDC_ItfTypeDef *)pdev->pUserData)->Control(hcdc->CmdOpCode,
 80076f8:	689b      	ldr	r3, [r3, #8]
 80076fa:	f894 2201 	ldrb.w	r2, [r4, #513]	; 0x201
 80076fe:	4621      	mov	r1, r4
 8007700:	4798      	blx	r3
                                                      (uint8_t *)(void *)hcdc->data,
                                                      (uint16_t)hcdc->CmdLength);
    hcdc->CmdOpCode = 0xFFU;
 8007702:	23ff      	movs	r3, #255	; 0xff
 8007704:	f884 3200 	strb.w	r3, [r4, #512]	; 0x200

  }
  return USBD_OK;
}
 8007708:	2000      	movs	r0, #0
 800770a:	bd10      	pop	{r4, pc}
 800770c:	2000      	movs	r0, #0
 800770e:	4770      	bx	lr

08007710 <USBD_CDC_GetFSCfgDesc>:
  * @param  length : pointer data length
  * @retval pointer to descriptor buffer
  */
static uint8_t  *USBD_CDC_GetFSCfgDesc(uint16_t *length)
{
  *length = sizeof(USBD_CDC_CfgFSDesc);
 8007710:	2343      	movs	r3, #67	; 0x43
 8007712:	8003      	strh	r3, [r0, #0]
  return USBD_CDC_CfgFSDesc;
}
 8007714:	4800      	ldr	r0, [pc, #0]	; (8007718 <USBD_CDC_GetFSCfgDesc+0x8>)
 8007716:	4770      	bx	lr
 8007718:	2000007c 	.word	0x2000007c

0800771c <USBD_CDC_GetHSCfgDesc>:
  * @param  length : pointer data length
  * @retval pointer to descriptor buffer
  */
static uint8_t  *USBD_CDC_GetHSCfgDesc(uint16_t *length)
{
  *length = sizeof(USBD_CDC_CfgHSDesc);
 800771c:	2343      	movs	r3, #67	; 0x43
 800771e:	8003      	strh	r3, [r0, #0]
  return USBD_CDC_CfgHSDesc;
}
 8007720:	4800      	ldr	r0, [pc, #0]	; (8007724 <USBD_CDC_GetHSCfgDesc+0x8>)
 8007722:	4770      	bx	lr
 8007724:	200000c0 	.word	0x200000c0

08007728 <USBD_CDC_GetOtherSpeedCfgDesc>:
  * @param  length : pointer data length
  * @retval pointer to descriptor buffer
  */
static uint8_t  *USBD_CDC_GetOtherSpeedCfgDesc(uint16_t *length)
{
  *length = sizeof(USBD_CDC_OtherSpeedCfgDesc);
 8007728:	2343      	movs	r3, #67	; 0x43
 800772a:	8003      	strh	r3, [r0, #0]
  return USBD_CDC_OtherSpeedCfgDesc;
}
 800772c:	4800      	ldr	r0, [pc, #0]	; (8007730 <USBD_CDC_GetOtherSpeedCfgDesc+0x8>)
 800772e:	4770      	bx	lr
 8007730:	20000110 	.word	0x20000110

08007734 <USBD_CDC_GetDeviceQualifierDescriptor>:
* @param  length : pointer data length
* @retval pointer to descriptor buffer
*/
uint8_t  *USBD_CDC_GetDeviceQualifierDescriptor(uint16_t *length)
{
  *length = sizeof(USBD_CDC_DeviceQualifierDesc);
 8007734:	230a      	movs	r3, #10
 8007736:	8003      	strh	r3, [r0, #0]
  return USBD_CDC_DeviceQualifierDesc;
}
 8007738:	4800      	ldr	r0, [pc, #0]	; (800773c <USBD_CDC_GetDeviceQualifierDescriptor+0x8>)
 800773a:	4770      	bx	lr
 800773c:	20000104 	.word	0x20000104

08007740 <USBD_CDC_DataOut>:
{
 8007740:	b538      	push	{r3, r4, r5, lr}
 8007742:	4604      	mov	r4, r0
  USBD_CDC_HandleTypeDef   *hcdc = (USBD_CDC_HandleTypeDef *) pdev->pClassData;
 8007744:	f8d0 52b8 	ldr.w	r5, [r0, #696]	; 0x2b8
  hcdc->RxLength = USBD_LL_GetRxDataSize(pdev, epnum);
 8007748:	f000 ffda 	bl	8008700 <USBD_LL_GetRxDataSize>
  if (pdev->pClassData != NULL)
 800774c:	f8d4 32b8 	ldr.w	r3, [r4, #696]	; 0x2b8
  hcdc->RxLength = USBD_LL_GetRxDataSize(pdev, epnum);
 8007750:	f8c5 020c 	str.w	r0, [r5, #524]	; 0x20c
  if (pdev->pClassData != NULL)
 8007754:	b14b      	cbz	r3, 800776a <USBD_CDC_DataOut+0x2a>
    ((USBD_CDC_ItfTypeDef *)pdev->pUserData)->Receive(hcdc->RxBuffer, &hcdc->RxLength);
 8007756:	f8d4 32bc 	ldr.w	r3, [r4, #700]	; 0x2bc
 800775a:	f505 7103 	add.w	r1, r5, #524	; 0x20c
 800775e:	68db      	ldr	r3, [r3, #12]
 8007760:	f8d5 0204 	ldr.w	r0, [r5, #516]	; 0x204
 8007764:	4798      	blx	r3
    return USBD_OK;
 8007766:	2000      	movs	r0, #0
}
 8007768:	bd38      	pop	{r3, r4, r5, pc}
    return USBD_FAIL;
 800776a:	2002      	movs	r0, #2
}
 800776c:	bd38      	pop	{r3, r4, r5, pc}
 800776e:	bf00      	nop

08007770 <USBD_CDC_DataIn>:
{
 8007770:	b5f8      	push	{r3, r4, r5, r6, r7, lr}
  USBD_CDC_HandleTypeDef *hcdc = (USBD_CDC_HandleTypeDef *)pdev->pClassData;
 8007772:	f8d0 62b8 	ldr.w	r6, [r0, #696]	; 0x2b8
  if (pdev->pClassData != NULL)
 8007776:	b1d6      	cbz	r6, 80077ae <USBD_CDC_DataIn+0x3e>
    if ((pdev->ep_in[epnum].total_length > 0U) && ((pdev->ep_in[epnum].total_length % hpcd->IN_ep[epnum].maxpacket) == 0U))
 8007778:	eb01 0381 	add.w	r3, r1, r1, lsl #2
 800777c:	eb00 0383 	add.w	r3, r0, r3, lsl #2
 8007780:	69df      	ldr	r7, [r3, #28]
 8007782:	b14f      	cbz	r7, 8007798 <USBD_CDC_DataIn+0x28>
 8007784:	f8d0 22c0 	ldr.w	r2, [r0, #704]	; 0x2c0
 8007788:	eb02 1541 	add.w	r5, r2, r1, lsl #5
 800778c:	6baa      	ldr	r2, [r5, #56]	; 0x38
 800778e:	fbb7 f4f2 	udiv	r4, r7, r2
 8007792:	fb02 7414 	mls	r4, r2, r4, r7
 8007796:	b11c      	cbz	r4, 80077a0 <USBD_CDC_DataIn+0x30>
      hcdc->TxState = 0U;
 8007798:	2000      	movs	r0, #0
 800779a:	f8c6 0214 	str.w	r0, [r6, #532]	; 0x214
}
 800779e:	bdf8      	pop	{r3, r4, r5, r6, r7, pc}
      pdev->ep_in[epnum].total_length = 0U;
 80077a0:	61dc      	str	r4, [r3, #28]
      USBD_LL_Transmit(pdev, epnum, NULL, 0U);
 80077a2:	4622      	mov	r2, r4
 80077a4:	4623      	mov	r3, r4
 80077a6:	f000 ff8f 	bl	80086c8 <USBD_LL_Transmit>
    return USBD_OK;
 80077aa:	4620      	mov	r0, r4
}
 80077ac:	bdf8      	pop	{r3, r4, r5, r6, r7, pc}
    return USBD_FAIL;
 80077ae:	2002      	movs	r0, #2
}
 80077b0:	bdf8      	pop	{r3, r4, r5, r6, r7, pc}
 80077b2:	bf00      	nop

080077b4 <USBD_CDC_Setup>:
{
 80077b4:	e92d 41f0 	stmdb	sp!, {r4, r5, r6, r7, r8, lr}
  uint8_t ifalt = 0U;
 80077b8:	2700      	movs	r7, #0
  switch (req->bmRequest & USB_REQ_TYPE_MASK)
 80077ba:	780b      	ldrb	r3, [r1, #0]
{
 80077bc:	b082      	sub	sp, #8
  switch (req->bmRequest & USB_REQ_TYPE_MASK)
 80077be:	f013 0460 	ands.w	r4, r3, #96	; 0x60
{
 80077c2:	460d      	mov	r5, r1
 80077c4:	4606      	mov	r6, r0
  USBD_CDC_HandleTypeDef   *hcdc = (USBD_CDC_HandleTypeDef *) pdev->pClassData;
 80077c6:	f8d0 82b8 	ldr.w	r8, [r0, #696]	; 0x2b8
  uint8_t ifalt = 0U;
 80077ca:	f88d 7005 	strb.w	r7, [sp, #5]
  uint16_t status_info = 0U;
 80077ce:	f8ad 7006 	strh.w	r7, [sp, #6]
  switch (req->bmRequest & USB_REQ_TYPE_MASK)
 80077d2:	d00f      	beq.n	80077f4 <USBD_CDC_Setup+0x40>
 80077d4:	2c20      	cmp	r4, #32
 80077d6:	d117      	bne.n	8007808 <USBD_CDC_Setup+0x54>
      if (req->wLength)
 80077d8:	88cc      	ldrh	r4, [r1, #6]
 80077da:	f891 c001 	ldrb.w	ip, [r1, #1]
 80077de:	bb64      	cbnz	r4, 800783a <USBD_CDC_Setup+0x86>
        ((USBD_CDC_ItfTypeDef *)pdev->pUserData)->Control(req->bRequest,
 80077e0:	f8d0 32bc 	ldr.w	r3, [r0, #700]	; 0x2bc
 80077e4:	4622      	mov	r2, r4
 80077e6:	4660      	mov	r0, ip
 80077e8:	689b      	ldr	r3, [r3, #8]
 80077ea:	4798      	blx	r3
  uint8_t ret = USBD_OK;
 80077ec:	4620      	mov	r0, r4
}
 80077ee:	b002      	add	sp, #8
 80077f0:	e8bd 81f0 	ldmia.w	sp!, {r4, r5, r6, r7, r8, pc}
      switch (req->bRequest)
 80077f4:	784f      	ldrb	r7, [r1, #1]
 80077f6:	2f0a      	cmp	r7, #10
 80077f8:	d014      	beq.n	8007824 <USBD_CDC_Setup+0x70>
 80077fa:	2f0b      	cmp	r7, #11
 80077fc:	d00c      	beq.n	8007818 <USBD_CDC_Setup+0x64>
 80077fe:	b91f      	cbnz	r7, 8007808 <USBD_CDC_Setup+0x54>
          if (pdev->dev_state == USBD_STATE_CONFIGURED)
 8007800:	f890 329c 	ldrb.w	r3, [r0, #668]	; 0x29c
 8007804:	2b03      	cmp	r3, #3
 8007806:	d028      	beq.n	800785a <USBD_CDC_Setup+0xa6>
          USBD_CtlError(pdev, req);
 8007808:	4630      	mov	r0, r6
 800780a:	4629      	mov	r1, r5
 800780c:	f000 fc9e 	bl	800814c <USBD_CtlError>
          ret = USBD_FAIL;
 8007810:	2002      	movs	r0, #2
}
 8007812:	b002      	add	sp, #8
 8007814:	e8bd 81f0 	ldmia.w	sp!, {r4, r5, r6, r7, r8, pc}
          if (pdev->dev_state != USBD_STATE_CONFIGURED)
 8007818:	f890 329c 	ldrb.w	r3, [r0, #668]	; 0x29c
 800781c:	2b03      	cmp	r3, #3
 800781e:	d1f3      	bne.n	8007808 <USBD_CDC_Setup+0x54>
  uint8_t ret = USBD_OK;
 8007820:	4620      	mov	r0, r4
 8007822:	e7f6      	b.n	8007812 <USBD_CDC_Setup+0x5e>
          if (pdev->dev_state == USBD_STATE_CONFIGURED)
 8007824:	f890 329c 	ldrb.w	r3, [r0, #668]	; 0x29c
 8007828:	2b03      	cmp	r3, #3
 800782a:	d1ed      	bne.n	8007808 <USBD_CDC_Setup+0x54>
            USBD_CtlSendData(pdev, &ifalt, 1U);
 800782c:	2201      	movs	r2, #1
 800782e:	f10d 0105 	add.w	r1, sp, #5
 8007832:	f000 fcbd 	bl	80081b0 <USBD_CtlSendData>
  uint8_t ret = USBD_OK;
 8007836:	4620      	mov	r0, r4
 8007838:	e7eb      	b.n	8007812 <USBD_CDC_Setup+0x5e>
        if (req->bmRequest & 0x80U)
 800783a:	061b      	lsls	r3, r3, #24
 800783c:	d514      	bpl.n	8007868 <USBD_CDC_Setup+0xb4>
          ((USBD_CDC_ItfTypeDef *)pdev->pUserData)->Control(req->bRequest,
 800783e:	f8d0 32bc 	ldr.w	r3, [r0, #700]	; 0x2bc
 8007842:	4622      	mov	r2, r4
 8007844:	4660      	mov	r0, ip
 8007846:	689b      	ldr	r3, [r3, #8]
 8007848:	4641      	mov	r1, r8
 800784a:	4798      	blx	r3
          USBD_CtlSendData(pdev, (uint8_t *)(void *)hcdc->data, req->wLength);
 800784c:	88ea      	ldrh	r2, [r5, #6]
 800784e:	4641      	mov	r1, r8
 8007850:	4630      	mov	r0, r6
 8007852:	f000 fcad 	bl	80081b0 <USBD_CtlSendData>
  uint8_t ret = USBD_OK;
 8007856:	4638      	mov	r0, r7
 8007858:	e7db      	b.n	8007812 <USBD_CDC_Setup+0x5e>
            USBD_CtlSendData(pdev, (uint8_t *)(void *)&status_info, 2U);
 800785a:	2202      	movs	r2, #2
 800785c:	f10d 0106 	add.w	r1, sp, #6
 8007860:	f000 fca6 	bl	80081b0 <USBD_CtlSendData>
  uint8_t ret = USBD_OK;
 8007864:	4638      	mov	r0, r7
 8007866:	e7d4      	b.n	8007812 <USBD_CDC_Setup+0x5e>
          hcdc->CmdOpCode = req->bRequest;
 8007868:	f888 c200 	strb.w	ip, [r8, #512]	; 0x200
          hcdc->CmdLength = (uint8_t)req->wLength;
 800786c:	f888 4201 	strb.w	r4, [r8, #513]	; 0x201
          USBD_CtlPrepareRx(pdev, (uint8_t *)(void *)hcdc->data, req->wLength);
 8007870:	4622      	mov	r2, r4
 8007872:	4641      	mov	r1, r8
 8007874:	f000 fcb2 	bl	80081dc <USBD_CtlPrepareRx>
  uint8_t ret = USBD_OK;
 8007878:	4638      	mov	r0, r7
 800787a:	e7ca      	b.n	8007812 <USBD_CDC_Setup+0x5e>

0800787c <USBD_CDC_DeInit>:
{
 800787c:	b538      	push	{r3, r4, r5, lr}
 800787e:	4604      	mov	r4, r0
  pdev->ep_in[CDC_IN_EP & 0xFU].is_used = 0U;
 8007880:	2500      	movs	r5, #0
  USBD_LL_CloseEP(pdev, CDC_IN_EP);
 8007882:	2181      	movs	r1, #129	; 0x81
 8007884:	f000 fed8 	bl	8008638 <USBD_LL_CloseEP>
  USBD_LL_CloseEP(pdev, CDC_OUT_EP);
 8007888:	2101      	movs	r1, #1
  pdev->ep_in[CDC_IN_EP & 0xFU].is_used = 0U;
 800788a:	62e5      	str	r5, [r4, #44]	; 0x2c
  USBD_LL_CloseEP(pdev, CDC_OUT_EP);
 800788c:	4620      	mov	r0, r4
 800788e:	f000 fed3 	bl	8008638 <USBD_LL_CloseEP>
  pdev->ep_out[CDC_OUT_EP & 0xFU].is_used = 0U;
 8007892:	f8c4 516c 	str.w	r5, [r4, #364]	; 0x16c
  USBD_LL_CloseEP(pdev, CDC_CMD_EP);
 8007896:	4620      	mov	r0, r4
 8007898:	2182      	movs	r1, #130	; 0x82
 800789a:	f000 fecd 	bl	8008638 <USBD_LL_CloseEP>
  if (pdev->pClassData != NULL)
 800789e:	f8d4 32b8 	ldr.w	r3, [r4, #696]	; 0x2b8
  pdev->ep_in[CDC_CMD_EP & 0xFU].is_used = 0U;
 80078a2:	6425      	str	r5, [r4, #64]	; 0x40
  if (pdev->pClassData != NULL)
 80078a4:	b14b      	cbz	r3, 80078ba <USBD_CDC_DeInit+0x3e>
    ((USBD_CDC_ItfTypeDef *)pdev->pUserData)->DeInit();
 80078a6:	f8d4 32bc 	ldr.w	r3, [r4, #700]	; 0x2bc
 80078aa:	685b      	ldr	r3, [r3, #4]
 80078ac:	4798      	blx	r3
    USBD_free(pdev->pClassData);
 80078ae:	f8d4 02b8 	ldr.w	r0, [r4, #696]	; 0x2b8
 80078b2:	f000 ff2d 	bl	8008710 <USBD_static_free>
    pdev->pClassData = NULL;
 80078b6:	f8c4 52b8 	str.w	r5, [r4, #696]	; 0x2b8
}
 80078ba:	2000      	movs	r0, #0
 80078bc:	bd38      	pop	{r3, r4, r5, pc}
 80078be:	bf00      	nop

080078c0 <USBD_CDC_Init>:
  if (pdev->dev_speed == USBD_SPEED_HIGH)
 80078c0:	7c03      	ldrb	r3, [r0, #16]
{
 80078c2:	e92d 41f0 	stmdb	sp!, {r4, r5, r6, r7, r8, lr}
 80078c6:	4604      	mov	r4, r0
    pdev->ep_in[CDC_IN_EP & 0xFU].is_used = 1U;
 80078c8:	2501      	movs	r5, #1
  if (pdev->dev_speed == USBD_SPEED_HIGH)
 80078ca:	bbbb      	cbnz	r3, 800793c <USBD_CDC_Init+0x7c>
    USBD_LL_OpenEP(pdev, CDC_IN_EP, USBD_EP_TYPE_BULK,
 80078cc:	f44f 7300 	mov.w	r3, #512	; 0x200
 80078d0:	2202      	movs	r2, #2
 80078d2:	2181      	movs	r1, #129	; 0x81
 80078d4:	f000 fea0 	bl	8008618 <USBD_LL_OpenEP>
    pdev->ep_in[CDC_IN_EP & 0xFU].is_used = 1U;
 80078d8:	62e5      	str	r5, [r4, #44]	; 0x2c
    USBD_LL_OpenEP(pdev, CDC_OUT_EP, USBD_EP_TYPE_BULK,
 80078da:	4629      	mov	r1, r5
 80078dc:	f44f 7300 	mov.w	r3, #512	; 0x200
 80078e0:	2202      	movs	r2, #2
 80078e2:	4620      	mov	r0, r4
 80078e4:	f000 fe98 	bl	8008618 <USBD_LL_OpenEP>
    pdev->ep_out[CDC_OUT_EP & 0xFU].is_used = 1U;
 80078e8:	f8c4 516c 	str.w	r5, [r4, #364]	; 0x16c
  pdev->ep_in[CDC_CMD_EP & 0xFU].is_used = 1U;
 80078ec:	2701      	movs	r7, #1
  USBD_LL_OpenEP(pdev, CDC_CMD_EP, USBD_EP_TYPE_INTR, CDC_CMD_PACKET_SIZE);
 80078ee:	2308      	movs	r3, #8
 80078f0:	2203      	movs	r2, #3
 80078f2:	2182      	movs	r1, #130	; 0x82
 80078f4:	4620      	mov	r0, r4
 80078f6:	f000 fe8f 	bl	8008618 <USBD_LL_OpenEP>
  pdev->ep_in[CDC_CMD_EP & 0xFU].is_used = 1U;
 80078fa:	6427      	str	r7, [r4, #64]	; 0x40
  pdev->pClassData = USBD_malloc(sizeof(USBD_CDC_HandleTypeDef));
 80078fc:	f44f 7007 	mov.w	r0, #540	; 0x21c
 8007900:	f000 ff02 	bl	8008708 <USBD_static_malloc>
 8007904:	4605      	mov	r5, r0
 8007906:	f8c4 02b8 	str.w	r0, [r4, #696]	; 0x2b8
  if (pdev->pClassData == NULL)
 800790a:	b368      	cbz	r0, 8007968 <USBD_CDC_Init+0xa8>
    hcdc->TxState = 0U;
 800790c:	2600      	movs	r6, #0
    ((USBD_CDC_ItfTypeDef *)pdev->pUserData)->Init();
 800790e:	f8d4 32bc 	ldr.w	r3, [r4, #700]	; 0x2bc
 8007912:	681b      	ldr	r3, [r3, #0]
 8007914:	4798      	blx	r3
    if (pdev->dev_speed == USBD_SPEED_HIGH)
 8007916:	f894 8010 	ldrb.w	r8, [r4, #16]
      USBD_LL_PrepareReceive(pdev, CDC_OUT_EP, hcdc->RxBuffer,
 800791a:	f8d5 2204 	ldr.w	r2, [r5, #516]	; 0x204
    hcdc->TxState = 0U;
 800791e:	f8c5 6214 	str.w	r6, [r5, #532]	; 0x214
      USBD_LL_PrepareReceive(pdev, CDC_OUT_EP, hcdc->RxBuffer,
 8007922:	4639      	mov	r1, r7
    hcdc->RxState = 0U;
 8007924:	f8c5 6218 	str.w	r6, [r5, #536]	; 0x218
      USBD_LL_PrepareReceive(pdev, CDC_OUT_EP, hcdc->RxBuffer,
 8007928:	4620      	mov	r0, r4
    if (pdev->dev_speed == USBD_SPEED_HIGH)
 800792a:	f1b8 0f00 	cmp.w	r8, #0
 800792e:	d014      	beq.n	800795a <USBD_CDC_Init+0x9a>
      USBD_LL_PrepareReceive(pdev, CDC_OUT_EP, hcdc->RxBuffer,
 8007930:	2340      	movs	r3, #64	; 0x40
 8007932:	f000 fed7 	bl	80086e4 <USBD_LL_PrepareReceive>
  uint8_t ret = 0U;
 8007936:	4630      	mov	r0, r6
}
 8007938:	e8bd 81f0 	ldmia.w	sp!, {r4, r5, r6, r7, r8, pc}
    USBD_LL_OpenEP(pdev, CDC_IN_EP, USBD_EP_TYPE_BULK,
 800793c:	2340      	movs	r3, #64	; 0x40
 800793e:	2202      	movs	r2, #2
 8007940:	2181      	movs	r1, #129	; 0x81
 8007942:	f000 fe69 	bl	8008618 <USBD_LL_OpenEP>
    pdev->ep_in[CDC_IN_EP & 0xFU].is_used = 1U;
 8007946:	62e5      	str	r5, [r4, #44]	; 0x2c
    USBD_LL_OpenEP(pdev, CDC_OUT_EP, USBD_EP_TYPE_BULK,
 8007948:	4629      	mov	r1, r5
 800794a:	2340      	movs	r3, #64	; 0x40
 800794c:	2202      	movs	r2, #2
 800794e:	4620      	mov	r0, r4
 8007950:	f000 fe62 	bl	8008618 <USBD_LL_OpenEP>
    pdev->ep_out[CDC_OUT_EP & 0xFU].is_used = 1U;
 8007954:	f8c4 516c 	str.w	r5, [r4, #364]	; 0x16c
 8007958:	e7c8      	b.n	80078ec <USBD_CDC_Init+0x2c>
      USBD_LL_PrepareReceive(pdev, CDC_OUT_EP, hcdc->RxBuffer,
 800795a:	f44f 7300 	mov.w	r3, #512	; 0x200
 800795e:	f000 fec1 	bl	80086e4 <USBD_LL_PrepareReceive>
  uint8_t ret = 0U;
 8007962:	4640      	mov	r0, r8
}
 8007964:	e8bd 81f0 	ldmia.w	sp!, {r4, r5, r6, r7, r8, pc}
    ret = 1U;
 8007968:	4638      	mov	r0, r7
 800796a:	e7e5      	b.n	8007938 <USBD_CDC_Init+0x78>

0800796c <USBD_CDC_RegisterInterface>:
uint8_t  USBD_CDC_RegisterInterface(USBD_HandleTypeDef   *pdev,
                                    USBD_CDC_ItfTypeDef *fops)
{
  uint8_t  ret = USBD_FAIL;

  if (fops != NULL)
 800796c:	b119      	cbz	r1, 8007976 <USBD_CDC_RegisterInterface+0xa>
  {
    pdev->pUserData = fops;
 800796e:	f8c0 12bc 	str.w	r1, [r0, #700]	; 0x2bc
    ret = USBD_OK;
 8007972:	2000      	movs	r0, #0
 8007974:	4770      	bx	lr
  uint8_t  ret = USBD_FAIL;
 8007976:	2002      	movs	r0, #2
  }

  return ret;
}
 8007978:	4770      	bx	lr
 800797a:	bf00      	nop

0800797c <USBD_CDC_SetTxBuffer>:
  */
uint8_t  USBD_CDC_SetTxBuffer(USBD_HandleTypeDef   *pdev,
                              uint8_t  *pbuff,
                              uint16_t length)
{
  USBD_CDC_HandleTypeDef   *hcdc = (USBD_CDC_HandleTypeDef *) pdev->pClassData;
 800797c:	f8d0 32b8 	ldr.w	r3, [r0, #696]	; 0x2b8

  hcdc->TxBuffer = pbuff;
  hcdc->TxLength = length;

  return USBD_OK;
}
 8007980:	2000      	movs	r0, #0
  hcdc->TxBuffer = pbuff;
 8007982:	f8c3 1208 	str.w	r1, [r3, #520]	; 0x208
  hcdc->TxLength = length;
 8007986:	f8c3 2210 	str.w	r2, [r3, #528]	; 0x210
}
 800798a:	4770      	bx	lr

0800798c <USBD_CDC_SetRxBuffer>:
uint8_t  USBD_CDC_SetRxBuffer(USBD_HandleTypeDef   *pdev,
                              uint8_t  *pbuff)
{
  USBD_CDC_HandleTypeDef   *hcdc = (USBD_CDC_HandleTypeDef *) pdev->pClassData;

  hcdc->RxBuffer = pbuff;
 800798c:	f8d0 32b8 	ldr.w	r3, [r0, #696]	; 0x2b8

  return USBD_OK;
}
 8007990:	2000      	movs	r0, #0
  hcdc->RxBuffer = pbuff;
 8007992:	f8c3 1204 	str.w	r1, [r3, #516]	; 0x204
}
 8007996:	4770      	bx	lr

08007998 <USBD_CDC_TransmitPacket>:
  * @param  pdev: device instance
  * @retval status
  */
uint8_t  USBD_CDC_TransmitPacket(USBD_HandleTypeDef *pdev)
{
  USBD_CDC_HandleTypeDef   *hcdc = (USBD_CDC_HandleTypeDef *) pdev->pClassData;
 8007998:	f8d0 22b8 	ldr.w	r2, [r0, #696]	; 0x2b8

  if (pdev->pClassData != NULL)
 800799c:	b19a      	cbz	r2, 80079c6 <USBD_CDC_TransmitPacket+0x2e>
{
 800799e:	b538      	push	{r3, r4, r5, lr}
  {
    if (hcdc->TxState == 0U)
 80079a0:	f8d2 4214 	ldr.w	r4, [r2, #532]	; 0x214
 80079a4:	b10c      	cbz	r4, 80079aa <USBD_CDC_TransmitPacket+0x12>

      return USBD_OK;
    }
    else
    {
      return USBD_BUSY;
 80079a6:	2001      	movs	r0, #1
  }
  else
  {
    return USBD_FAIL;
  }
}
 80079a8:	bd38      	pop	{r3, r4, r5, pc}
      hcdc->TxState = 1U;
 80079aa:	2501      	movs	r5, #1
      pdev->ep_in[CDC_IN_EP & 0xFU].total_length = hcdc->TxLength;
 80079ac:	f8d2 1210 	ldr.w	r1, [r2, #528]	; 0x210
      hcdc->TxState = 1U;
 80079b0:	f8c2 5214 	str.w	r5, [r2, #532]	; 0x214
      USBD_LL_Transmit(pdev, CDC_IN_EP, hcdc->TxBuffer,
 80079b4:	b28b      	uxth	r3, r1
 80079b6:	f8d2 2208 	ldr.w	r2, [r2, #520]	; 0x208
      pdev->ep_in[CDC_IN_EP & 0xFU].total_length = hcdc->TxLength;
 80079ba:	6301      	str	r1, [r0, #48]	; 0x30
      USBD_LL_Transmit(pdev, CDC_IN_EP, hcdc->TxBuffer,
 80079bc:	2181      	movs	r1, #129	; 0x81
 80079be:	f000 fe83 	bl	80086c8 <USBD_LL_Transmit>
      return USBD_OK;
 80079c2:	4620      	mov	r0, r4
}
 80079c4:	bd38      	pop	{r3, r4, r5, pc}
    return USBD_FAIL;
 80079c6:	2002      	movs	r0, #2
}
 80079c8:	4770      	bx	lr
 80079ca:	bf00      	nop

080079cc <USBD_CDC_ReceivePacket>:
  * @param  pdev: device instance
  * @retval status
  */
uint8_t  USBD_CDC_ReceivePacket(USBD_HandleTypeDef *pdev)
{
  USBD_CDC_HandleTypeDef   *hcdc = (USBD_CDC_HandleTypeDef *) pdev->pClassData;
 80079cc:	f8d0 22b8 	ldr.w	r2, [r0, #696]	; 0x2b8

  /* Suspend or Resume USB Out process */
  if (pdev->pClassData != NULL)
 80079d0:	b18a      	cbz	r2, 80079f6 <USBD_CDC_ReceivePacket+0x2a>
{
 80079d2:	b510      	push	{r4, lr}
  {
    if (pdev->dev_speed == USBD_SPEED_HIGH)
 80079d4:	7c04      	ldrb	r4, [r0, #16]
 80079d6:	f8d2 2204 	ldr.w	r2, [r2, #516]	; 0x204
 80079da:	b12c      	cbz	r4, 80079e8 <USBD_CDC_ReceivePacket+0x1c>
                             CDC_DATA_HS_OUT_PACKET_SIZE);
    }
    else
    {
      /* Prepare Out endpoint to receive next packet */
      USBD_LL_PrepareReceive(pdev,
 80079dc:	2340      	movs	r3, #64	; 0x40
 80079de:	2101      	movs	r1, #1
 80079e0:	f000 fe80 	bl	80086e4 <USBD_LL_PrepareReceive>
                             CDC_OUT_EP,
                             hcdc->RxBuffer,
                             CDC_DATA_FS_OUT_PACKET_SIZE);
    }
    return USBD_OK;
 80079e4:	2000      	movs	r0, #0
  }
  else
  {
    return USBD_FAIL;
  }
}
 80079e6:	bd10      	pop	{r4, pc}
      USBD_LL_PrepareReceive(pdev,
 80079e8:	f44f 7300 	mov.w	r3, #512	; 0x200
 80079ec:	2101      	movs	r1, #1
 80079ee:	f000 fe79 	bl	80086e4 <USBD_LL_PrepareReceive>
    return USBD_OK;
 80079f2:	4620      	mov	r0, r4
}
 80079f4:	bd10      	pop	{r4, pc}
    return USBD_FAIL;
 80079f6:	2002      	movs	r0, #2
}
 80079f8:	4770      	bx	lr
 80079fa:	bf00      	nop

080079fc <USBD_Init>:
*/
USBD_StatusTypeDef USBD_Init(USBD_HandleTypeDef *pdev,
                             USBD_DescriptorsTypeDef *pdesc, uint8_t id)
{
  /* Check whether the USB Host handle is valid */
  if (pdev == NULL)
 80079fc:	b188      	cbz	r0, 8007a22 <USBD_Init+0x26>
{
 80079fe:	b508      	push	{r3, lr}
#endif
    return USBD_FAIL;
  }

  /* Unlink previous class*/
  if (pdev->pClass != NULL)
 8007a00:	f8d0 32b4 	ldr.w	r3, [r0, #692]	; 0x2b4
 8007a04:	b113      	cbz	r3, 8007a0c <USBD_Init+0x10>
  {
    pdev->pClass = NULL;
 8007a06:	2300      	movs	r3, #0
 8007a08:	f8c0 32b4 	str.w	r3, [r0, #692]	; 0x2b4
  }

  /* Assign USBD Descriptors */
  if (pdesc != NULL)
 8007a0c:	b109      	cbz	r1, 8007a12 <USBD_Init+0x16>
  {
    pdev->pDesc = pdesc;
 8007a0e:	f8c0 12b0 	str.w	r1, [r0, #688]	; 0x2b0
  }

  /* Set Device initial State */
  pdev->dev_state = USBD_STATE_DEFAULT;
 8007a12:	2301      	movs	r3, #1
  pdev->id = id;
 8007a14:	7002      	strb	r2, [r0, #0]
  pdev->dev_state = USBD_STATE_DEFAULT;
 8007a16:	f880 329c 	strb.w	r3, [r0, #668]	; 0x29c
  /* Initialize low level driver */
  USBD_LL_Init(pdev);
 8007a1a:	f000 fdad 	bl	8008578 <USBD_LL_Init>

  return USBD_OK;
 8007a1e:	2000      	movs	r0, #0
}
 8007a20:	bd08      	pop	{r3, pc}
    return USBD_FAIL;
 8007a22:	2002      	movs	r0, #2
}
 8007a24:	4770      	bx	lr
 8007a26:	bf00      	nop

08007a28 <USBD_RegisterClass>:
  * @retval USBD Status
  */
USBD_StatusTypeDef  USBD_RegisterClass(USBD_HandleTypeDef *pdev, USBD_ClassTypeDef *pclass)
{
  USBD_StatusTypeDef status = USBD_OK;
  if (pclass != NULL)
 8007a28:	b119      	cbz	r1, 8007a32 <USBD_RegisterClass+0xa>
  {
    /* link the class to the USB Device handle */
    pdev->pClass = pclass;
 8007a2a:	f8c0 12b4 	str.w	r1, [r0, #692]	; 0x2b4
    status = USBD_OK;
 8007a2e:	2000      	movs	r0, #0
 8007a30:	4770      	bx	lr
  else
  {
#if (USBD_DEBUG_LEVEL > 1U)
    USBD_ErrLog("Invalid Class handle");
#endif
    status = USBD_FAIL;
 8007a32:	2002      	movs	r0, #2
  }

  return status;
}
 8007a34:	4770      	bx	lr
 8007a36:	bf00      	nop

08007a38 <USBD_Start>:
  *         Start the USB Device Core.
  * @param  pdev: Device Handle
  * @retval USBD Status
  */
USBD_StatusTypeDef  USBD_Start(USBD_HandleTypeDef *pdev)
{
 8007a38:	b508      	push	{r3, lr}
  /* Start the low level driver  */
  USBD_LL_Start(pdev);
 8007a3a:	f000 fddf 	bl	80085fc <USBD_LL_Start>

  return USBD_OK;
}
 8007a3e:	2000      	movs	r0, #0
 8007a40:	bd08      	pop	{r3, pc}
 8007a42:	bf00      	nop

08007a44 <USBD_SetClassConfig>:
* @param  cfgidx: configuration index
* @retval status
*/

USBD_StatusTypeDef USBD_SetClassConfig(USBD_HandleTypeDef  *pdev, uint8_t cfgidx)
{
 8007a44:	b508      	push	{r3, lr}
  USBD_StatusTypeDef ret = USBD_FAIL;

  if (pdev->pClass != NULL)
 8007a46:	f8d0 32b4 	ldr.w	r3, [r0, #692]	; 0x2b4
 8007a4a:	b11b      	cbz	r3, 8007a54 <USBD_SetClassConfig+0x10>
  {
    /* Set configuration  and Start the Class*/
    if (pdev->pClass->Init(pdev, cfgidx) == 0U)
 8007a4c:	681b      	ldr	r3, [r3, #0]
 8007a4e:	4798      	blx	r3
 8007a50:	b900      	cbnz	r0, 8007a54 <USBD_SetClassConfig+0x10>
      ret = USBD_OK;
    }
  }

  return ret;
}
 8007a52:	bd08      	pop	{r3, pc}
  USBD_StatusTypeDef ret = USBD_FAIL;
 8007a54:	2002      	movs	r0, #2
}
 8007a56:	bd08      	pop	{r3, pc}

08007a58 <USBD_ClrClassConfig>:
* @param  pdev: device instance
* @param  cfgidx: configuration index
* @retval status: USBD_StatusTypeDef
*/
USBD_StatusTypeDef USBD_ClrClassConfig(USBD_HandleTypeDef  *pdev, uint8_t cfgidx)
{
 8007a58:	b508      	push	{r3, lr}
  /* Clear configuration  and De-initialize the Class process*/
  pdev->pClass->DeInit(pdev, cfgidx);
 8007a5a:	f8d0 32b4 	ldr.w	r3, [r0, #692]	; 0x2b4
 8007a5e:	685b      	ldr	r3, [r3, #4]
 8007a60:	4798      	blx	r3

  return USBD_OK;
}
 8007a62:	2000      	movs	r0, #0
 8007a64:	bd08      	pop	{r3, pc}
 8007a66:	bf00      	nop

08007a68 <USBD_LL_SetupStage>:
*         Handle the setup stage
* @param  pdev: device instance
* @retval status
*/
USBD_StatusTypeDef USBD_LL_SetupStage(USBD_HandleTypeDef *pdev, uint8_t *psetup)
{
 8007a68:	b538      	push	{r3, r4, r5, lr}
 8007a6a:	4604      	mov	r4, r0
  USBD_ParseSetupRequest(&pdev->request, psetup);
 8007a6c:	f500 752a 	add.w	r5, r0, #680	; 0x2a8
 8007a70:	4628      	mov	r0, r5
 8007a72:	f000 fb57 	bl	8008124 <USBD_ParseSetupRequest>

  pdev->ep0_state = USBD_EP0_SETUP;
 8007a76:	2001      	movs	r0, #1

  pdev->ep0_data_len = pdev->request.wLength;

  switch (pdev->request.bmRequest & 0x1FU)
 8007a78:	f894 12a8 	ldrb.w	r1, [r4, #680]	; 0x2a8
  pdev->ep0_data_len = pdev->request.wLength;
 8007a7c:	f8b4 22ae 	ldrh.w	r2, [r4, #686]	; 0x2ae
  switch (pdev->request.bmRequest & 0x1FU)
 8007a80:	f001 031f 	and.w	r3, r1, #31
 8007a84:	4283      	cmp	r3, r0
  pdev->ep0_state = USBD_EP0_SETUP;
 8007a86:	f8c4 0294 	str.w	r0, [r4, #660]	; 0x294
  pdev->ep0_data_len = pdev->request.wLength;
 8007a8a:	f8c4 2298 	str.w	r2, [r4, #664]	; 0x298
  switch (pdev->request.bmRequest & 0x1FU)
 8007a8e:	d015      	beq.n	8007abc <USBD_LL_SetupStage+0x54>
 8007a90:	d30e      	bcc.n	8007ab0 <USBD_LL_SetupStage+0x48>
 8007a92:	2b02      	cmp	r3, #2
 8007a94:	d006      	beq.n	8007aa4 <USBD_LL_SetupStage+0x3c>
    case USB_REQ_RECIPIENT_ENDPOINT:
      USBD_StdEPReq(pdev, &pdev->request);
      break;

    default:
      USBD_LL_StallEP(pdev, (pdev->request.bmRequest & 0x80U));
 8007a96:	f001 0180 	and.w	r1, r1, #128	; 0x80
 8007a9a:	4620      	mov	r0, r4
 8007a9c:	f000 fdda 	bl	8008654 <USBD_LL_StallEP>
      break;
  }

  return USBD_OK;
}
 8007aa0:	2000      	movs	r0, #0
 8007aa2:	bd38      	pop	{r3, r4, r5, pc}
      USBD_StdEPReq(pdev, &pdev->request);
 8007aa4:	4629      	mov	r1, r5
 8007aa6:	4620      	mov	r0, r4
 8007aa8:	f000 faa6 	bl	8007ff8 <USBD_StdEPReq>
}
 8007aac:	2000      	movs	r0, #0
 8007aae:	bd38      	pop	{r3, r4, r5, pc}
      USBD_StdDevReq(pdev, &pdev->request);
 8007ab0:	4629      	mov	r1, r5
 8007ab2:	4620      	mov	r0, r4
 8007ab4:	f000 f8f6 	bl	8007ca4 <USBD_StdDevReq>
}
 8007ab8:	2000      	movs	r0, #0
 8007aba:	bd38      	pop	{r3, r4, r5, pc}
      USBD_StdItfReq(pdev, &pdev->request);
 8007abc:	4629      	mov	r1, r5
 8007abe:	4620      	mov	r0, r4
 8007ac0:	f000 fa6e 	bl	8007fa0 <USBD_StdItfReq>
}
 8007ac4:	2000      	movs	r0, #0
 8007ac6:	bd38      	pop	{r3, r4, r5, pc}

08007ac8 <USBD_LL_DataOutStage>:
* @param  epnum: endpoint index
* @retval status
*/
USBD_StatusTypeDef USBD_LL_DataOutStage(USBD_HandleTypeDef *pdev,
                                        uint8_t epnum, uint8_t *pdata)
{
 8007ac8:	b570      	push	{r4, r5, r6, lr}
 8007aca:	4605      	mov	r5, r0
  USBD_EndpointTypeDef *pep;

  if (epnum == 0U)
 8007acc:	b941      	cbnz	r1, 8007ae0 <USBD_LL_DataOutStage+0x18>
  {
    pep = &pdev->ep_out[0];

    if (pdev->ep0_state == USBD_EP0_DATA_OUT)
 8007ace:	f8d0 3294 	ldr.w	r3, [r0, #660]	; 0x294
 8007ad2:	2b03      	cmp	r3, #3
 8007ad4:	d00f      	beq.n	8007af6 <USBD_LL_DataOutStage+0x2e>
        USBD_CtlSendStatus(pdev);
      }
    }
    else
    {
      if (pdev->ep0_state == USBD_EP0_STATUS_OUT)
 8007ad6:	2b05      	cmp	r3, #5
 8007ad8:	460c      	mov	r4, r1
 8007ada:	d02e      	beq.n	8007b3a <USBD_LL_DataOutStage+0x72>
  {
    /* should never be in this condition */
    return USBD_FAIL;
  }

  return USBD_OK;
 8007adc:	2000      	movs	r0, #0
}
 8007ade:	bd70      	pop	{r4, r5, r6, pc}
  else if ((pdev->pClass->DataOut != NULL) &&
 8007ae0:	f8d0 32b4 	ldr.w	r3, [r0, #692]	; 0x2b4
 8007ae4:	699b      	ldr	r3, [r3, #24]
 8007ae6:	b1c3      	cbz	r3, 8007b1a <USBD_LL_DataOutStage+0x52>
 8007ae8:	f890 229c 	ldrb.w	r2, [r0, #668]	; 0x29c
 8007aec:	2a03      	cmp	r2, #3
 8007aee:	d114      	bne.n	8007b1a <USBD_LL_DataOutStage+0x52>
    pdev->pClass->DataOut(pdev, epnum);
 8007af0:	4798      	blx	r3
  return USBD_OK;
 8007af2:	2000      	movs	r0, #0
}
 8007af4:	bd70      	pop	{r4, r5, r6, pc}
 8007af6:	4616      	mov	r6, r2
      if (pep->rem_length > pep->maxpacket)
 8007af8:	f8d0 3160 	ldr.w	r3, [r0, #352]	; 0x160
 8007afc:	f8d0 2164 	ldr.w	r2, [r0, #356]	; 0x164
 8007b00:	4293      	cmp	r3, r2
 8007b02:	d90c      	bls.n	8007b1e <USBD_LL_DataOutStage+0x56>
        pep->rem_length -= pep->maxpacket;
 8007b04:	1a9b      	subs	r3, r3, r2
        USBD_CtlContinueRx(pdev, pdata,
 8007b06:	429a      	cmp	r2, r3
        pep->rem_length -= pep->maxpacket;
 8007b08:	f8c0 3160 	str.w	r3, [r0, #352]	; 0x160
        USBD_CtlContinueRx(pdev, pdata,
 8007b0c:	bf8c      	ite	hi
 8007b0e:	b29a      	uxthhi	r2, r3
 8007b10:	b292      	uxthls	r2, r2
 8007b12:	4631      	mov	r1, r6
 8007b14:	f000 fb72 	bl	80081fc <USBD_CtlContinueRx>
 8007b18:	e7e0      	b.n	8007adc <USBD_LL_DataOutStage+0x14>
    return USBD_FAIL;
 8007b1a:	2002      	movs	r0, #2
}
 8007b1c:	bd70      	pop	{r4, r5, r6, pc}
        if ((pdev->pClass->EP0_RxReady != NULL) &&
 8007b1e:	f8d0 32b4 	ldr.w	r3, [r0, #692]	; 0x2b4
 8007b22:	691b      	ldr	r3, [r3, #16]
 8007b24:	b123      	cbz	r3, 8007b30 <USBD_LL_DataOutStage+0x68>
 8007b26:	f890 229c 	ldrb.w	r2, [r0, #668]	; 0x29c
 8007b2a:	2a03      	cmp	r2, #3
 8007b2c:	d100      	bne.n	8007b30 <USBD_LL_DataOutStage+0x68>
          pdev->pClass->EP0_RxReady(pdev);
 8007b2e:	4798      	blx	r3
        USBD_CtlSendStatus(pdev);
 8007b30:	4628      	mov	r0, r5
 8007b32:	f000 fb6b 	bl	800820c <USBD_CtlSendStatus>
  return USBD_OK;
 8007b36:	2000      	movs	r0, #0
}
 8007b38:	bd70      	pop	{r4, r5, r6, pc}
        pdev->ep0_state = USBD_EP0_IDLE;
 8007b3a:	f8c5 1294 	str.w	r1, [r5, #660]	; 0x294
        USBD_LL_StallEP(pdev, 0U);
 8007b3e:	f000 fd89 	bl	8008654 <USBD_LL_StallEP>
  return USBD_OK;
 8007b42:	4620      	mov	r0, r4
}
 8007b44:	bd70      	pop	{r4, r5, r6, pc}
 8007b46:	bf00      	nop

08007b48 <USBD_LL_DataInStage>:
* @param  epnum: endpoint index
* @retval status
*/
USBD_StatusTypeDef USBD_LL_DataInStage(USBD_HandleTypeDef *pdev,
                                       uint8_t epnum, uint8_t *pdata)
{
 8007b48:	b570      	push	{r4, r5, r6, lr}
 8007b4a:	4604      	mov	r4, r0
  USBD_EndpointTypeDef *pep;

  if (epnum == 0U)
 8007b4c:	b981      	cbnz	r1, 8007b70 <USBD_LL_DataInStage+0x28>
 8007b4e:	4613      	mov	r3, r2
  {
    pep = &pdev->ep_in[0];

    if (pdev->ep0_state == USBD_EP0_DATA_IN)
 8007b50:	f8d0 2294 	ldr.w	r2, [r0, #660]	; 0x294
 8007b54:	2a02      	cmp	r2, #2
 8007b56:	d019      	beq.n	8007b8c <USBD_LL_DataInStage+0x44>
        }
      }
    }
    else
    {
      if ((pdev->ep0_state == USBD_EP0_STATUS_IN) ||
 8007b58:	f032 0304 	bics.w	r3, r2, #4
 8007b5c:	d102      	bne.n	8007b64 <USBD_LL_DataInStage+0x1c>
          (pdev->ep0_state == USBD_EP0_IDLE))
      {
        USBD_LL_StallEP(pdev, 0x80U);
 8007b5e:	2180      	movs	r1, #128	; 0x80
 8007b60:	f000 fd78 	bl	8008654 <USBD_LL_StallEP>
      }
    }

    if (pdev->dev_test_mode == 1U)
 8007b64:	f894 32a0 	ldrb.w	r3, [r4, #672]	; 0x2a0
    {
      USBD_RunTestMode(pdev);
      pdev->dev_test_mode = 0U;
 8007b68:	2000      	movs	r0, #0
    if (pdev->dev_test_mode == 1U)
 8007b6a:	2b01      	cmp	r3, #1
 8007b6c:	d00b      	beq.n	8007b86 <USBD_LL_DataInStage+0x3e>
    /* should never be in this condition */
    return USBD_FAIL;
  }

  return USBD_OK;
}
 8007b6e:	bd70      	pop	{r4, r5, r6, pc}
  else if ((pdev->pClass->DataIn != NULL) &&
 8007b70:	f8d0 32b4 	ldr.w	r3, [r0, #692]	; 0x2b4
 8007b74:	695b      	ldr	r3, [r3, #20]
 8007b76:	b363      	cbz	r3, 8007bd2 <USBD_LL_DataInStage+0x8a>
 8007b78:	f890 229c 	ldrb.w	r2, [r0, #668]	; 0x29c
 8007b7c:	2a03      	cmp	r2, #3
 8007b7e:	d128      	bne.n	8007bd2 <USBD_LL_DataInStage+0x8a>
    pdev->pClass->DataIn(pdev, epnum);
 8007b80:	4798      	blx	r3
  return USBD_OK;
 8007b82:	2000      	movs	r0, #0
}
 8007b84:	bd70      	pop	{r4, r5, r6, pc}
      pdev->dev_test_mode = 0U;
 8007b86:	f884 02a0 	strb.w	r0, [r4, #672]	; 0x2a0
}
 8007b8a:	bd70      	pop	{r4, r5, r6, pc}
      if (pep->rem_length > pep->maxpacket)
 8007b8c:	e9d0 6208 	ldrd	r6, r2, [r0, #32]
 8007b90:	4296      	cmp	r6, r2
 8007b92:	d820      	bhi.n	8007bd6 <USBD_LL_DataInStage+0x8e>
        if ((pep->total_length % pep->maxpacket == 0U) &&
 8007b94:	69c3      	ldr	r3, [r0, #28]
 8007b96:	fbb3 f5f2 	udiv	r5, r3, r2
 8007b9a:	fb02 3515 	mls	r5, r2, r5, r3
 8007b9e:	b90d      	cbnz	r5, 8007ba4 <USBD_LL_DataInStage+0x5c>
 8007ba0:	429a      	cmp	r2, r3
 8007ba2:	d926      	bls.n	8007bf2 <USBD_LL_DataInStage+0xaa>
          if ((pdev->pClass->EP0_TxSent != NULL) &&
 8007ba4:	f8d4 32b4 	ldr.w	r3, [r4, #692]	; 0x2b4
 8007ba8:	68db      	ldr	r3, [r3, #12]
 8007baa:	b12b      	cbz	r3, 8007bb8 <USBD_LL_DataInStage+0x70>
 8007bac:	f894 229c 	ldrb.w	r2, [r4, #668]	; 0x29c
 8007bb0:	2a03      	cmp	r2, #3
 8007bb2:	d101      	bne.n	8007bb8 <USBD_LL_DataInStage+0x70>
            pdev->pClass->EP0_TxSent(pdev);
 8007bb4:	4620      	mov	r0, r4
 8007bb6:	4798      	blx	r3
          USBD_LL_StallEP(pdev, 0x80U);
 8007bb8:	2180      	movs	r1, #128	; 0x80
 8007bba:	4620      	mov	r0, r4
 8007bbc:	f000 fd4a 	bl	8008654 <USBD_LL_StallEP>
          USBD_CtlReceiveStatus(pdev);
 8007bc0:	4620      	mov	r0, r4
 8007bc2:	f000 fb2f 	bl	8008224 <USBD_CtlReceiveStatus>
    if (pdev->dev_test_mode == 1U)
 8007bc6:	f894 32a0 	ldrb.w	r3, [r4, #672]	; 0x2a0
      pdev->dev_test_mode = 0U;
 8007bca:	2000      	movs	r0, #0
    if (pdev->dev_test_mode == 1U)
 8007bcc:	2b01      	cmp	r3, #1
 8007bce:	d1ce      	bne.n	8007b6e <USBD_LL_DataInStage+0x26>
 8007bd0:	e7d9      	b.n	8007b86 <USBD_LL_DataInStage+0x3e>
    return USBD_FAIL;
 8007bd2:	2002      	movs	r0, #2
}
 8007bd4:	bd70      	pop	{r4, r5, r6, pc}
        pep->rem_length -= pep->maxpacket;
 8007bd6:	1ab2      	subs	r2, r6, r2
 8007bd8:	460d      	mov	r5, r1
 8007bda:	6202      	str	r2, [r0, #32]
        USBD_CtlContinueSendData(pdev, pdata, (uint16_t)pep->rem_length);
 8007bdc:	4619      	mov	r1, r3
 8007bde:	b292      	uxth	r2, r2
 8007be0:	f000 faf4 	bl	80081cc <USBD_CtlContinueSendData>
          USBD_LL_PrepareReceive(pdev, 0U, NULL, 0U);
 8007be4:	462b      	mov	r3, r5
 8007be6:	462a      	mov	r2, r5
 8007be8:	4629      	mov	r1, r5
 8007bea:	4620      	mov	r0, r4
 8007bec:	f000 fd7a 	bl	80086e4 <USBD_LL_PrepareReceive>
 8007bf0:	e7b8      	b.n	8007b64 <USBD_LL_DataInStage+0x1c>
            (pep->total_length >= pep->maxpacket) &&
 8007bf2:	f8d0 2298 	ldr.w	r2, [r0, #664]	; 0x298
 8007bf6:	4293      	cmp	r3, r2
 8007bf8:	d2d4      	bcs.n	8007ba4 <USBD_LL_DataInStage+0x5c>
          USBD_CtlContinueSendData(pdev, NULL, 0U);
 8007bfa:	462a      	mov	r2, r5
 8007bfc:	f000 fae6 	bl	80081cc <USBD_CtlContinueSendData>
          pdev->ep0_data_len = 0U;
 8007c00:	f8c4 5298 	str.w	r5, [r4, #664]	; 0x298
 8007c04:	e7ee      	b.n	8007be4 <USBD_LL_DataInStage+0x9c>
 8007c06:	bf00      	nop

08007c08 <USBD_LL_Reset>:
* @param  pdev: device instance
* @retval status
*/

USBD_StatusTypeDef USBD_LL_Reset(USBD_HandleTypeDef *pdev)
{
 8007c08:	b570      	push	{r4, r5, r6, lr}
  /* Open EP0 OUT */
  USBD_LL_OpenEP(pdev, 0x00U, USBD_EP_TYPE_CTRL, USB_MAX_EP0_SIZE);
 8007c0a:	2200      	movs	r2, #0
  pdev->ep_out[0x00U & 0xFU].is_used = 1U;

  pdev->ep_out[0].maxpacket = USB_MAX_EP0_SIZE;
 8007c0c:	2640      	movs	r6, #64	; 0x40
{
 8007c0e:	4604      	mov	r4, r0
  pdev->ep_out[0x00U & 0xFU].is_used = 1U;
 8007c10:	2501      	movs	r5, #1
  USBD_LL_OpenEP(pdev, 0x00U, USBD_EP_TYPE_CTRL, USB_MAX_EP0_SIZE);
 8007c12:	4611      	mov	r1, r2
 8007c14:	4633      	mov	r3, r6
 8007c16:	f000 fcff 	bl	8008618 <USBD_LL_OpenEP>

  /* Open EP0 IN */
  USBD_LL_OpenEP(pdev, 0x80U, USBD_EP_TYPE_CTRL, USB_MAX_EP0_SIZE);
 8007c1a:	4633      	mov	r3, r6
 8007c1c:	2180      	movs	r1, #128	; 0x80
  pdev->ep_out[0x00U & 0xFU].is_used = 1U;
 8007c1e:	f8c4 5158 	str.w	r5, [r4, #344]	; 0x158
  pdev->ep_out[0].maxpacket = USB_MAX_EP0_SIZE;
 8007c22:	f8c4 6164 	str.w	r6, [r4, #356]	; 0x164
  USBD_LL_OpenEP(pdev, 0x80U, USBD_EP_TYPE_CTRL, USB_MAX_EP0_SIZE);
 8007c26:	4620      	mov	r0, r4
 8007c28:	2200      	movs	r2, #0
 8007c2a:	f000 fcf5 	bl	8008618 <USBD_LL_OpenEP>

  pdev->ep_in[0].maxpacket = USB_MAX_EP0_SIZE;

  /* Upon Reset call user call back */
  pdev->dev_state = USBD_STATE_DEFAULT;
  pdev->ep0_state = USBD_EP0_IDLE;
 8007c2e:	2100      	movs	r1, #0
  pdev->dev_config = 0U;
  pdev->dev_remote_wakeup = 0U;

  if (pdev->pClassData)
 8007c30:	f8d4 32b8 	ldr.w	r3, [r4, #696]	; 0x2b8
  pdev->ep_in[0x80U & 0xFU].is_used = 1U;
 8007c34:	61a5      	str	r5, [r4, #24]
  pdev->ep_in[0].maxpacket = USB_MAX_EP0_SIZE;
 8007c36:	6266      	str	r6, [r4, #36]	; 0x24
  pdev->dev_state = USBD_STATE_DEFAULT;
 8007c38:	f884 529c 	strb.w	r5, [r4, #668]	; 0x29c
  pdev->ep0_state = USBD_EP0_IDLE;
 8007c3c:	f8c4 1294 	str.w	r1, [r4, #660]	; 0x294
  pdev->dev_config = 0U;
 8007c40:	6061      	str	r1, [r4, #4]
  pdev->dev_remote_wakeup = 0U;
 8007c42:	f8c4 12a4 	str.w	r1, [r4, #676]	; 0x2a4
  if (pdev->pClassData)
 8007c46:	b123      	cbz	r3, 8007c52 <USBD_LL_Reset+0x4a>
  {
    pdev->pClass->DeInit(pdev, (uint8_t)pdev->dev_config);
 8007c48:	f8d4 32b4 	ldr.w	r3, [r4, #692]	; 0x2b4
 8007c4c:	4620      	mov	r0, r4
 8007c4e:	685b      	ldr	r3, [r3, #4]
 8007c50:	4798      	blx	r3
  }

  return USBD_OK;
}
 8007c52:	2000      	movs	r0, #0
 8007c54:	bd70      	pop	{r4, r5, r6, pc}
 8007c56:	bf00      	nop

08007c58 <USBD_LL_SetSpeed>:
* @retval status
*/
USBD_StatusTypeDef USBD_LL_SetSpeed(USBD_HandleTypeDef *pdev,
                                    USBD_SpeedTypeDef speed)
{
  pdev->dev_speed = speed;
 8007c58:	7401      	strb	r1, [r0, #16]

  return USBD_OK;
}
 8007c5a:	2000      	movs	r0, #0
 8007c5c:	4770      	bx	lr
 8007c5e:	bf00      	nop

08007c60 <USBD_LL_Suspend>:
* @param  pdev: device instance
* @retval status
*/

USBD_StatusTypeDef USBD_LL_Suspend(USBD_HandleTypeDef *pdev)
{
 8007c60:	4603      	mov	r3, r0
  pdev->dev_old_state =  pdev->dev_state;
  pdev->dev_state  = USBD_STATE_SUSPENDED;
 8007c62:	2204      	movs	r2, #4
  pdev->dev_old_state =  pdev->dev_state;
 8007c64:	f890 129c 	ldrb.w	r1, [r0, #668]	; 0x29c

  return USBD_OK;
}
 8007c68:	2000      	movs	r0, #0
  pdev->dev_old_state =  pdev->dev_state;
 8007c6a:	f883 129d 	strb.w	r1, [r3, #669]	; 0x29d
  pdev->dev_state  = USBD_STATE_SUSPENDED;
 8007c6e:	f883 229c 	strb.w	r2, [r3, #668]	; 0x29c
}
 8007c72:	4770      	bx	lr

08007c74 <USBD_LL_Resume>:
* @retval status
*/

USBD_StatusTypeDef USBD_LL_Resume(USBD_HandleTypeDef *pdev)
{
  if (pdev->dev_state == USBD_STATE_SUSPENDED)
 8007c74:	f890 329c 	ldrb.w	r3, [r0, #668]	; 0x29c
 8007c78:	2b04      	cmp	r3, #4
  {
    pdev->dev_state = pdev->dev_old_state;
 8007c7a:	bf04      	itt	eq
 8007c7c:	f890 329d 	ldrbeq.w	r3, [r0, #669]	; 0x29d
 8007c80:	f880 329c 	strbeq.w	r3, [r0, #668]	; 0x29c
  }

  return USBD_OK;
}
 8007c84:	2000      	movs	r0, #0
 8007c86:	4770      	bx	lr

08007c88 <USBD_LL_SOF>:
* @retval status
*/

USBD_StatusTypeDef USBD_LL_SOF(USBD_HandleTypeDef *pdev)
{
  if (pdev->dev_state == USBD_STATE_CONFIGURED)
 8007c88:	f890 229c 	ldrb.w	r2, [r0, #668]	; 0x29c
 8007c8c:	2a03      	cmp	r2, #3
 8007c8e:	d001      	beq.n	8007c94 <USBD_LL_SOF+0xc>
      pdev->pClass->SOF(pdev);
    }
  }

  return USBD_OK;
}
 8007c90:	2000      	movs	r0, #0
 8007c92:	4770      	bx	lr
{
 8007c94:	b508      	push	{r3, lr}
    if (pdev->pClass->SOF != NULL)
 8007c96:	f8d0 32b4 	ldr.w	r3, [r0, #692]	; 0x2b4
 8007c9a:	69db      	ldr	r3, [r3, #28]
 8007c9c:	b103      	cbz	r3, 8007ca0 <USBD_LL_SOF+0x18>
      pdev->pClass->SOF(pdev);
 8007c9e:	4798      	blx	r3
}
 8007ca0:	2000      	movs	r0, #0
 8007ca2:	bd08      	pop	{r3, pc}

08007ca4 <USBD_StdDevReq>:
* @param  req: usb request
* @retval status
*/
USBD_StatusTypeDef  USBD_StdDevReq(USBD_HandleTypeDef *pdev,
                                   USBD_SetupReqTypedef *req)
{
 8007ca4:	b530      	push	{r4, r5, lr}
  USBD_StatusTypeDef ret = USBD_OK;

  switch (req->bmRequest & USB_REQ_TYPE_MASK)
 8007ca6:	780b      	ldrb	r3, [r1, #0]
{
 8007ca8:	b083      	sub	sp, #12
  switch (req->bmRequest & USB_REQ_TYPE_MASK)
 8007caa:	f003 0360 	and.w	r3, r3, #96	; 0x60
 8007cae:	2b20      	cmp	r3, #32
{
 8007cb0:	460d      	mov	r5, r1
 8007cb2:	4604      	mov	r4, r0
  switch (req->bmRequest & USB_REQ_TYPE_MASK)
 8007cb4:	d028      	beq.n	8007d08 <USBD_StdDevReq+0x64>
 8007cb6:	2b40      	cmp	r3, #64	; 0x40
 8007cb8:	d026      	beq.n	8007d08 <USBD_StdDevReq+0x64>
 8007cba:	b153      	cbz	r3, 8007cd2 <USBD_StdDevReq+0x2e>
*/

void USBD_CtlError(USBD_HandleTypeDef *pdev,
                   USBD_SetupReqTypedef *req)
{
  USBD_LL_StallEP(pdev, 0x80U);
 8007cbc:	2180      	movs	r1, #128	; 0x80
 8007cbe:	4620      	mov	r0, r4
 8007cc0:	f000 fcc8 	bl	8008654 <USBD_LL_StallEP>
  USBD_LL_StallEP(pdev, 0U);
 8007cc4:	4620      	mov	r0, r4
 8007cc6:	2100      	movs	r1, #0
 8007cc8:	f000 fcc4 	bl	8008654 <USBD_LL_StallEP>
}
 8007ccc:	2000      	movs	r0, #0
 8007cce:	b003      	add	sp, #12
 8007cd0:	bd30      	pop	{r4, r5, pc}
      switch (req->bRequest)
 8007cd2:	784b      	ldrb	r3, [r1, #1]
 8007cd4:	2b09      	cmp	r3, #9
 8007cd6:	d8f1      	bhi.n	8007cbc <USBD_StdDevReq+0x18>
 8007cd8:	a201      	add	r2, pc, #4	; (adr r2, 8007ce0 <USBD_StdDevReq+0x3c>)
 8007cda:	f852 f023 	ldr.w	pc, [r2, r3, lsl #2]
 8007cde:	bf00      	nop
 8007ce0:	08007d5d 	.word	0x08007d5d
 8007ce4:	08007d89 	.word	0x08007d89
 8007ce8:	08007cbd 	.word	0x08007cbd
 8007cec:	08007da5 	.word	0x08007da5
 8007cf0:	08007cbd 	.word	0x08007cbd
 8007cf4:	08007db1 	.word	0x08007db1
 8007cf8:	08007def 	.word	0x08007def
 8007cfc:	08007cbd 	.word	0x08007cbd
 8007d00:	08007e25 	.word	0x08007e25
 8007d04:	08007d1b 	.word	0x08007d1b
      pdev->pClass->Setup(pdev, req);
 8007d08:	f8d4 32b4 	ldr.w	r3, [r4, #692]	; 0x2b4
 8007d0c:	4629      	mov	r1, r5
 8007d0e:	689b      	ldr	r3, [r3, #8]
 8007d10:	4620      	mov	r0, r4
 8007d12:	4798      	blx	r3
}
 8007d14:	2000      	movs	r0, #0
 8007d16:	b003      	add	sp, #12
 8007d18:	bd30      	pop	{r4, r5, pc}
  cfgidx = (uint8_t)(req->wValue);
 8007d1a:	7889      	ldrb	r1, [r1, #2]
 8007d1c:	4d9f      	ldr	r5, [pc, #636]	; (8007f9c <USBD_StdDevReq+0x2f8>)
  if (cfgidx > USBD_MAX_NUM_CONFIGURATION)
 8007d1e:	2901      	cmp	r1, #1
  cfgidx = (uint8_t)(req->wValue);
 8007d20:	7029      	strb	r1, [r5, #0]
  if (cfgidx > USBD_MAX_NUM_CONFIGURATION)
 8007d22:	d8cb      	bhi.n	8007cbc <USBD_StdDevReq+0x18>
    switch (pdev->dev_state)
 8007d24:	f890 329c 	ldrb.w	r3, [r0, #668]	; 0x29c
 8007d28:	2b02      	cmp	r3, #2
 8007d2a:	f000 810d 	beq.w	8007f48 <USBD_StdDevReq+0x2a4>
 8007d2e:	2b03      	cmp	r3, #3
 8007d30:	f040 80fe 	bne.w	8007f30 <USBD_StdDevReq+0x28c>
        if (cfgidx == 0U)
 8007d34:	2900      	cmp	r1, #0
 8007d36:	f000 8127 	beq.w	8007f88 <USBD_StdDevReq+0x2e4>
        else if (cfgidx != pdev->dev_config)
 8007d3a:	6841      	ldr	r1, [r0, #4]
 8007d3c:	2901      	cmp	r1, #1
 8007d3e:	d009      	beq.n	8007d54 <USBD_StdDevReq+0xb0>
          USBD_ClrClassConfig(pdev, (uint8_t)pdev->dev_config);
 8007d40:	b2c9      	uxtb	r1, r1
 8007d42:	f7ff fe89 	bl	8007a58 <USBD_ClrClassConfig>
          pdev->dev_config = cfgidx;
 8007d46:	7829      	ldrb	r1, [r5, #0]
          if (USBD_SetClassConfig(pdev, cfgidx) == USBD_FAIL)
 8007d48:	4620      	mov	r0, r4
          pdev->dev_config = cfgidx;
 8007d4a:	6061      	str	r1, [r4, #4]
          if (USBD_SetClassConfig(pdev, cfgidx) == USBD_FAIL)
 8007d4c:	f7ff fe7a 	bl	8007a44 <USBD_SetClassConfig>
 8007d50:	2802      	cmp	r0, #2
 8007d52:	d0b3      	beq.n	8007cbc <USBD_StdDevReq+0x18>
    USBD_CtlSendStatus(pdev);
 8007d54:	4620      	mov	r0, r4
 8007d56:	f000 fa59 	bl	800820c <USBD_CtlSendStatus>
 8007d5a:	e7b7      	b.n	8007ccc <USBD_StdDevReq+0x28>
  switch (pdev->dev_state)
 8007d5c:	f890 329c 	ldrb.w	r3, [r0, #668]	; 0x29c
 8007d60:	2203      	movs	r2, #3
 8007d62:	3b01      	subs	r3, #1
 8007d64:	2b02      	cmp	r3, #2
 8007d66:	d8a9      	bhi.n	8007cbc <USBD_StdDevReq+0x18>
      if (req->wLength != 0x2U)
 8007d68:	88cb      	ldrh	r3, [r1, #6]
 8007d6a:	2b02      	cmp	r3, #2
 8007d6c:	d1a6      	bne.n	8007cbc <USBD_StdDevReq+0x18>
      pdev->dev_config_status = USB_CONFIG_SELF_POWERED;
 8007d6e:	2101      	movs	r1, #1
      if (pdev->dev_remote_wakeup)
 8007d70:	f8d0 32a4 	ldr.w	r3, [r0, #676]	; 0x2a4
      pdev->dev_config_status = USB_CONFIG_SELF_POWERED;
 8007d74:	60c1      	str	r1, [r0, #12]
      if (pdev->dev_remote_wakeup)
 8007d76:	b103      	cbz	r3, 8007d7a <USBD_StdDevReq+0xd6>
        pdev->dev_config_status |= USB_CONFIG_REMOTE_WAKEUP;
 8007d78:	60c2      	str	r2, [r0, #12]
      USBD_CtlSendData(pdev, (uint8_t *)(void *)&pdev->dev_config_status, 2U);
 8007d7a:	2202      	movs	r2, #2
 8007d7c:	f104 010c 	add.w	r1, r4, #12
 8007d80:	4620      	mov	r0, r4
 8007d82:	f000 fa15 	bl	80081b0 <USBD_CtlSendData>
 8007d86:	e7a1      	b.n	8007ccc <USBD_StdDevReq+0x28>
  switch (pdev->dev_state)
 8007d88:	f890 329c 	ldrb.w	r3, [r0, #668]	; 0x29c
 8007d8c:	3b01      	subs	r3, #1
 8007d8e:	2b02      	cmp	r3, #2
 8007d90:	d894      	bhi.n	8007cbc <USBD_StdDevReq+0x18>
      if (req->wValue == USB_FEATURE_REMOTE_WAKEUP)
 8007d92:	884b      	ldrh	r3, [r1, #2]
 8007d94:	2b01      	cmp	r3, #1
 8007d96:	d199      	bne.n	8007ccc <USBD_StdDevReq+0x28>
        pdev->dev_remote_wakeup = 0U;
 8007d98:	2300      	movs	r3, #0
 8007d9a:	f8c0 32a4 	str.w	r3, [r0, #676]	; 0x2a4
        USBD_CtlSendStatus(pdev);
 8007d9e:	f000 fa35 	bl	800820c <USBD_CtlSendStatus>
 8007da2:	e793      	b.n	8007ccc <USBD_StdDevReq+0x28>
  if (req->wValue == USB_FEATURE_REMOTE_WAKEUP)
 8007da4:	884b      	ldrh	r3, [r1, #2]
 8007da6:	2b01      	cmp	r3, #1
 8007da8:	d190      	bne.n	8007ccc <USBD_StdDevReq+0x28>
    pdev->dev_remote_wakeup = 1U;
 8007daa:	f8c0 32a4 	str.w	r3, [r0, #676]	; 0x2a4
 8007dae:	e7d1      	b.n	8007d54 <USBD_StdDevReq+0xb0>
  if ((req->wIndex == 0U) && (req->wLength == 0U) && (req->wValue < 128U))
 8007db0:	888b      	ldrh	r3, [r1, #4]
 8007db2:	2b00      	cmp	r3, #0
 8007db4:	d182      	bne.n	8007cbc <USBD_StdDevReq+0x18>
 8007db6:	88cb      	ldrh	r3, [r1, #6]
 8007db8:	2b00      	cmp	r3, #0
 8007dba:	f47f af7f 	bne.w	8007cbc <USBD_StdDevReq+0x18>
 8007dbe:	884d      	ldrh	r5, [r1, #2]
 8007dc0:	2d7f      	cmp	r5, #127	; 0x7f
 8007dc2:	f63f af7b 	bhi.w	8007cbc <USBD_StdDevReq+0x18>
    if (pdev->dev_state == USBD_STATE_CONFIGURED)
 8007dc6:	f890 329c 	ldrb.w	r3, [r0, #668]	; 0x29c
 8007dca:	2b03      	cmp	r3, #3
 8007dcc:	f43f af76 	beq.w	8007cbc <USBD_StdDevReq+0x18>
    dev_addr = (uint8_t)(req->wValue) & 0x7FU;
 8007dd0:	b2e9      	uxtb	r1, r5
      pdev->dev_address = dev_addr;
 8007dd2:	f880 129e 	strb.w	r1, [r0, #670]	; 0x29e
      USBD_LL_SetUSBAddress(pdev, dev_addr);
 8007dd6:	f000 fc69 	bl	80086ac <USBD_LL_SetUSBAddress>
      USBD_CtlSendStatus(pdev);
 8007dda:	4620      	mov	r0, r4
 8007ddc:	f000 fa16 	bl	800820c <USBD_CtlSendStatus>
      if (dev_addr != 0U)
 8007de0:	2d00      	cmp	r5, #0
 8007de2:	f000 80cd 	beq.w	8007f80 <USBD_StdDevReq+0x2dc>
        pdev->dev_state = USBD_STATE_ADDRESSED;
 8007de6:	2302      	movs	r3, #2
 8007de8:	f884 329c 	strb.w	r3, [r4, #668]	; 0x29c
 8007dec:	e76e      	b.n	8007ccc <USBD_StdDevReq+0x28>
  uint16_t len = 0U;
 8007dee:	2300      	movs	r3, #0
          USBD_GetDescriptor(pdev, req);
 8007df0:	884a      	ldrh	r2, [r1, #2]
  uint16_t len = 0U;
 8007df2:	f8ad 3006 	strh.w	r3, [sp, #6]
  switch (req->wValue >> 8)
 8007df6:	0a13      	lsrs	r3, r2, #8
 8007df8:	3b01      	subs	r3, #1
 8007dfa:	2b06      	cmp	r3, #6
 8007dfc:	f63f af5e 	bhi.w	8007cbc <USBD_StdDevReq+0x18>
 8007e00:	a101      	add	r1, pc, #4	; (adr r1, 8007e08 <USBD_StdDevReq+0x164>)
 8007e02:	f851 f023 	ldr.w	pc, [r1, r3, lsl #2]
 8007e06:	bf00      	nop
 8007e08:	08007ebd 	.word	0x08007ebd
 8007e0c:	08007ea5 	.word	0x08007ea5
 8007e10:	08007ecd 	.word	0x08007ecd
 8007e14:	08007cbd 	.word	0x08007cbd
 8007e18:	08007cbd 	.word	0x08007cbd
 8007e1c:	08007e8f 	.word	0x08007e8f
 8007e20:	08007e4b 	.word	0x08007e4b
  if (req->wLength != 1U)
 8007e24:	88ca      	ldrh	r2, [r1, #6]
 8007e26:	2a01      	cmp	r2, #1
 8007e28:	f47f af48 	bne.w	8007cbc <USBD_StdDevReq+0x18>
    switch (pdev->dev_state)
 8007e2c:	f890 329c 	ldrb.w	r3, [r0, #668]	; 0x29c
 8007e30:	2b00      	cmp	r3, #0
 8007e32:	f43f af43 	beq.w	8007cbc <USBD_StdDevReq+0x18>
 8007e36:	2b02      	cmp	r3, #2
 8007e38:	f240 8094 	bls.w	8007f64 <USBD_StdDevReq+0x2c0>
 8007e3c:	2b03      	cmp	r3, #3
 8007e3e:	f47f af3d 	bne.w	8007cbc <USBD_StdDevReq+0x18>
        USBD_CtlSendData(pdev, (uint8_t *)(void *)&pdev->dev_config, 1U);
 8007e42:	1d01      	adds	r1, r0, #4
 8007e44:	f000 f9b4 	bl	80081b0 <USBD_CtlSendData>
 8007e48:	e740      	b.n	8007ccc <USBD_StdDevReq+0x28>
      if (pdev->dev_speed == USBD_SPEED_HIGH)
 8007e4a:	7c03      	ldrb	r3, [r0, #16]
 8007e4c:	2b00      	cmp	r3, #0
 8007e4e:	f47f af35 	bne.w	8007cbc <USBD_StdDevReq+0x18>
        pbuf = pdev->pClass->GetOtherSpeedConfigDescriptor(&len);
 8007e52:	f8d0 32b4 	ldr.w	r3, [r0, #692]	; 0x2b4
 8007e56:	f10d 0006 	add.w	r0, sp, #6
 8007e5a:	6b1b      	ldr	r3, [r3, #48]	; 0x30
 8007e5c:	4798      	blx	r3
        pbuf[1] = USB_DESC_TYPE_OTHER_SPEED_CONFIGURATION;
 8007e5e:	2307      	movs	r3, #7
 8007e60:	7043      	strb	r3, [r0, #1]
    if ((len != 0U) && (req->wLength != 0U))
 8007e62:	f8bd 3006 	ldrh.w	r3, [sp, #6]
 8007e66:	88ea      	ldrh	r2, [r5, #6]
 8007e68:	b16b      	cbz	r3, 8007e86 <USBD_StdDevReq+0x1e2>
 8007e6a:	2a00      	cmp	r2, #0
 8007e6c:	f43f af72 	beq.w	8007d54 <USBD_StdDevReq+0xb0>
      len = MIN(len, req->wLength);
 8007e70:	4293      	cmp	r3, r2
 8007e72:	bf28      	it	cs
 8007e74:	4613      	movcs	r3, r2
      (void)USBD_CtlSendData(pdev, pbuf, len);
 8007e76:	4601      	mov	r1, r0
 8007e78:	461a      	mov	r2, r3
 8007e7a:	4620      	mov	r0, r4
      len = MIN(len, req->wLength);
 8007e7c:	f8ad 3006 	strh.w	r3, [sp, #6]
      (void)USBD_CtlSendData(pdev, pbuf, len);
 8007e80:	f000 f996 	bl	80081b0 <USBD_CtlSendData>
 8007e84:	88ea      	ldrh	r2, [r5, #6]
    if (req->wLength == 0U)
 8007e86:	2a00      	cmp	r2, #0
 8007e88:	f47f af20 	bne.w	8007ccc <USBD_StdDevReq+0x28>
 8007e8c:	e762      	b.n	8007d54 <USBD_StdDevReq+0xb0>
      if (pdev->dev_speed == USBD_SPEED_HIGH)
 8007e8e:	7c03      	ldrb	r3, [r0, #16]
 8007e90:	2b00      	cmp	r3, #0
 8007e92:	f47f af13 	bne.w	8007cbc <USBD_StdDevReq+0x18>
        pbuf = pdev->pClass->GetDeviceQualifierDescriptor(&len);
 8007e96:	f8d0 32b4 	ldr.w	r3, [r0, #692]	; 0x2b4
 8007e9a:	f10d 0006 	add.w	r0, sp, #6
 8007e9e:	6b5b      	ldr	r3, [r3, #52]	; 0x34
 8007ea0:	4798      	blx	r3
 8007ea2:	e7de      	b.n	8007e62 <USBD_StdDevReq+0x1be>
      if (pdev->dev_speed == USBD_SPEED_HIGH)
 8007ea4:	7c02      	ldrb	r2, [r0, #16]
 8007ea6:	f8d0 32b4 	ldr.w	r3, [r0, #692]	; 0x2b4
 8007eaa:	2a00      	cmp	r2, #0
 8007eac:	d161      	bne.n	8007f72 <USBD_StdDevReq+0x2ce>
        pbuf = pdev->pClass->GetHSConfigDescriptor(&len);
 8007eae:	6a9b      	ldr	r3, [r3, #40]	; 0x28
 8007eb0:	f10d 0006 	add.w	r0, sp, #6
 8007eb4:	4798      	blx	r3
        pbuf[1] = USB_DESC_TYPE_CONFIGURATION;
 8007eb6:	2302      	movs	r3, #2
 8007eb8:	7043      	strb	r3, [r0, #1]
 8007eba:	e7d2      	b.n	8007e62 <USBD_StdDevReq+0x1be>
      pbuf = pdev->pDesc->GetDeviceDescriptor(pdev->dev_speed, &len);
 8007ebc:	f8d0 32b0 	ldr.w	r3, [r0, #688]	; 0x2b0
 8007ec0:	f10d 0106 	add.w	r1, sp, #6
 8007ec4:	681b      	ldr	r3, [r3, #0]
 8007ec6:	7c00      	ldrb	r0, [r0, #16]
 8007ec8:	4798      	blx	r3
 8007eca:	e7ca      	b.n	8007e62 <USBD_StdDevReq+0x1be>
      switch ((uint8_t)(req->wValue))
 8007ecc:	b2d2      	uxtb	r2, r2
 8007ece:	2a05      	cmp	r2, #5
 8007ed0:	f63f aef4 	bhi.w	8007cbc <USBD_StdDevReq+0x18>
 8007ed4:	e8df f002 	tbb	[pc, r2]
 8007ed8:	141a2026 	.word	0x141a2026
 8007edc:	030e      	.short	0x030e
          if (pdev->pDesc->GetInterfaceStrDescriptor != NULL)
 8007ede:	f8d0 32b0 	ldr.w	r3, [r0, #688]	; 0x2b0
 8007ee2:	699b      	ldr	r3, [r3, #24]
 8007ee4:	2b00      	cmp	r3, #0
 8007ee6:	f43f aee9 	beq.w	8007cbc <USBD_StdDevReq+0x18>
            pbuf = pdev->pDesc->GetInterfaceStrDescriptor(pdev->dev_speed, &len);
 8007eea:	f10d 0106 	add.w	r1, sp, #6
 8007eee:	7c20      	ldrb	r0, [r4, #16]
 8007ef0:	4798      	blx	r3
 8007ef2:	e7b6      	b.n	8007e62 <USBD_StdDevReq+0x1be>
          if (pdev->pDesc->GetConfigurationStrDescriptor != NULL)
 8007ef4:	f8d0 32b0 	ldr.w	r3, [r0, #688]	; 0x2b0
 8007ef8:	695b      	ldr	r3, [r3, #20]
 8007efa:	2b00      	cmp	r3, #0
 8007efc:	d1f5      	bne.n	8007eea <USBD_StdDevReq+0x246>
 8007efe:	e6dd      	b.n	8007cbc <USBD_StdDevReq+0x18>
          if (pdev->pDesc->GetSerialStrDescriptor != NULL)
 8007f00:	f8d0 32b0 	ldr.w	r3, [r0, #688]	; 0x2b0
 8007f04:	691b      	ldr	r3, [r3, #16]
 8007f06:	2b00      	cmp	r3, #0
 8007f08:	d1ef      	bne.n	8007eea <USBD_StdDevReq+0x246>
 8007f0a:	e6d7      	b.n	8007cbc <USBD_StdDevReq+0x18>
          if (pdev->pDesc->GetProductStrDescriptor != NULL)
 8007f0c:	f8d0 32b0 	ldr.w	r3, [r0, #688]	; 0x2b0
 8007f10:	68db      	ldr	r3, [r3, #12]
 8007f12:	2b00      	cmp	r3, #0
 8007f14:	d1e9      	bne.n	8007eea <USBD_StdDevReq+0x246>
 8007f16:	e6d1      	b.n	8007cbc <USBD_StdDevReq+0x18>
          if (pdev->pDesc->GetManufacturerStrDescriptor != NULL)
 8007f18:	f8d0 32b0 	ldr.w	r3, [r0, #688]	; 0x2b0
 8007f1c:	689b      	ldr	r3, [r3, #8]
 8007f1e:	2b00      	cmp	r3, #0
 8007f20:	d1e3      	bne.n	8007eea <USBD_StdDevReq+0x246>
 8007f22:	e6cb      	b.n	8007cbc <USBD_StdDevReq+0x18>
          if (pdev->pDesc->GetLangIDStrDescriptor != NULL)
 8007f24:	f8d0 32b0 	ldr.w	r3, [r0, #688]	; 0x2b0
 8007f28:	685b      	ldr	r3, [r3, #4]
 8007f2a:	2b00      	cmp	r3, #0
 8007f2c:	d1dd      	bne.n	8007eea <USBD_StdDevReq+0x246>
 8007f2e:	e6c5      	b.n	8007cbc <USBD_StdDevReq+0x18>
  USBD_LL_StallEP(pdev, 0x80U);
 8007f30:	2180      	movs	r1, #128	; 0x80
 8007f32:	f000 fb8f 	bl	8008654 <USBD_LL_StallEP>
  USBD_LL_StallEP(pdev, 0U);
 8007f36:	2100      	movs	r1, #0
 8007f38:	4620      	mov	r0, r4
 8007f3a:	f000 fb8b 	bl	8008654 <USBD_LL_StallEP>
        USBD_ClrClassConfig(pdev, cfgidx);
 8007f3e:	7829      	ldrb	r1, [r5, #0]
 8007f40:	4620      	mov	r0, r4
 8007f42:	f7ff fd89 	bl	8007a58 <USBD_ClrClassConfig>
 8007f46:	e6c1      	b.n	8007ccc <USBD_StdDevReq+0x28>
        if (cfgidx)
 8007f48:	2900      	cmp	r1, #0
 8007f4a:	f43f af03 	beq.w	8007d54 <USBD_StdDevReq+0xb0>
          pdev->dev_config = cfgidx;
 8007f4e:	2101      	movs	r1, #1
          pdev->dev_state = USBD_STATE_CONFIGURED;
 8007f50:	2303      	movs	r3, #3
          pdev->dev_config = cfgidx;
 8007f52:	6041      	str	r1, [r0, #4]
          pdev->dev_state = USBD_STATE_CONFIGURED;
 8007f54:	f880 329c 	strb.w	r3, [r0, #668]	; 0x29c
          if (USBD_SetClassConfig(pdev, cfgidx) == USBD_FAIL)
 8007f58:	f7ff fd74 	bl	8007a44 <USBD_SetClassConfig>
 8007f5c:	2802      	cmp	r0, #2
 8007f5e:	f47f aef9 	bne.w	8007d54 <USBD_StdDevReq+0xb0>
 8007f62:	e6ab      	b.n	8007cbc <USBD_StdDevReq+0x18>
        pdev->dev_default_config = 0U;
 8007f64:	2300      	movs	r3, #0
 8007f66:	4601      	mov	r1, r0
 8007f68:	f841 3f08 	str.w	r3, [r1, #8]!
        USBD_CtlSendData(pdev, (uint8_t *)(void *)&pdev->dev_default_config, 1U);
 8007f6c:	f000 f920 	bl	80081b0 <USBD_CtlSendData>
 8007f70:	e6ac      	b.n	8007ccc <USBD_StdDevReq+0x28>
        pbuf = pdev->pClass->GetFSConfigDescriptor(&len);
 8007f72:	6adb      	ldr	r3, [r3, #44]	; 0x2c
 8007f74:	f10d 0006 	add.w	r0, sp, #6
 8007f78:	4798      	blx	r3
        pbuf[1] = USB_DESC_TYPE_CONFIGURATION;
 8007f7a:	2302      	movs	r3, #2
 8007f7c:	7043      	strb	r3, [r0, #1]
 8007f7e:	e770      	b.n	8007e62 <USBD_StdDevReq+0x1be>
        pdev->dev_state = USBD_STATE_DEFAULT;
 8007f80:	2301      	movs	r3, #1
 8007f82:	f884 329c 	strb.w	r3, [r4, #668]	; 0x29c
 8007f86:	e6a1      	b.n	8007ccc <USBD_StdDevReq+0x28>
          pdev->dev_state = USBD_STATE_ADDRESSED;
 8007f88:	2302      	movs	r3, #2
          pdev->dev_config = cfgidx;
 8007f8a:	6041      	str	r1, [r0, #4]
          pdev->dev_state = USBD_STATE_ADDRESSED;
 8007f8c:	f880 329c 	strb.w	r3, [r0, #668]	; 0x29c
          USBD_ClrClassConfig(pdev, cfgidx);
 8007f90:	f7ff fd62 	bl	8007a58 <USBD_ClrClassConfig>
          USBD_CtlSendStatus(pdev);
 8007f94:	4620      	mov	r0, r4
 8007f96:	f000 f939 	bl	800820c <USBD_CtlSendStatus>
 8007f9a:	e697      	b.n	8007ccc <USBD_StdDevReq+0x28>
 8007f9c:	200003c4 	.word	0x200003c4

08007fa0 <USBD_StdItfReq>:
{
 8007fa0:	b538      	push	{r3, r4, r5, lr}
  switch (req->bmRequest & USB_REQ_TYPE_MASK)
 8007fa2:	780b      	ldrb	r3, [r1, #0]
{
 8007fa4:	460d      	mov	r5, r1
  switch (req->bmRequest & USB_REQ_TYPE_MASK)
 8007fa6:	f003 0360 	and.w	r3, r3, #96	; 0x60
 8007faa:	2b20      	cmp	r3, #32
{
 8007fac:	4604      	mov	r4, r0
  switch (req->bmRequest & USB_REQ_TYPE_MASK)
 8007fae:	d00c      	beq.n	8007fca <USBD_StdItfReq+0x2a>
 8007fb0:	2b40      	cmp	r3, #64	; 0x40
 8007fb2:	d00a      	beq.n	8007fca <USBD_StdItfReq+0x2a>
 8007fb4:	b14b      	cbz	r3, 8007fca <USBD_StdItfReq+0x2a>
  USBD_LL_StallEP(pdev, 0x80U);
 8007fb6:	2180      	movs	r1, #128	; 0x80
 8007fb8:	4620      	mov	r0, r4
 8007fba:	f000 fb4b 	bl	8008654 <USBD_LL_StallEP>
  USBD_LL_StallEP(pdev, 0U);
 8007fbe:	4620      	mov	r0, r4
 8007fc0:	2100      	movs	r1, #0
 8007fc2:	f000 fb47 	bl	8008654 <USBD_LL_StallEP>
}
 8007fc6:	2000      	movs	r0, #0
 8007fc8:	bd38      	pop	{r3, r4, r5, pc}
      switch (pdev->dev_state)
 8007fca:	f894 329c 	ldrb.w	r3, [r4, #668]	; 0x29c
 8007fce:	3b01      	subs	r3, #1
 8007fd0:	2b02      	cmp	r3, #2
 8007fd2:	d8f0      	bhi.n	8007fb6 <USBD_StdItfReq+0x16>
          if (LOBYTE(req->wIndex) <= USBD_MAX_NUM_INTERFACES)
 8007fd4:	792b      	ldrb	r3, [r5, #4]
 8007fd6:	2b01      	cmp	r3, #1
 8007fd8:	d8ed      	bhi.n	8007fb6 <USBD_StdItfReq+0x16>
            ret = (USBD_StatusTypeDef)pdev->pClass->Setup(pdev, req);
 8007fda:	f8d4 32b4 	ldr.w	r3, [r4, #692]	; 0x2b4
 8007fde:	4629      	mov	r1, r5
 8007fe0:	689b      	ldr	r3, [r3, #8]
 8007fe2:	4620      	mov	r0, r4
 8007fe4:	4798      	blx	r3
            if ((req->wLength == 0U) && (ret == USBD_OK))
 8007fe6:	88eb      	ldrh	r3, [r5, #6]
 8007fe8:	2b00      	cmp	r3, #0
 8007fea:	d1ec      	bne.n	8007fc6 <USBD_StdItfReq+0x26>
 8007fec:	2800      	cmp	r0, #0
 8007fee:	d1ea      	bne.n	8007fc6 <USBD_StdItfReq+0x26>
              USBD_CtlSendStatus(pdev);
 8007ff0:	4620      	mov	r0, r4
 8007ff2:	f000 f90b 	bl	800820c <USBD_CtlSendStatus>
 8007ff6:	e7e6      	b.n	8007fc6 <USBD_StdItfReq+0x26>

08007ff8 <USBD_StdEPReq>:
{
 8007ff8:	b570      	push	{r4, r5, r6, lr}
  switch (req->bmRequest & USB_REQ_TYPE_MASK)
 8007ffa:	780b      	ldrb	r3, [r1, #0]
{
 8007ffc:	4604      	mov	r4, r0
  switch (req->bmRequest & USB_REQ_TYPE_MASK)
 8007ffe:	f003 0360 	and.w	r3, r3, #96	; 0x60
 8008002:	2b20      	cmp	r3, #32
 8008004:	d00c      	beq.n	8008020 <USBD_StdEPReq+0x28>
 8008006:	2b40      	cmp	r3, #64	; 0x40
 8008008:	d00a      	beq.n	8008020 <USBD_StdEPReq+0x28>
 800800a:	b183      	cbz	r3, 800802e <USBD_StdEPReq+0x36>
  USBD_LL_StallEP(pdev, 0x80U);
 800800c:	2180      	movs	r1, #128	; 0x80
 800800e:	4620      	mov	r0, r4
 8008010:	f000 fb20 	bl	8008654 <USBD_LL_StallEP>
  USBD_LL_StallEP(pdev, 0U);
 8008014:	4620      	mov	r0, r4
 8008016:	2100      	movs	r1, #0
 8008018:	f000 fb1c 	bl	8008654 <USBD_LL_StallEP>
}
 800801c:	2000      	movs	r0, #0
 800801e:	bd70      	pop	{r4, r5, r6, pc}
      pdev->pClass->Setup(pdev, req);
 8008020:	f8d4 32b4 	ldr.w	r3, [r4, #692]	; 0x2b4
 8008024:	4620      	mov	r0, r4
 8008026:	689b      	ldr	r3, [r3, #8]
 8008028:	4798      	blx	r3
}
 800802a:	2000      	movs	r0, #0
 800802c:	bd70      	pop	{r4, r5, r6, pc}
      switch (req->bRequest)
 800802e:	784b      	ldrb	r3, [r1, #1]
  ep_addr  = LOBYTE(req->wIndex);
 8008030:	888a      	ldrh	r2, [r1, #4]
      switch (req->bRequest)
 8008032:	2b01      	cmp	r3, #1
  ep_addr  = LOBYTE(req->wIndex);
 8008034:	b2d5      	uxtb	r5, r2
      switch (req->bRequest)
 8008036:	d03e      	beq.n	80080b6 <USBD_StdEPReq+0xbe>
 8008038:	d314      	bcc.n	8008064 <USBD_StdEPReq+0x6c>
 800803a:	2b03      	cmp	r3, #3
 800803c:	d1e6      	bne.n	800800c <USBD_StdEPReq+0x14>
          switch (pdev->dev_state)
 800803e:	f890 329c 	ldrb.w	r3, [r0, #668]	; 0x29c
 8008042:	2b02      	cmp	r3, #2
 8008044:	d046      	beq.n	80080d4 <USBD_StdEPReq+0xdc>
 8008046:	2b03      	cmp	r3, #3
 8008048:	d1e0      	bne.n	800800c <USBD_StdEPReq+0x14>
              if (req->wValue == USB_FEATURE_EP_HALT)
 800804a:	884b      	ldrh	r3, [r1, #2]
 800804c:	b933      	cbnz	r3, 800805c <USBD_StdEPReq+0x64>
                if ((ep_addr != 0x00U) &&
 800804e:	066a      	lsls	r2, r5, #25
 8008050:	d004      	beq.n	800805c <USBD_StdEPReq+0x64>
                    (ep_addr != 0x80U) && (req->wLength == 0x00U))
 8008052:	88cb      	ldrh	r3, [r1, #6]
 8008054:	b913      	cbnz	r3, 800805c <USBD_StdEPReq+0x64>
                  USBD_LL_StallEP(pdev, ep_addr);
 8008056:	4629      	mov	r1, r5
 8008058:	f000 fafc 	bl	8008654 <USBD_LL_StallEP>
              USBD_CtlSendStatus(pdev);
 800805c:	4620      	mov	r0, r4
 800805e:	f000 f8d5 	bl	800820c <USBD_CtlSendStatus>
              break;
 8008062:	e7db      	b.n	800801c <USBD_StdEPReq+0x24>
          switch (pdev->dev_state)
 8008064:	f890 329c 	ldrb.w	r3, [r0, #668]	; 0x29c
 8008068:	2b02      	cmp	r3, #2
 800806a:	d03d      	beq.n	80080e8 <USBD_StdEPReq+0xf0>
 800806c:	2b03      	cmp	r3, #3
 800806e:	d1cd      	bne.n	800800c <USBD_StdEPReq+0x14>
 8008070:	f005 030f 	and.w	r3, r5, #15
                if (pdev->ep_in[ep_addr & 0xFU].is_used == 0U)
 8008074:	eb03 0383 	add.w	r3, r3, r3, lsl #2
              if ((ep_addr & 0x80U) == 0x80U)
 8008078:	0612      	lsls	r2, r2, #24
                if (pdev->ep_in[ep_addr & 0xFU].is_used == 0U)
 800807a:	eb00 0383 	add.w	r3, r0, r3, lsl #2
              if ((ep_addr & 0x80U) == 0x80U)
 800807e:	d442      	bmi.n	8008106 <USBD_StdEPReq+0x10e>
                if (pdev->ep_out[ep_addr & 0xFU].is_used == 0U)
 8008080:	f8d3 3158 	ldr.w	r3, [r3, #344]	; 0x158
 8008084:	2b00      	cmp	r3, #0
 8008086:	d0c1      	beq.n	800800c <USBD_StdEPReq+0x14>
 8008088:	f005 037f 	and.w	r3, r5, #127	; 0x7f
              pep = ((ep_addr & 0x80U) == 0x80U) ? &pdev->ep_in[ep_addr & 0x7FU] : \
 800808c:	eb03 0683 	add.w	r6, r3, r3, lsl #2
 8008090:	eb00 0686 	add.w	r6, r0, r6, lsl #2
 8008094:	f506 76aa 	add.w	r6, r6, #340	; 0x154
              if ((ep_addr == 0x00U) || (ep_addr == 0x80U))
 8008098:	b133      	cbz	r3, 80080a8 <USBD_StdEPReq+0xb0>
              else if (USBD_LL_IsStallEP(pdev, ep_addr))
 800809a:	4629      	mov	r1, r5
 800809c:	4620      	mov	r0, r4
 800809e:	f000 faf5 	bl	800868c <USBD_LL_IsStallEP>
 80080a2:	2800      	cmp	r0, #0
 80080a4:	d03b      	beq.n	800811e <USBD_StdEPReq+0x126>
                pep->status = 0x0001U;
 80080a6:	2301      	movs	r3, #1
 80080a8:	6033      	str	r3, [r6, #0]
              USBD_CtlSendData(pdev, (uint8_t *)(void *)&pep->status, 2U);
 80080aa:	4631      	mov	r1, r6
 80080ac:	4620      	mov	r0, r4
 80080ae:	2202      	movs	r2, #2
 80080b0:	f000 f87e 	bl	80081b0 <USBD_CtlSendData>
              break;
 80080b4:	e7b2      	b.n	800801c <USBD_StdEPReq+0x24>
          switch (pdev->dev_state)
 80080b6:	f890 329c 	ldrb.w	r3, [r0, #668]	; 0x29c
 80080ba:	2b02      	cmp	r3, #2
 80080bc:	d00a      	beq.n	80080d4 <USBD_StdEPReq+0xdc>
 80080be:	2b03      	cmp	r3, #3
 80080c0:	d1a4      	bne.n	800800c <USBD_StdEPReq+0x14>
              if (req->wValue == USB_FEATURE_EP_HALT)
 80080c2:	884b      	ldrh	r3, [r1, #2]
 80080c4:	2b00      	cmp	r3, #0
 80080c6:	d1a9      	bne.n	800801c <USBD_StdEPReq+0x24>
                if ((ep_addr & 0x7FU) != 0x00U)
 80080c8:	066e      	lsls	r6, r5, #25
 80080ca:	d0c7      	beq.n	800805c <USBD_StdEPReq+0x64>
                  USBD_LL_ClearStallEP(pdev, ep_addr);
 80080cc:	4629      	mov	r1, r5
 80080ce:	f000 facf 	bl	8008670 <USBD_LL_ClearStallEP>
 80080d2:	e7c3      	b.n	800805c <USBD_StdEPReq+0x64>
              if ((ep_addr != 0x00U) && (ep_addr != 0x80U))
 80080d4:	066b      	lsls	r3, r5, #25
 80080d6:	d099      	beq.n	800800c <USBD_StdEPReq+0x14>
                USBD_LL_StallEP(pdev, ep_addr);
 80080d8:	4629      	mov	r1, r5
 80080da:	f000 fabb 	bl	8008654 <USBD_LL_StallEP>
                USBD_LL_StallEP(pdev, 0x80U);
 80080de:	4620      	mov	r0, r4
 80080e0:	2180      	movs	r1, #128	; 0x80
 80080e2:	f000 fab7 	bl	8008654 <USBD_LL_StallEP>
 80080e6:	e799      	b.n	800801c <USBD_StdEPReq+0x24>
              if ((ep_addr != 0x00U) && (ep_addr != 0x80U))
 80080e8:	0668      	lsls	r0, r5, #25
 80080ea:	d18f      	bne.n	800800c <USBD_StdEPReq+0x14>
              pep->status = 0x0000U;
 80080ec:	2300      	movs	r3, #0
              pep = ((ep_addr & 0x80U) == 0x80U) ? &pdev->ep_in[ep_addr & 0x7FU] : \
 80080ee:	0611      	lsls	r1, r2, #24
 80080f0:	bf4c      	ite	mi
 80080f2:	f104 0114 	addmi.w	r1, r4, #20
 80080f6:	f504 71aa 	addpl.w	r1, r4, #340	; 0x154
              USBD_CtlSendData(pdev, (uint8_t *)(void *)&pep->status, 2U);
 80080fa:	4620      	mov	r0, r4
              pep->status = 0x0000U;
 80080fc:	600b      	str	r3, [r1, #0]
              USBD_CtlSendData(pdev, (uint8_t *)(void *)&pep->status, 2U);
 80080fe:	2202      	movs	r2, #2
 8008100:	f000 f856 	bl	80081b0 <USBD_CtlSendData>
              break;
 8008104:	e78a      	b.n	800801c <USBD_StdEPReq+0x24>
                if (pdev->ep_in[ep_addr & 0xFU].is_used == 0U)
 8008106:	699b      	ldr	r3, [r3, #24]
 8008108:	2b00      	cmp	r3, #0
 800810a:	f43f af7f 	beq.w	800800c <USBD_StdEPReq+0x14>
 800810e:	f005 037f 	and.w	r3, r5, #127	; 0x7f
              pep = ((ep_addr & 0x80U) == 0x80U) ? &pdev->ep_in[ep_addr & 0x7FU] : \
 8008112:	1c5e      	adds	r6, r3, #1
 8008114:	eb06 0686 	add.w	r6, r6, r6, lsl #2
 8008118:	eb00 0686 	add.w	r6, r0, r6, lsl #2
 800811c:	e7bc      	b.n	8008098 <USBD_StdEPReq+0xa0>
                pep->status = 0x0000U;
 800811e:	6030      	str	r0, [r6, #0]
 8008120:	e7c3      	b.n	80080aa <USBD_StdEPReq+0xb2>
 8008122:	bf00      	nop

08008124 <USBD_ParseSetupRequest>:
  req->bmRequest = *(uint8_t *)(pdata);
 8008124:	780b      	ldrb	r3, [r1, #0]
 8008126:	7003      	strb	r3, [r0, #0]
  req->bRequest = *(uint8_t *)(pdata + 1U);
 8008128:	784b      	ldrb	r3, [r1, #1]
 800812a:	7043      	strb	r3, [r0, #1]
  req->wValue = SWAPBYTE(pdata + 2U);
 800812c:	78ca      	ldrb	r2, [r1, #3]
 800812e:	788b      	ldrb	r3, [r1, #2]
 8008130:	eb03 2302 	add.w	r3, r3, r2, lsl #8
 8008134:	8043      	strh	r3, [r0, #2]
  req->wIndex = SWAPBYTE(pdata + 4U);
 8008136:	794a      	ldrb	r2, [r1, #5]
 8008138:	790b      	ldrb	r3, [r1, #4]
 800813a:	eb03 2302 	add.w	r3, r3, r2, lsl #8
 800813e:	8083      	strh	r3, [r0, #4]
  req->wLength = SWAPBYTE(pdata + 6U);
 8008140:	79ca      	ldrb	r2, [r1, #7]
 8008142:	798b      	ldrb	r3, [r1, #6]
 8008144:	eb03 2302 	add.w	r3, r3, r2, lsl #8
 8008148:	80c3      	strh	r3, [r0, #6]
}
 800814a:	4770      	bx	lr

0800814c <USBD_CtlError>:
{
 800814c:	b510      	push	{r4, lr}
 800814e:	4604      	mov	r4, r0
  USBD_LL_StallEP(pdev, 0x80U);
 8008150:	2180      	movs	r1, #128	; 0x80
 8008152:	f000 fa7f 	bl	8008654 <USBD_LL_StallEP>
  USBD_LL_StallEP(pdev, 0U);
 8008156:	4620      	mov	r0, r4
}
 8008158:	e8bd 4010 	ldmia.w	sp!, {r4, lr}
  USBD_LL_StallEP(pdev, 0U);
 800815c:	2100      	movs	r1, #0
 800815e:	f000 ba79 	b.w	8008654 <USBD_LL_StallEP>
 8008162:	bf00      	nop

08008164 <USBD_GetString>:
  */
void USBD_GetString(uint8_t *desc, uint8_t *unicode, uint16_t *len)
{
  uint8_t idx = 0U;

  if (desc != NULL)
 8008164:	b300      	cbz	r0, 80081a8 <USBD_GetString+0x44>
  */
static uint8_t USBD_GetLen(uint8_t *buf)
{
  uint8_t  len = 0U;

  while (*buf != '\0')
 8008166:	7803      	ldrb	r3, [r0, #0]
{
 8008168:	b430      	push	{r4, r5}
  while (*buf != '\0')
 800816a:	b1f3      	cbz	r3, 80081aa <USBD_GetString+0x46>
 800816c:	4604      	mov	r4, r0
  uint8_t  len = 0U;
 800816e:	2300      	movs	r3, #0
  while (*buf != '\0')
 8008170:	f814 5f01 	ldrb.w	r5, [r4, #1]!
  {
    len++;
 8008174:	3301      	adds	r3, #1
 8008176:	b2db      	uxtb	r3, r3
  while (*buf != '\0')
 8008178:	2d00      	cmp	r5, #0
 800817a:	d1f9      	bne.n	8008170 <USBD_GetString+0xc>
 800817c:	005b      	lsls	r3, r3, #1
 800817e:	3302      	adds	r3, #2
    unicode[idx++] = USB_DESC_TYPE_STRING;
 8008180:	2403      	movs	r4, #3
    *len = (uint16_t)USBD_GetLen(desc) * 2U + 2U;
 8008182:	8013      	strh	r3, [r2, #0]
    unicode[idx++] = *(uint8_t *)(void *)len;
 8008184:	700b      	strb	r3, [r1, #0]
    unicode[idx++] = USB_DESC_TYPE_STRING;
 8008186:	704c      	strb	r4, [r1, #1]
    while (*desc != '\0')
 8008188:	7804      	ldrb	r4, [r0, #0]
 800818a:	b15c      	cbz	r4, 80081a4 <USBD_GetString+0x40>
    unicode[idx++] = USB_DESC_TYPE_STRING;
 800818c:	2302      	movs	r3, #2
      unicode[idx++] =  0U;
 800818e:	2500      	movs	r5, #0
      unicode[idx++] = *desc++;
 8008190:	1c5a      	adds	r2, r3, #1
 8008192:	b2d2      	uxtb	r2, r2
 8008194:	54cc      	strb	r4, [r1, r3]
      unicode[idx++] =  0U;
 8008196:	548d      	strb	r5, [r1, r2]
    while (*desc != '\0')
 8008198:	f810 4f01 	ldrb.w	r4, [r0, #1]!
      unicode[idx++] =  0U;
 800819c:	3302      	adds	r3, #2
 800819e:	b2db      	uxtb	r3, r3
    while (*desc != '\0')
 80081a0:	2c00      	cmp	r4, #0
 80081a2:	d1f5      	bne.n	8008190 <USBD_GetString+0x2c>
}
 80081a4:	bc30      	pop	{r4, r5}
 80081a6:	4770      	bx	lr
 80081a8:	4770      	bx	lr
  while (*buf != '\0')
 80081aa:	2302      	movs	r3, #2
 80081ac:	e7e8      	b.n	8008180 <USBD_GetString+0x1c>
 80081ae:	bf00      	nop

080081b0 <USBD_CtlSendData>:
* @param  len: length of data to be sent
* @retval status
*/
USBD_StatusTypeDef USBD_CtlSendData(USBD_HandleTypeDef *pdev,
                                    uint8_t *pbuf, uint16_t len)
{
 80081b0:	b538      	push	{r3, r4, r5, lr}
 80081b2:	4613      	mov	r3, r2
  /* Set EP0 State */
  pdev->ep0_state = USBD_EP0_DATA_IN;
 80081b4:	2502      	movs	r5, #2
  pdev->ep_in[0].total_length = len;
  pdev->ep_in[0].rem_length   = len;

  /* Start the transfer */
  USBD_LL_Transmit(pdev, 0x00U, pbuf, len);
 80081b6:	460a      	mov	r2, r1
  pdev->ep_in[0].rem_length   = len;
 80081b8:	e9c0 3307 	strd	r3, r3, [r0, #28]
  pdev->ep0_state = USBD_EP0_DATA_IN;
 80081bc:	f8c0 5294 	str.w	r5, [r0, #660]	; 0x294
  USBD_LL_Transmit(pdev, 0x00U, pbuf, len);
 80081c0:	2100      	movs	r1, #0
 80081c2:	f000 fa81 	bl	80086c8 <USBD_LL_Transmit>

  return USBD_OK;
}
 80081c6:	2000      	movs	r0, #0
 80081c8:	bd38      	pop	{r3, r4, r5, pc}
 80081ca:	bf00      	nop

080081cc <USBD_CtlContinueSendData>:
* @param  len: length of data to be sent
* @retval status
*/
USBD_StatusTypeDef USBD_CtlContinueSendData(USBD_HandleTypeDef *pdev,
                                            uint8_t *pbuf, uint16_t len)
{
 80081cc:	b508      	push	{r3, lr}
  /* Start the next transfer */
  USBD_LL_Transmit(pdev, 0x00U, pbuf, len);
 80081ce:	4613      	mov	r3, r2
 80081d0:	460a      	mov	r2, r1
 80081d2:	2100      	movs	r1, #0
 80081d4:	f000 fa78 	bl	80086c8 <USBD_LL_Transmit>

  return USBD_OK;
}
 80081d8:	2000      	movs	r0, #0
 80081da:	bd08      	pop	{r3, pc}

080081dc <USBD_CtlPrepareRx>:
* @param  len: length of data to be received
* @retval status
*/
USBD_StatusTypeDef USBD_CtlPrepareRx(USBD_HandleTypeDef *pdev,
                                     uint8_t *pbuf, uint16_t len)
{
 80081dc:	b538      	push	{r3, r4, r5, lr}
 80081de:	4613      	mov	r3, r2
  /* Set EP0 State */
  pdev->ep0_state = USBD_EP0_DATA_OUT;
 80081e0:	2503      	movs	r5, #3
  pdev->ep_out[0].total_length = len;
  pdev->ep_out[0].rem_length   = len;

  /* Start the transfer */
  USBD_LL_PrepareReceive(pdev, 0U, pbuf, len);
 80081e2:	460a      	mov	r2, r1
  pdev->ep_out[0].total_length = len;
 80081e4:	f8c0 315c 	str.w	r3, [r0, #348]	; 0x15c
  pdev->ep_out[0].rem_length   = len;
 80081e8:	f8c0 3160 	str.w	r3, [r0, #352]	; 0x160
  pdev->ep0_state = USBD_EP0_DATA_OUT;
 80081ec:	f8c0 5294 	str.w	r5, [r0, #660]	; 0x294
  USBD_LL_PrepareReceive(pdev, 0U, pbuf, len);
 80081f0:	2100      	movs	r1, #0
 80081f2:	f000 fa77 	bl	80086e4 <USBD_LL_PrepareReceive>

  return USBD_OK;
}
 80081f6:	2000      	movs	r0, #0
 80081f8:	bd38      	pop	{r3, r4, r5, pc}
 80081fa:	bf00      	nop

080081fc <USBD_CtlContinueRx>:
* @param  len: length of data to be received
* @retval status
*/
USBD_StatusTypeDef USBD_CtlContinueRx(USBD_HandleTypeDef *pdev,
                                      uint8_t *pbuf, uint16_t len)
{
 80081fc:	b508      	push	{r3, lr}
  USBD_LL_PrepareReceive(pdev, 0U, pbuf, len);
 80081fe:	4613      	mov	r3, r2
 8008200:	460a      	mov	r2, r1
 8008202:	2100      	movs	r1, #0
 8008204:	f000 fa6e 	bl	80086e4 <USBD_LL_PrepareReceive>

  return USBD_OK;
}
 8008208:	2000      	movs	r0, #0
 800820a:	bd08      	pop	{r3, pc}

0800820c <USBD_CtlSendStatus>:
*         send zero lzngth packet on the ctl pipe
* @param  pdev: device instance
* @retval status
*/
USBD_StatusTypeDef USBD_CtlSendStatus(USBD_HandleTypeDef *pdev)
{
 800820c:	b508      	push	{r3, lr}
  /* Set EP0 State */
  pdev->ep0_state = USBD_EP0_STATUS_IN;
 800820e:	2204      	movs	r2, #4

  /* Start the transfer */
  USBD_LL_Transmit(pdev, 0x00U, NULL, 0U);
 8008210:	2300      	movs	r3, #0
  pdev->ep0_state = USBD_EP0_STATUS_IN;
 8008212:	f8c0 2294 	str.w	r2, [r0, #660]	; 0x294
  USBD_LL_Transmit(pdev, 0x00U, NULL, 0U);
 8008216:	4619      	mov	r1, r3
 8008218:	461a      	mov	r2, r3
 800821a:	f000 fa55 	bl	80086c8 <USBD_LL_Transmit>

  return USBD_OK;
}
 800821e:	2000      	movs	r0, #0
 8008220:	bd08      	pop	{r3, pc}
 8008222:	bf00      	nop

08008224 <USBD_CtlReceiveStatus>:
*         receive zero lzngth packet on the ctl pipe
* @param  pdev: device instance
* @retval status
*/
USBD_StatusTypeDef USBD_CtlReceiveStatus(USBD_HandleTypeDef *pdev)
{
 8008224:	b508      	push	{r3, lr}
  /* Set EP0 State */
  pdev->ep0_state = USBD_EP0_STATUS_OUT;
 8008226:	2205      	movs	r2, #5

  /* Start the transfer */
  USBD_LL_PrepareReceive(pdev, 0U, NULL, 0U);
 8008228:	2300      	movs	r3, #0
  pdev->ep0_state = USBD_EP0_STATUS_OUT;
 800822a:	f8c0 2294 	str.w	r2, [r0, #660]	; 0x294
  USBD_LL_PrepareReceive(pdev, 0U, NULL, 0U);
 800822e:	4619      	mov	r1, r3
 8008230:	461a      	mov	r2, r3
 8008232:	f000 fa57 	bl	80086e4 <USBD_LL_PrepareReceive>

  return USBD_OK;
}
 8008236:	2000      	movs	r0, #0
 8008238:	bd08      	pop	{r3, pc}
 800823a:	bf00      	nop

0800823c <MX_USB_DEVICE_Init>:
/**
  * Init USB device Library, add supported class and start the library
  * @retval None
  */
void MX_USB_DEVICE_Init(void)
{
 800823c:	b508      	push	{r3, lr}
  /* USER CODE BEGIN USB_DEVICE_Init_PreTreatment */
  
  /* USER CODE END USB_DEVICE_Init_PreTreatment */
  
  /* Init Device Library, add supported class and start the library. */
  if (USBD_Init(&hUsbDeviceFS, &FS_Desc, DEVICE_FS) != USBD_OK)
 800823e:	2200      	movs	r2, #0
 8008240:	4910      	ldr	r1, [pc, #64]	; (8008284 <MX_USB_DEVICE_Init+0x48>)
 8008242:	4811      	ldr	r0, [pc, #68]	; (8008288 <MX_USB_DEVICE_Init+0x4c>)
 8008244:	f7ff fbda 	bl	80079fc <USBD_Init>
 8008248:	b9c0      	cbnz	r0, 800827c <MX_USB_DEVICE_Init+0x40>
  {
    Error_Handler();
  }
  if (USBD_RegisterClass(&hUsbDeviceFS, &USBD_CDC) != USBD_OK)
 800824a:	4910      	ldr	r1, [pc, #64]	; (800828c <MX_USB_DEVICE_Init+0x50>)
 800824c:	480e      	ldr	r0, [pc, #56]	; (8008288 <MX_USB_DEVICE_Init+0x4c>)
 800824e:	f7ff fbeb 	bl	8007a28 <USBD_RegisterClass>
 8008252:	b980      	cbnz	r0, 8008276 <MX_USB_DEVICE_Init+0x3a>
  {
    Error_Handler();
  }
  if (USBD_CDC_RegisterInterface(&hUsbDeviceFS, &USBD_Interface_fops_FS) != USBD_OK)
 8008254:	490e      	ldr	r1, [pc, #56]	; (8008290 <MX_USB_DEVICE_Init+0x54>)
 8008256:	480c      	ldr	r0, [pc, #48]	; (8008288 <MX_USB_DEVICE_Init+0x4c>)
 8008258:	f7ff fb88 	bl	800796c <USBD_CDC_RegisterInterface>
 800825c:	b940      	cbnz	r0, 8008270 <MX_USB_DEVICE_Init+0x34>
  {
    Error_Handler();
  }
  if (USBD_Start(&hUsbDeviceFS) != USBD_OK)
 800825e:	480a      	ldr	r0, [pc, #40]	; (8008288 <MX_USB_DEVICE_Init+0x4c>)
 8008260:	f7ff fbea 	bl	8007a38 <USBD_Start>
 8008264:	b900      	cbnz	r0, 8008268 <MX_USB_DEVICE_Init+0x2c>
  }

  /* USER CODE BEGIN USB_DEVICE_Init_PostTreatment */
  
  /* USER CODE END USB_DEVICE_Init_PostTreatment */
}
 8008266:	bd08      	pop	{r3, pc}
 8008268:	e8bd 4008 	ldmia.w	sp!, {r3, lr}
    Error_Handler();
 800826c:	f7fa bb06 	b.w	800287c <Error_Handler>
    Error_Handler();
 8008270:	f7fa fb04 	bl	800287c <Error_Handler>
 8008274:	e7f3      	b.n	800825e <MX_USB_DEVICE_Init+0x22>
    Error_Handler();
 8008276:	f7fa fb01 	bl	800287c <Error_Handler>
 800827a:	e7eb      	b.n	8008254 <MX_USB_DEVICE_Init+0x18>
    Error_Handler();
 800827c:	f7fa fafe 	bl	800287c <Error_Handler>
 8008280:	e7e3      	b.n	800824a <MX_USB_DEVICE_Init+0xe>
 8008282:	bf00      	nop
 8008284:	20000164 	.word	0x20000164
 8008288:	20000d2c 	.word	0x20000d2c
 800828c:	20000044 	.word	0x20000044
 8008290:	20000154 	.word	0x20000154

08008294 <CDC_DeInit_FS>:
static int8_t CDC_DeInit_FS(void)
{
  /* USER CODE BEGIN 4 */
  return (USBD_OK);
  /* USER CODE END 4 */
}
 8008294:	2000      	movs	r0, #0
 8008296:	4770      	bx	lr

08008298 <CDC_Control_FS>:
    break;
  }

  return (USBD_OK);
  /* USER CODE END 5 */
}
 8008298:	2000      	movs	r0, #0
 800829a:	4770      	bx	lr

0800829c <CDC_Receive_FS>:
  * @param  Buf: Buffer of data to be received
  * @param  Len: Number of data received (in bytes)
  * @retval Result of the operation: USBD_OK if all operations are OK else USBD_FAIL
  */
static int8_t CDC_Receive_FS(uint8_t* Buf, uint32_t *Len)
{
 800829c:	b510      	push	{r4, lr}
  /* USER CODE BEGIN 6 */
  USBD_CDC_SetRxBuffer(&hUsbDeviceFS, &Buf[0]);
 800829e:	4c05      	ldr	r4, [pc, #20]	; (80082b4 <CDC_Receive_FS+0x18>)
 80082a0:	4601      	mov	r1, r0
 80082a2:	4620      	mov	r0, r4
 80082a4:	f7ff fb72 	bl	800798c <USBD_CDC_SetRxBuffer>
  USBD_CDC_ReceivePacket(&hUsbDeviceFS);
 80082a8:	4620      	mov	r0, r4
 80082aa:	f7ff fb8f 	bl	80079cc <USBD_CDC_ReceivePacket>
  return (USBD_OK);
  /* USER CODE END 6 */
}
 80082ae:	2000      	movs	r0, #0
 80082b0:	bd10      	pop	{r4, pc}
 80082b2:	bf00      	nop
 80082b4:	20000d2c 	.word	0x20000d2c

080082b8 <CDC_Init_FS>:
{
 80082b8:	b510      	push	{r4, lr}
  USBD_CDC_SetTxBuffer(&hUsbDeviceFS, UserTxBufferFS, 0);
 80082ba:	4c06      	ldr	r4, [pc, #24]	; (80082d4 <CDC_Init_FS+0x1c>)
 80082bc:	2200      	movs	r2, #0
 80082be:	4620      	mov	r0, r4
 80082c0:	4905      	ldr	r1, [pc, #20]	; (80082d8 <CDC_Init_FS+0x20>)
 80082c2:	f7ff fb5b 	bl	800797c <USBD_CDC_SetTxBuffer>
  USBD_CDC_SetRxBuffer(&hUsbDeviceFS, UserRxBufferFS);
 80082c6:	4620      	mov	r0, r4
 80082c8:	4904      	ldr	r1, [pc, #16]	; (80082dc <CDC_Init_FS+0x24>)
 80082ca:	f7ff fb5f 	bl	800798c <USBD_CDC_SetRxBuffer>
}
 80082ce:	2000      	movs	r0, #0
 80082d0:	bd10      	pop	{r4, pc}
 80082d2:	bf00      	nop
 80082d4:	20000d2c 	.word	0x20000d2c
 80082d8:	200013d8 	.word	0x200013d8
 80082dc:	20000ff0 	.word	0x20000ff0

080082e0 <CDC_Transmit_FS>:
  * @param  Buf: Buffer of data to be sent
  * @param  Len: Number of data to be sent (in bytes)
  * @retval USBD_OK if all operations are OK else USBD_FAIL or USBD_BUSY
  */
uint8_t CDC_Transmit_FS(uint8_t* Buf, uint16_t Len)
{
 80082e0:	b510      	push	{r4, lr}
  uint8_t result = USBD_OK;
  /* USER CODE BEGIN 7 */
  USBD_CDC_HandleTypeDef *hcdc = (USBD_CDC_HandleTypeDef*)hUsbDeviceFS.pClassData;
 80082e2:	4c09      	ldr	r4, [pc, #36]	; (8008308 <CDC_Transmit_FS+0x28>)
 80082e4:	f8d4 32b8 	ldr.w	r3, [r4, #696]	; 0x2b8
  if (hcdc->TxState != 0){
 80082e8:	f8d3 3214 	ldr.w	r3, [r3, #532]	; 0x214
 80082ec:	b10b      	cbz	r3, 80082f2 <CDC_Transmit_FS+0x12>
  }
  USBD_CDC_SetTxBuffer(&hUsbDeviceFS, Buf, Len);
  result = USBD_CDC_TransmitPacket(&hUsbDeviceFS);
  /* USER CODE END 7 */
  return result;
}
 80082ee:	2001      	movs	r0, #1
 80082f0:	bd10      	pop	{r4, pc}
 80082f2:	460a      	mov	r2, r1
 80082f4:	4601      	mov	r1, r0
  USBD_CDC_SetTxBuffer(&hUsbDeviceFS, Buf, Len);
 80082f6:	4620      	mov	r0, r4
 80082f8:	f7ff fb40 	bl	800797c <USBD_CDC_SetTxBuffer>
  result = USBD_CDC_TransmitPacket(&hUsbDeviceFS);
 80082fc:	4620      	mov	r0, r4
}
 80082fe:	e8bd 4010 	ldmia.w	sp!, {r4, lr}
  result = USBD_CDC_TransmitPacket(&hUsbDeviceFS);
 8008302:	f7ff bb49 	b.w	8007998 <USBD_CDC_TransmitPacket>
 8008306:	bf00      	nop
 8008308:	20000d2c 	.word	0x20000d2c

0800830c <USBD_FS_DeviceDescriptor>:
  * @retval Pointer to descriptor buffer
  */
uint8_t * USBD_FS_DeviceDescriptor(USBD_SpeedTypeDef speed, uint16_t *length)
{
  UNUSED(speed);
  *length = sizeof(USBD_FS_DeviceDesc);
 800830c:	2312      	movs	r3, #18
  return USBD_FS_DeviceDesc;
}
 800830e:	4801      	ldr	r0, [pc, #4]	; (8008314 <USBD_FS_DeviceDescriptor+0x8>)
  *length = sizeof(USBD_FS_DeviceDesc);
 8008310:	800b      	strh	r3, [r1, #0]
}
 8008312:	4770      	bx	lr
 8008314:	20000180 	.word	0x20000180

08008318 <USBD_FS_LangIDStrDescriptor>:
  * @retval Pointer to descriptor buffer
  */
uint8_t * USBD_FS_LangIDStrDescriptor(USBD_SpeedTypeDef speed, uint16_t *length)
{
  UNUSED(speed);
  *length = sizeof(USBD_LangIDDesc);
 8008318:	2304      	movs	r3, #4
  return USBD_LangIDDesc;
}
 800831a:	4801      	ldr	r0, [pc, #4]	; (8008320 <USBD_FS_LangIDStrDescriptor+0x8>)
  *length = sizeof(USBD_LangIDDesc);
 800831c:	800b      	strh	r3, [r1, #0]
}
 800831e:	4770      	bx	lr
 8008320:	20000194 	.word	0x20000194

08008324 <USBD_FS_ManufacturerStrDescriptor>:
  * @param  speed : Current device speed
  * @param  length : Pointer to data length variable
  * @retval Pointer to descriptor buffer
  */
uint8_t * USBD_FS_ManufacturerStrDescriptor(USBD_SpeedTypeDef speed, uint16_t *length)
{
 8008324:	b510      	push	{r4, lr}
  UNUSED(speed);
  USBD_GetString((uint8_t *)USBD_MANUFACTURER_STRING, USBD_StrDesc, length);
 8008326:	4c04      	ldr	r4, [pc, #16]	; (8008338 <USBD_FS_ManufacturerStrDescriptor+0x14>)
 8008328:	460a      	mov	r2, r1
 800832a:	4804      	ldr	r0, [pc, #16]	; (800833c <USBD_FS_ManufacturerStrDescriptor+0x18>)
 800832c:	4621      	mov	r1, r4
 800832e:	f7ff ff19 	bl	8008164 <USBD_GetString>
  return USBD_StrDesc;
}
 8008332:	4620      	mov	r0, r4
 8008334:	bd10      	pop	{r4, pc}
 8008336:	bf00      	nop
 8008338:	200017c0 	.word	0x200017c0
 800833c:	0800c3cc 	.word	0x0800c3cc

08008340 <USBD_FS_ProductStrDescriptor>:
{
 8008340:	b510      	push	{r4, lr}
    USBD_GetString((uint8_t *)USBD_PRODUCT_STRING_FS, USBD_StrDesc, length);
 8008342:	4c04      	ldr	r4, [pc, #16]	; (8008354 <USBD_FS_ProductStrDescriptor+0x14>)
 8008344:	460a      	mov	r2, r1
 8008346:	4804      	ldr	r0, [pc, #16]	; (8008358 <USBD_FS_ProductStrDescriptor+0x18>)
 8008348:	4621      	mov	r1, r4
 800834a:	f7ff ff0b 	bl	8008164 <USBD_GetString>
}
 800834e:	4620      	mov	r0, r4
 8008350:	bd10      	pop	{r4, pc}
 8008352:	bf00      	nop
 8008354:	200017c0 	.word	0x200017c0
 8008358:	0800c3e0 	.word	0x0800c3e0

0800835c <USBD_FS_ConfigStrDescriptor>:
  * @param  speed : Current device speed
  * @param  length : Pointer to data length variable
  * @retval Pointer to descriptor buffer
  */
uint8_t * USBD_FS_ConfigStrDescriptor(USBD_SpeedTypeDef speed, uint16_t *length)
{
 800835c:	b510      	push	{r4, lr}
  if(speed == USBD_SPEED_HIGH)
  {
    USBD_GetString((uint8_t *)USBD_CONFIGURATION_STRING_FS, USBD_StrDesc, length);
 800835e:	4c04      	ldr	r4, [pc, #16]	; (8008370 <USBD_FS_ConfigStrDescriptor+0x14>)
 8008360:	460a      	mov	r2, r1
 8008362:	4804      	ldr	r0, [pc, #16]	; (8008374 <USBD_FS_ConfigStrDescriptor+0x18>)
 8008364:	4621      	mov	r1, r4
 8008366:	f7ff fefd 	bl	8008164 <USBD_GetString>
  else
  {
    USBD_GetString((uint8_t *)USBD_CONFIGURATION_STRING_FS, USBD_StrDesc, length);
  }
  return USBD_StrDesc;
}
 800836a:	4620      	mov	r0, r4
 800836c:	bd10      	pop	{r4, pc}
 800836e:	bf00      	nop
 8008370:	200017c0 	.word	0x200017c0
 8008374:	0800c3b0 	.word	0x0800c3b0

08008378 <USBD_FS_InterfaceStrDescriptor>:
  * @param  speed : Current device speed
  * @param  length : Pointer to data length variable
  * @retval Pointer to descriptor buffer
  */
uint8_t * USBD_FS_InterfaceStrDescriptor(USBD_SpeedTypeDef speed, uint16_t *length)
{
 8008378:	b510      	push	{r4, lr}
  if(speed == 0)
  {
    USBD_GetString((uint8_t *)USBD_INTERFACE_STRING_FS, USBD_StrDesc, length);
 800837a:	4c04      	ldr	r4, [pc, #16]	; (800838c <USBD_FS_InterfaceStrDescriptor+0x14>)
 800837c:	460a      	mov	r2, r1
 800837e:	4804      	ldr	r0, [pc, #16]	; (8008390 <USBD_FS_InterfaceStrDescriptor+0x18>)
 8008380:	4621      	mov	r1, r4
 8008382:	f7ff feef 	bl	8008164 <USBD_GetString>
  else
  {
    USBD_GetString((uint8_t *)USBD_INTERFACE_STRING_FS, USBD_StrDesc, length);
  }
  return USBD_StrDesc;
}
 8008386:	4620      	mov	r0, r4
 8008388:	bd10      	pop	{r4, pc}
 800838a:	bf00      	nop
 800838c:	200017c0 	.word	0x200017c0
 8008390:	0800c3bc 	.word	0x0800c3bc

08008394 <USBD_FS_SerialStrDescriptor>:
  *length = USB_SIZ_STRING_SERIAL;
 8008394:	201a      	movs	r0, #26
  */
static void Get_SerialNum(void)
{
  uint32_t deviceserial0, deviceserial1, deviceserial2;

  deviceserial0 = *(uint32_t *) DEVICE_ID1;
 8008396:	4a44      	ldr	r2, [pc, #272]	; (80084a8 <USBD_FS_SerialStrDescriptor+0x114>)
  deviceserial1 = *(uint32_t *) DEVICE_ID2;
  deviceserial2 = *(uint32_t *) DEVICE_ID3;
 8008398:	4b44      	ldr	r3, [pc, #272]	; (80084ac <USBD_FS_SerialStrDescriptor+0x118>)
  deviceserial0 = *(uint32_t *) DEVICE_ID1;
 800839a:	6812      	ldr	r2, [r2, #0]

  deviceserial0 += deviceserial2;
 800839c:	681b      	ldr	r3, [r3, #0]
  *length = USB_SIZ_STRING_SERIAL;
 800839e:	8008      	strh	r0, [r1, #0]

  if (deviceserial0 != 0)
 80083a0:	18d2      	adds	r2, r2, r3
 80083a2:	d101      	bne.n	80083a8 <USBD_FS_SerialStrDescriptor+0x14>
}
 80083a4:	4842      	ldr	r0, [pc, #264]	; (80084b0 <USBD_FS_SerialStrDescriptor+0x11c>)
 80083a6:	4770      	bx	lr
{
 80083a8:	b410      	push	{r4}
      pbuf[2 * idx] = (value >> 28) + 'A' - 10;
    }

    value = value << 4;

    pbuf[2 * idx + 1] = 0;
 80083aa:	2400      	movs	r4, #0
    if (((value >> 28)) < 0xA)
 80083ac:	0f13      	lsrs	r3, r2, #28
 80083ae:	b2d8      	uxtb	r0, r3
 80083b0:	2b09      	cmp	r3, #9
  deviceserial1 = *(uint32_t *) DEVICE_ID2;
 80083b2:	4940      	ldr	r1, [pc, #256]	; (80084b4 <USBD_FS_SerialStrDescriptor+0x120>)
      pbuf[2 * idx] = (value >> 28) + '0';
 80083b4:	4b3e      	ldr	r3, [pc, #248]	; (80084b0 <USBD_FS_SerialStrDescriptor+0x11c>)
 80083b6:	bf94      	ite	ls
 80083b8:	3030      	addls	r0, #48	; 0x30
      pbuf[2 * idx] = (value >> 28) + 'A' - 10;
 80083ba:	3037      	addhi	r0, #55	; 0x37
  deviceserial1 = *(uint32_t *) DEVICE_ID2;
 80083bc:	6809      	ldr	r1, [r1, #0]
      pbuf[2 * idx] = (value >> 28) + 'A' - 10;
 80083be:	7098      	strb	r0, [r3, #2]
    if (((value >> 28)) < 0xA)
 80083c0:	f3c2 6003 	ubfx	r0, r2, #24, #4
 80083c4:	2809      	cmp	r0, #9
    pbuf[2 * idx + 1] = 0;
 80083c6:	70dc      	strb	r4, [r3, #3]
 80083c8:	b2c4      	uxtb	r4, r0
      pbuf[2 * idx] = (value >> 28) + '0';
 80083ca:	bf94      	ite	ls
 80083cc:	3430      	addls	r4, #48	; 0x30
      pbuf[2 * idx] = (value >> 28) + 'A' - 10;
 80083ce:	3437      	addhi	r4, #55	; 0x37
 80083d0:	711c      	strb	r4, [r3, #4]
    pbuf[2 * idx + 1] = 0;
 80083d2:	2400      	movs	r4, #0
    if (((value >> 28)) < 0xA)
 80083d4:	f3c2 5003 	ubfx	r0, r2, #20, #4
 80083d8:	2809      	cmp	r0, #9
    pbuf[2 * idx + 1] = 0;
 80083da:	715c      	strb	r4, [r3, #5]
 80083dc:	b2c4      	uxtb	r4, r0
      pbuf[2 * idx] = (value >> 28) + '0';
 80083de:	bf94      	ite	ls
 80083e0:	3430      	addls	r4, #48	; 0x30
      pbuf[2 * idx] = (value >> 28) + 'A' - 10;
 80083e2:	3437      	addhi	r4, #55	; 0x37
 80083e4:	719c      	strb	r4, [r3, #6]
    pbuf[2 * idx + 1] = 0;
 80083e6:	2400      	movs	r4, #0
    if (((value >> 28)) < 0xA)
 80083e8:	f3c2 4003 	ubfx	r0, r2, #16, #4
 80083ec:	2809      	cmp	r0, #9
    pbuf[2 * idx + 1] = 0;
 80083ee:	71dc      	strb	r4, [r3, #7]
 80083f0:	b2c4      	uxtb	r4, r0
      pbuf[2 * idx] = (value >> 28) + '0';
 80083f2:	bf94      	ite	ls
 80083f4:	3430      	addls	r4, #48	; 0x30
      pbuf[2 * idx] = (value >> 28) + 'A' - 10;
 80083f6:	3437      	addhi	r4, #55	; 0x37
 80083f8:	721c      	strb	r4, [r3, #8]
    pbuf[2 * idx + 1] = 0;
 80083fa:	2400      	movs	r4, #0
    if (((value >> 28)) < 0xA)
 80083fc:	f3c2 3003 	ubfx	r0, r2, #12, #4
 8008400:	2809      	cmp	r0, #9
    pbuf[2 * idx + 1] = 0;
 8008402:	725c      	strb	r4, [r3, #9]
 8008404:	b2c4      	uxtb	r4, r0
      pbuf[2 * idx] = (value >> 28) + '0';
 8008406:	bf94      	ite	ls
 8008408:	3430      	addls	r4, #48	; 0x30
      pbuf[2 * idx] = (value >> 28) + 'A' - 10;
 800840a:	3437      	addhi	r4, #55	; 0x37
 800840c:	729c      	strb	r4, [r3, #10]
    pbuf[2 * idx + 1] = 0;
 800840e:	2400      	movs	r4, #0
    if (((value >> 28)) < 0xA)
 8008410:	f3c2 2003 	ubfx	r0, r2, #8, #4
 8008414:	2809      	cmp	r0, #9
    pbuf[2 * idx + 1] = 0;
 8008416:	72dc      	strb	r4, [r3, #11]
 8008418:	b2c4      	uxtb	r4, r0
      pbuf[2 * idx] = (value >> 28) + '0';
 800841a:	bf94      	ite	ls
 800841c:	3430      	addls	r4, #48	; 0x30
      pbuf[2 * idx] = (value >> 28) + 'A' - 10;
 800841e:	3437      	addhi	r4, #55	; 0x37
 8008420:	731c      	strb	r4, [r3, #12]
    pbuf[2 * idx + 1] = 0;
 8008422:	2400      	movs	r4, #0
    if (((value >> 28)) < 0xA)
 8008424:	f3c2 1003 	ubfx	r0, r2, #4, #4
 8008428:	2809      	cmp	r0, #9
 800842a:	f002 020f 	and.w	r2, r2, #15
    pbuf[2 * idx + 1] = 0;
 800842e:	735c      	strb	r4, [r3, #13]
 8008430:	b2c4      	uxtb	r4, r0
      pbuf[2 * idx] = (value >> 28) + '0';
 8008432:	bf98      	it	ls
 8008434:	3430      	addls	r4, #48	; 0x30
 8008436:	b2d0      	uxtb	r0, r2
      pbuf[2 * idx] = (value >> 28) + 'A' - 10;
 8008438:	bf88      	it	hi
 800843a:	3437      	addhi	r4, #55	; 0x37
    if (((value >> 28)) < 0xA)
 800843c:	2a09      	cmp	r2, #9
      pbuf[2 * idx] = (value >> 28) + '0';
 800843e:	bf94      	ite	ls
 8008440:	3030      	addls	r0, #48	; 0x30
      pbuf[2 * idx] = (value >> 28) + 'A' - 10;
 8008442:	3037      	addhi	r0, #55	; 0x37
 8008444:	7418      	strb	r0, [r3, #16]
    pbuf[2 * idx + 1] = 0;
 8008446:	2000      	movs	r0, #0
    if (((value >> 28)) < 0xA)
 8008448:	0f0a      	lsrs	r2, r1, #28
 800844a:	2a09      	cmp	r2, #9
    pbuf[2 * idx + 1] = 0;
 800844c:	7458      	strb	r0, [r3, #17]
 800844e:	b2d0      	uxtb	r0, r2
      pbuf[2 * idx] = (value >> 28) + '0';
 8008450:	bf94      	ite	ls
 8008452:	3030      	addls	r0, #48	; 0x30
      pbuf[2 * idx] = (value >> 28) + 'A' - 10;
 8008454:	3037      	addhi	r0, #55	; 0x37
 8008456:	7498      	strb	r0, [r3, #18]
    pbuf[2 * idx + 1] = 0;
 8008458:	2000      	movs	r0, #0
    if (((value >> 28)) < 0xA)
 800845a:	f3c1 6203 	ubfx	r2, r1, #24, #4
 800845e:	2a09      	cmp	r2, #9
    pbuf[2 * idx + 1] = 0;
 8008460:	74d8      	strb	r0, [r3, #19]
 8008462:	b2d0      	uxtb	r0, r2
      pbuf[2 * idx] = (value >> 28) + '0';
 8008464:	bf94      	ite	ls
 8008466:	3030      	addls	r0, #48	; 0x30
      pbuf[2 * idx] = (value >> 28) + 'A' - 10;
 8008468:	3037      	addhi	r0, #55	; 0x37
 800846a:	7518      	strb	r0, [r3, #20]
    pbuf[2 * idx + 1] = 0;
 800846c:	2000      	movs	r0, #0
    if (((value >> 28)) < 0xA)
 800846e:	f3c1 5203 	ubfx	r2, r1, #20, #4
 8008472:	2a09      	cmp	r2, #9
    pbuf[2 * idx + 1] = 0;
 8008474:	7558      	strb	r0, [r3, #21]
    if (((value >> 28)) < 0xA)
 8008476:	f3c1 4103 	ubfx	r1, r1, #16, #4
 800847a:	b2d0      	uxtb	r0, r2
      pbuf[2 * idx] = (value >> 28) + '0';
 800847c:	bf98      	it	ls
 800847e:	3030      	addls	r0, #48	; 0x30
 8008480:	b2ca      	uxtb	r2, r1
      pbuf[2 * idx] = (value >> 28) + 'A' - 10;
 8008482:	bf88      	it	hi
 8008484:	3037      	addhi	r0, #55	; 0x37
    if (((value >> 28)) < 0xA)
 8008486:	2909      	cmp	r1, #9
      pbuf[2 * idx] = (value >> 28) + '0';
 8008488:	bf94      	ite	ls
 800848a:	3230      	addls	r2, #48	; 0x30
      pbuf[2 * idx] = (value >> 28) + 'A' - 10;
 800848c:	3237      	addhi	r2, #55	; 0x37
 800848e:	739c      	strb	r4, [r3, #14]
 8008490:	7598      	strb	r0, [r3, #22]
    pbuf[2 * idx + 1] = 0;
 8008492:	2400      	movs	r4, #0
 8008494:	2000      	movs	r0, #0
      pbuf[2 * idx] = (value >> 28) + 'A' - 10;
 8008496:	761a      	strb	r2, [r3, #24]
    pbuf[2 * idx + 1] = 0;
 8008498:	2200      	movs	r2, #0
 800849a:	75d8      	strb	r0, [r3, #23]
 800849c:	73dc      	strb	r4, [r3, #15]
 800849e:	765a      	strb	r2, [r3, #25]
}
 80084a0:	4803      	ldr	r0, [pc, #12]	; (80084b0 <USBD_FS_SerialStrDescriptor+0x11c>)
 80084a2:	bc10      	pop	{r4}
 80084a4:	4770      	bx	lr
 80084a6:	bf00      	nop
 80084a8:	1ffff7e8 	.word	0x1ffff7e8
 80084ac:	1ffff7f0 	.word	0x1ffff7f0
 80084b0:	20000198 	.word	0x20000198
 80084b4:	1ffff7ec 	.word	0x1ffff7ec

080084b8 <HAL_PCD_MspInit>:
*******************************************************************************/
/* MSP Init */

void HAL_PCD_MspInit(PCD_HandleTypeDef* pcdHandle)
{
  if(pcdHandle->Instance==USB)
 80084b8:	6802      	ldr	r2, [r0, #0]
 80084ba:	4b0e      	ldr	r3, [pc, #56]	; (80084f4 <HAL_PCD_MspInit+0x3c>)
 80084bc:	429a      	cmp	r2, r3
 80084be:	d000      	beq.n	80084c2 <HAL_PCD_MspInit+0xa>
 80084c0:	4770      	bx	lr
  /* USER CODE END USB_MspInit 0 */
    /* Peripheral clock enable */
    __HAL_RCC_USB_CLK_ENABLE();

    /* Peripheral interrupt init */
    HAL_NVIC_SetPriority(USB_LP_CAN1_RX0_IRQn, 0, 0);
 80084c2:	2200      	movs	r2, #0
    __HAL_RCC_USB_CLK_ENABLE();
 80084c4:	f503 33da 	add.w	r3, r3, #111616	; 0x1b400
{
 80084c8:	b510      	push	{r4, lr}
    __HAL_RCC_USB_CLK_ENABLE();
 80084ca:	69dc      	ldr	r4, [r3, #28]
{
 80084cc:	b082      	sub	sp, #8
    __HAL_RCC_USB_CLK_ENABLE();
 80084ce:	f444 0400 	orr.w	r4, r4, #8388608	; 0x800000
 80084d2:	61dc      	str	r4, [r3, #28]
 80084d4:	69db      	ldr	r3, [r3, #28]
    HAL_NVIC_SetPriority(USB_LP_CAN1_RX0_IRQn, 0, 0);
 80084d6:	4611      	mov	r1, r2
    __HAL_RCC_USB_CLK_ENABLE();
 80084d8:	f403 0300 	and.w	r3, r3, #8388608	; 0x800000
 80084dc:	9301      	str	r3, [sp, #4]
    HAL_NVIC_SetPriority(USB_LP_CAN1_RX0_IRQn, 0, 0);
 80084de:	2014      	movs	r0, #20
    __HAL_RCC_USB_CLK_ENABLE();
 80084e0:	9b01      	ldr	r3, [sp, #4]
    HAL_NVIC_SetPriority(USB_LP_CAN1_RX0_IRQn, 0, 0);
 80084e2:	f7fc f9fb 	bl	80048dc <HAL_NVIC_SetPriority>
    HAL_NVIC_EnableIRQ(USB_LP_CAN1_RX0_IRQn);
 80084e6:	2014      	movs	r0, #20
  /* USER CODE BEGIN USB_MspInit 1 */

  /* USER CODE END USB_MspInit 1 */
  }
}
 80084e8:	b002      	add	sp, #8
 80084ea:	e8bd 4010 	ldmia.w	sp!, {r4, lr}
    HAL_NVIC_EnableIRQ(USB_LP_CAN1_RX0_IRQn);
 80084ee:	f7fc ba2b 	b.w	8004948 <HAL_NVIC_EnableIRQ>
 80084f2:	bf00      	nop
 80084f4:	40005c00 	.word	0x40005c00

080084f8 <HAL_PCD_SetupStageCallback>:
static void PCD_SetupStageCallback(PCD_HandleTypeDef *hpcd)
#else
void HAL_PCD_SetupStageCallback(PCD_HandleTypeDef *hpcd)
#endif /* USE_HAL_PCD_REGISTER_CALLBACKS */
{
  USBD_LL_SetupStage((USBD_HandleTypeDef*)hpcd->pData, (uint8_t *)hpcd->Setup);
 80084f8:	f500 710c 	add.w	r1, r0, #560	; 0x230
 80084fc:	f8d0 0268 	ldr.w	r0, [r0, #616]	; 0x268
 8008500:	f7ff bab2 	b.w	8007a68 <USBD_LL_SetupStage>

08008504 <HAL_PCD_DataOutStageCallback>:
static void PCD_DataOutStageCallback(PCD_HandleTypeDef *hpcd, uint8_t epnum)
#else
void HAL_PCD_DataOutStageCallback(PCD_HandleTypeDef *hpcd, uint8_t epnum)
#endif /* USE_HAL_PCD_REGISTER_CALLBACKS */
{
  USBD_LL_DataOutStage((USBD_HandleTypeDef*)hpcd->pData, epnum, hpcd->OUT_ep[epnum].xfer_buff);
 8008504:	eb00 1341 	add.w	r3, r0, r1, lsl #5
 8008508:	f8d3 213c 	ldr.w	r2, [r3, #316]	; 0x13c
 800850c:	f8d0 0268 	ldr.w	r0, [r0, #616]	; 0x268
 8008510:	f7ff bada 	b.w	8007ac8 <USBD_LL_DataOutStage>

08008514 <HAL_PCD_DataInStageCallback>:
static void PCD_DataInStageCallback(PCD_HandleTypeDef *hpcd, uint8_t epnum)
#else
void HAL_PCD_DataInStageCallback(PCD_HandleTypeDef *hpcd, uint8_t epnum)
#endif /* USE_HAL_PCD_REGISTER_CALLBACKS */
{
  USBD_LL_DataInStage((USBD_HandleTypeDef*)hpcd->pData, epnum, hpcd->IN_ep[epnum].xfer_buff);
 8008514:	eb00 1341 	add.w	r3, r0, r1, lsl #5
 8008518:	6bda      	ldr	r2, [r3, #60]	; 0x3c
 800851a:	f8d0 0268 	ldr.w	r0, [r0, #616]	; 0x268
 800851e:	f7ff bb13 	b.w	8007b48 <USBD_LL_DataInStage>
 8008522:	bf00      	nop

08008524 <HAL_PCD_SOFCallback>:
static void PCD_SOFCallback(PCD_HandleTypeDef *hpcd)
#else
void HAL_PCD_SOFCallback(PCD_HandleTypeDef *hpcd)
#endif /* USE_HAL_PCD_REGISTER_CALLBACKS */
{
  USBD_LL_SOF((USBD_HandleTypeDef*)hpcd->pData);
 8008524:	f8d0 0268 	ldr.w	r0, [r0, #616]	; 0x268
 8008528:	f7ff bbae 	b.w	8007c88 <USBD_LL_SOF>

0800852c <HAL_PCD_ResetCallback>:
void HAL_PCD_ResetCallback(PCD_HandleTypeDef *hpcd)
#endif /* USE_HAL_PCD_REGISTER_CALLBACKS */
{ 
  USBD_SpeedTypeDef speed = USBD_SPEED_FULL;

  if ( hpcd->Init.speed != PCD_SPEED_FULL)
 800852c:	6883      	ldr	r3, [r0, #8]
{ 
 800852e:	b510      	push	{r4, lr}
  if ( hpcd->Init.speed != PCD_SPEED_FULL)
 8008530:	2b02      	cmp	r3, #2
{ 
 8008532:	4604      	mov	r4, r0
  if ( hpcd->Init.speed != PCD_SPEED_FULL)
 8008534:	d001      	beq.n	800853a <HAL_PCD_ResetCallback+0xe>
  {
    Error_Handler();
 8008536:	f7fa f9a1 	bl	800287c <Error_Handler>
  }
    /* Set Speed. */
  USBD_LL_SetSpeed((USBD_HandleTypeDef*)hpcd->pData, speed);
 800853a:	f8d4 0268 	ldr.w	r0, [r4, #616]	; 0x268
 800853e:	2101      	movs	r1, #1
 8008540:	f7ff fb8a 	bl	8007c58 <USBD_LL_SetSpeed>

  /* Reset Device. */
  USBD_LL_Reset((USBD_HandleTypeDef*)hpcd->pData);
 8008544:	f8d4 0268 	ldr.w	r0, [r4, #616]	; 0x268
}
 8008548:	e8bd 4010 	ldmia.w	sp!, {r4, lr}
  USBD_LL_Reset((USBD_HandleTypeDef*)hpcd->pData);
 800854c:	f7ff bb5c 	b.w	8007c08 <USBD_LL_Reset>

08008550 <HAL_PCD_SuspendCallback>:
#if (USE_HAL_PCD_REGISTER_CALLBACKS == 1U)
static void PCD_SuspendCallback(PCD_HandleTypeDef *hpcd)
#else
void HAL_PCD_SuspendCallback(PCD_HandleTypeDef *hpcd)
#endif /* USE_HAL_PCD_REGISTER_CALLBACKS */
{
 8008550:	b510      	push	{r4, lr}
 8008552:	4604      	mov	r4, r0
  /* Inform USB library that core enters in suspend Mode. */
  USBD_LL_Suspend((USBD_HandleTypeDef*)hpcd->pData);
 8008554:	f8d0 0268 	ldr.w	r0, [r0, #616]	; 0x268
 8008558:	f7ff fb82 	bl	8007c60 <USBD_LL_Suspend>
  /* Enter in STOP mode. */
  /* USER CODE BEGIN 2 */
  if (hpcd->Init.low_power_enable)
 800855c:	69a3      	ldr	r3, [r4, #24]
 800855e:	b123      	cbz	r3, 800856a <HAL_PCD_SuspendCallback+0x1a>
  {
    /* Set SLEEPDEEP bit and SleepOnExit of Cortex System Control Register. */
    SCB->SCR |= (uint32_t)((uint32_t)(SCB_SCR_SLEEPDEEP_Msk | SCB_SCR_SLEEPONEXIT_Msk));
 8008560:	4a02      	ldr	r2, [pc, #8]	; (800856c <HAL_PCD_SuspendCallback+0x1c>)
 8008562:	6913      	ldr	r3, [r2, #16]
 8008564:	f043 0306 	orr.w	r3, r3, #6
 8008568:	6113      	str	r3, [r2, #16]
  }
  /* USER CODE END 2 */
}
 800856a:	bd10      	pop	{r4, pc}
 800856c:	e000ed00 	.word	0xe000ed00

08008570 <HAL_PCD_ResumeCallback>:
#endif /* USE_HAL_PCD_REGISTER_CALLBACKS */
{
  /* USER CODE BEGIN 3 */

  /* USER CODE END 3 */
  USBD_LL_Resume((USBD_HandleTypeDef*)hpcd->pData);
 8008570:	f8d0 0268 	ldr.w	r0, [r0, #616]	; 0x268
 8008574:	f7ff bb7e 	b.w	8007c74 <USBD_LL_Resume>

08008578 <USBD_LL_Init>:
  * @brief  Initializes the low level portion of the device driver.
  * @param  pdev: Device handle
  * @retval USBD status
  */
USBD_StatusTypeDef USBD_LL_Init(USBD_HandleTypeDef *pdev)
{
 8008578:	b538      	push	{r3, r4, r5, lr}
 800857a:	4604      	mov	r4, r0
  pdev->pData = &hpcd_USB_FS;

  hpcd_USB_FS.Instance = USB;
  hpcd_USB_FS.Init.dev_endpoints = 8;
  hpcd_USB_FS.Init.speed = PCD_SPEED_FULL;
  hpcd_USB_FS.Init.low_power_enable = DISABLE;
 800857c:	2200      	movs	r2, #0
  hpcd_USB_FS.Init.dev_endpoints = 8;
 800857e:	2508      	movs	r5, #8
  hpcd_USB_FS.Init.speed = PCD_SPEED_FULL;
 8008580:	2102      	movs	r1, #2
  hpcd_USB_FS.pData = pdev;
 8008582:	4b1c      	ldr	r3, [pc, #112]	; (80085f4 <USBD_LL_Init+0x7c>)
  hpcd_USB_FS.Instance = USB;
 8008584:	481c      	ldr	r0, [pc, #112]	; (80085f8 <USBD_LL_Init+0x80>)
  pdev->pData = &hpcd_USB_FS;
 8008586:	f8c4 32c0 	str.w	r3, [r4, #704]	; 0x2c0
  hpcd_USB_FS.Instance = USB;
 800858a:	6018      	str	r0, [r3, #0]
  hpcd_USB_FS.Init.lpm_enable = DISABLE;
  hpcd_USB_FS.Init.battery_charging_enable = DISABLE;
  if (HAL_PCD_Init(&hpcd_USB_FS) != HAL_OK)
 800858c:	4618      	mov	r0, r3
  hpcd_USB_FS.pData = pdev;
 800858e:	f8c3 4268 	str.w	r4, [r3, #616]	; 0x268
  hpcd_USB_FS.Init.speed = PCD_SPEED_FULL;
 8008592:	e9c3 5101 	strd	r5, r1, [r3, #4]
  hpcd_USB_FS.Init.lpm_enable = DISABLE;
 8008596:	e9c3 2206 	strd	r2, r2, [r3, #24]
  hpcd_USB_FS.Init.battery_charging_enable = DISABLE;
 800859a:	621a      	str	r2, [r3, #32]
  if (HAL_PCD_Init(&hpcd_USB_FS) != HAL_OK)
 800859c:	f7fd f9a8 	bl	80058f0 <HAL_PCD_Init>
 80085a0:	b108      	cbz	r0, 80085a6 <USBD_LL_Init+0x2e>
  {
    Error_Handler( );
 80085a2:	f7fa f96b 	bl	800287c <Error_Handler>
  HAL_PCD_RegisterDataInStageCallback(&hpcd_USB_FS, PCD_DataInStageCallback);
  HAL_PCD_RegisterIsoOutIncpltCallback(&hpcd_USB_FS, PCD_ISOOUTIncompleteCallback);
  HAL_PCD_RegisterIsoInIncpltCallback(&hpcd_USB_FS, PCD_ISOINIncompleteCallback);
#endif /* USE_HAL_PCD_REGISTER_CALLBACKS */
  /* USER CODE BEGIN EndPoint_Configuration */
  HAL_PCDEx_PMAConfig((PCD_HandleTypeDef*)pdev->pData , 0x00 , PCD_SNG_BUF, 0x18);
 80085a6:	2200      	movs	r2, #0
 80085a8:	2318      	movs	r3, #24
 80085aa:	4611      	mov	r1, r2
 80085ac:	f8d4 02c0 	ldr.w	r0, [r4, #704]	; 0x2c0
 80085b0:	f7fd fdbe 	bl	8006130 <HAL_PCDEx_PMAConfig>
  HAL_PCDEx_PMAConfig((PCD_HandleTypeDef*)pdev->pData , 0x80 , PCD_SNG_BUF, 0x58);
 80085b4:	2358      	movs	r3, #88	; 0x58
 80085b6:	2200      	movs	r2, #0
 80085b8:	2180      	movs	r1, #128	; 0x80
 80085ba:	f8d4 02c0 	ldr.w	r0, [r4, #704]	; 0x2c0
 80085be:	f7fd fdb7 	bl	8006130 <HAL_PCDEx_PMAConfig>
  /* USER CODE END EndPoint_Configuration */
  /* USER CODE BEGIN EndPoint_Configuration_CDC */
  HAL_PCDEx_PMAConfig((PCD_HandleTypeDef*)pdev->pData , 0x81 , PCD_SNG_BUF, 0xC0);
 80085c2:	23c0      	movs	r3, #192	; 0xc0
 80085c4:	2200      	movs	r2, #0
 80085c6:	2181      	movs	r1, #129	; 0x81
 80085c8:	f8d4 02c0 	ldr.w	r0, [r4, #704]	; 0x2c0
 80085cc:	f7fd fdb0 	bl	8006130 <HAL_PCDEx_PMAConfig>
  HAL_PCDEx_PMAConfig((PCD_HandleTypeDef*)pdev->pData , 0x01 , PCD_SNG_BUF, 0x110);
 80085d0:	f44f 7388 	mov.w	r3, #272	; 0x110
 80085d4:	2200      	movs	r2, #0
 80085d6:	2101      	movs	r1, #1
 80085d8:	f8d4 02c0 	ldr.w	r0, [r4, #704]	; 0x2c0
 80085dc:	f7fd fda8 	bl	8006130 <HAL_PCDEx_PMAConfig>
  HAL_PCDEx_PMAConfig((PCD_HandleTypeDef*)pdev->pData , 0x82 , PCD_SNG_BUF, 0x100);
 80085e0:	f8d4 02c0 	ldr.w	r0, [r4, #704]	; 0x2c0
 80085e4:	f44f 7380 	mov.w	r3, #256	; 0x100
 80085e8:	2200      	movs	r2, #0
 80085ea:	2182      	movs	r1, #130	; 0x82
 80085ec:	f7fd fda0 	bl	8006130 <HAL_PCDEx_PMAConfig>
  /* USER CODE END EndPoint_Configuration_CDC */
  return USBD_OK;
}
 80085f0:	2000      	movs	r0, #0
 80085f2:	bd38      	pop	{r3, r4, r5, pc}
 80085f4:	200019c0 	.word	0x200019c0
 80085f8:	40005c00 	.word	0x40005c00

080085fc <USBD_LL_Start>:
  * @brief  Starts the low level portion of the device driver.
  * @param  pdev: Device handle
  * @retval USBD status
  */
USBD_StatusTypeDef USBD_LL_Start(USBD_HandleTypeDef *pdev)
{
 80085fc:	b508      	push	{r3, lr}
  HAL_StatusTypeDef hal_status = HAL_OK;
  USBD_StatusTypeDef usb_status = USBD_OK;
 
  hal_status = HAL_PCD_Start(pdev->pData);
 80085fe:	f8d0 02c0 	ldr.w	r0, [r0, #704]	; 0x2c0
 8008602:	f7fd f9f3 	bl	80059ec <HAL_PCD_Start>
 8008606:	2803      	cmp	r0, #3
 8008608:	bf96      	itet	ls
 800860a:	4b02      	ldrls	r3, [pc, #8]	; (8008614 <USBD_LL_Start+0x18>)
 800860c:	2002      	movhi	r0, #2
 800860e:	5c18      	ldrbls	r0, [r3, r0]
     
  usb_status =  USBD_Get_USB_Status(hal_status);
  
  return usb_status;
}
 8008610:	bd08      	pop	{r3, pc}
 8008612:	bf00      	nop
 8008614:	0800c3ec 	.word	0x0800c3ec

08008618 <USBD_LL_OpenEP>:
  * @param  ep_type: Endpoint type
  * @param  ep_mps: Endpoint max packet size
  * @retval USBD status
  */
USBD_StatusTypeDef USBD_LL_OpenEP(USBD_HandleTypeDef *pdev, uint8_t ep_addr, uint8_t ep_type, uint16_t ep_mps)
{
 8008618:	b510      	push	{r4, lr}
 800861a:	461c      	mov	r4, r3
  HAL_StatusTypeDef hal_status = HAL_OK;
  USBD_StatusTypeDef usb_status = USBD_OK;

  hal_status = HAL_PCD_EP_Open(pdev->pData, ep_addr, ep_mps, ep_type);
 800861c:	f8d0 02c0 	ldr.w	r0, [r0, #704]	; 0x2c0
 8008620:	4613      	mov	r3, r2
 8008622:	4622      	mov	r2, r4
 8008624:	f7fd fc7c 	bl	8005f20 <HAL_PCD_EP_Open>
 8008628:	2803      	cmp	r0, #3
 800862a:	bf96      	itet	ls
 800862c:	4b01      	ldrls	r3, [pc, #4]	; (8008634 <USBD_LL_OpenEP+0x1c>)
 800862e:	2002      	movhi	r0, #2
 8008630:	5c18      	ldrbls	r0, [r3, r0]

  usb_status =  USBD_Get_USB_Status(hal_status);
 
  return usb_status;
}
 8008632:	bd10      	pop	{r4, pc}
 8008634:	0800c3ec 	.word	0x0800c3ec

08008638 <USBD_LL_CloseEP>:
  * @param  pdev: Device handle
  * @param  ep_addr: Endpoint number
  * @retval USBD status
  */
USBD_StatusTypeDef USBD_LL_CloseEP(USBD_HandleTypeDef *pdev, uint8_t ep_addr)
{
 8008638:	b508      	push	{r3, lr}
  HAL_StatusTypeDef hal_status = HAL_OK;
  USBD_StatusTypeDef usb_status = USBD_OK;
  
  hal_status = HAL_PCD_EP_Close(pdev->pData, ep_addr);
 800863a:	f8d0 02c0 	ldr.w	r0, [r0, #704]	; 0x2c0
 800863e:	f7fd fca1 	bl	8005f84 <HAL_PCD_EP_Close>
 8008642:	2803      	cmp	r0, #3
 8008644:	bf96      	itet	ls
 8008646:	4b02      	ldrls	r3, [pc, #8]	; (8008650 <USBD_LL_CloseEP+0x18>)
 8008648:	2002      	movhi	r0, #2
 800864a:	5c18      	ldrbls	r0, [r3, r0]
      
  usb_status =  USBD_Get_USB_Status(hal_status);

  return usb_status;  
}
 800864c:	bd08      	pop	{r3, pc}
 800864e:	bf00      	nop
 8008650:	0800c3ec 	.word	0x0800c3ec

08008654 <USBD_LL_StallEP>:
  * @param  pdev: Device handle
  * @param  ep_addr: Endpoint number
  * @retval USBD status
  */
USBD_StatusTypeDef USBD_LL_StallEP(USBD_HandleTypeDef *pdev, uint8_t ep_addr)
{
 8008654:	b508      	push	{r3, lr}
  HAL_StatusTypeDef hal_status = HAL_OK;
  USBD_StatusTypeDef usb_status = USBD_OK;
  
  hal_status = HAL_PCD_EP_SetStall(pdev->pData, ep_addr);
 8008656:	f8d0 02c0 	ldr.w	r0, [r0, #704]	; 0x2c0
 800865a:	f7fd fcf5 	bl	8006048 <HAL_PCD_EP_SetStall>
 800865e:	2803      	cmp	r0, #3
 8008660:	bf96      	itet	ls
 8008662:	4b02      	ldrls	r3, [pc, #8]	; (800866c <USBD_LL_StallEP+0x18>)
 8008664:	2002      	movhi	r0, #2
 8008666:	5c18      	ldrbls	r0, [r3, r0]

  usb_status =  USBD_Get_USB_Status(hal_status);
 
  return usb_status;  
}
 8008668:	bd08      	pop	{r3, pc}
 800866a:	bf00      	nop
 800866c:	0800c3ec 	.word	0x0800c3ec

08008670 <USBD_LL_ClearStallEP>:
  * @param  pdev: Device handle
  * @param  ep_addr: Endpoint number
  * @retval USBD status
  */
USBD_StatusTypeDef USBD_LL_ClearStallEP(USBD_HandleTypeDef *pdev, uint8_t ep_addr)
{
 8008670:	b508      	push	{r3, lr}
  HAL_StatusTypeDef hal_status = HAL_OK;
  USBD_StatusTypeDef usb_status = USBD_OK;
  
  hal_status = HAL_PCD_EP_ClrStall(pdev->pData, ep_addr);  
 8008672:	f8d0 02c0 	ldr.w	r0, [r0, #704]	; 0x2c0
 8008676:	f7fd fd23 	bl	80060c0 <HAL_PCD_EP_ClrStall>
 800867a:	2803      	cmp	r0, #3
 800867c:	bf96      	itet	ls
 800867e:	4b02      	ldrls	r3, [pc, #8]	; (8008688 <USBD_LL_ClearStallEP+0x18>)
 8008680:	2002      	movhi	r0, #2
 8008682:	5c18      	ldrbls	r0, [r3, r0]
     
  usb_status =  USBD_Get_USB_Status(hal_status);

  return usb_status; 
}
 8008684:	bd08      	pop	{r3, pc}
 8008686:	bf00      	nop
 8008688:	0800c3ec 	.word	0x0800c3ec

0800868c <USBD_LL_IsStallEP>:
  */
uint8_t USBD_LL_IsStallEP(USBD_HandleTypeDef *pdev, uint8_t ep_addr)
{
  PCD_HandleTypeDef *hpcd = (PCD_HandleTypeDef*) pdev->pData;
  
  if((ep_addr & 0x80) == 0x80)
 800868c:	060a      	lsls	r2, r1, #24
  PCD_HandleTypeDef *hpcd = (PCD_HandleTypeDef*) pdev->pData;
 800868e:	f8d0 32c0 	ldr.w	r3, [r0, #704]	; 0x2c0
  if((ep_addr & 0x80) == 0x80)
 8008692:	d404      	bmi.n	800869e <USBD_LL_IsStallEP+0x12>
  {
    return hpcd->IN_ep[ep_addr & 0x7F].is_stall; 
  }
  else
  {
    return hpcd->OUT_ep[ep_addr & 0x7F].is_stall; 
 8008694:	eb03 1341 	add.w	r3, r3, r1, lsl #5
 8008698:	f893 012a 	ldrb.w	r0, [r3, #298]	; 0x12a
  }
}
 800869c:	4770      	bx	lr
    return hpcd->IN_ep[ep_addr & 0x7F].is_stall; 
 800869e:	f001 017f 	and.w	r1, r1, #127	; 0x7f
 80086a2:	eb03 1341 	add.w	r3, r3, r1, lsl #5
 80086a6:	f893 002a 	ldrb.w	r0, [r3, #42]	; 0x2a
 80086aa:	4770      	bx	lr

080086ac <USBD_LL_SetUSBAddress>:
  * @param  pdev: Device handle
  * @param  dev_addr: Device address
  * @retval USBD status
  */
USBD_StatusTypeDef USBD_LL_SetUSBAddress(USBD_HandleTypeDef *pdev, uint8_t dev_addr)
{
 80086ac:	b508      	push	{r3, lr}
  HAL_StatusTypeDef hal_status = HAL_OK;
  USBD_StatusTypeDef usb_status = USBD_OK;
  
  hal_status = HAL_PCD_SetAddress(pdev->pData, dev_addr);
 80086ae:	f8d0 02c0 	ldr.w	r0, [r0, #704]	; 0x2c0
 80086b2:	f7fd fc21 	bl	8005ef8 <HAL_PCD_SetAddress>
 80086b6:	2803      	cmp	r0, #3
 80086b8:	bf96      	itet	ls
 80086ba:	4b02      	ldrls	r3, [pc, #8]	; (80086c4 <USBD_LL_SetUSBAddress+0x18>)
 80086bc:	2002      	movhi	r0, #2
 80086be:	5c18      	ldrbls	r0, [r3, r0]
     
  usb_status =  USBD_Get_USB_Status(hal_status);
 
  return usb_status;  
}
 80086c0:	bd08      	pop	{r3, pc}
 80086c2:	bf00      	nop
 80086c4:	0800c3ec 	.word	0x0800c3ec

080086c8 <USBD_LL_Transmit>:
  * @param  pbuf: Pointer to data to be sent
  * @param  size: Data size    
  * @retval USBD status
  */
USBD_StatusTypeDef USBD_LL_Transmit(USBD_HandleTypeDef *pdev, uint8_t ep_addr, uint8_t *pbuf, uint16_t size)
{
 80086c8:	b508      	push	{r3, lr}
  HAL_StatusTypeDef hal_status = HAL_OK;
  USBD_StatusTypeDef usb_status = USBD_OK;

  hal_status = HAL_PCD_EP_Transmit(pdev->pData, ep_addr, pbuf, size);
 80086ca:	f8d0 02c0 	ldr.w	r0, [r0, #704]	; 0x2c0
 80086ce:	f7fd fca5 	bl	800601c <HAL_PCD_EP_Transmit>
 80086d2:	2803      	cmp	r0, #3
 80086d4:	bf96      	itet	ls
 80086d6:	4b02      	ldrls	r3, [pc, #8]	; (80086e0 <USBD_LL_Transmit+0x18>)
 80086d8:	2002      	movhi	r0, #2
 80086da:	5c18      	ldrbls	r0, [r3, r0]
     
  usb_status =  USBD_Get_USB_Status(hal_status);
  
  return usb_status;    
}
 80086dc:	bd08      	pop	{r3, pc}
 80086de:	bf00      	nop
 80086e0:	0800c3ec 	.word	0x0800c3ec

080086e4 <USBD_LL_PrepareReceive>:
  * @param  pbuf: Pointer to data to be received
  * @param  size: Data size
  * @retval USBD status
  */
USBD_StatusTypeDef USBD_LL_PrepareReceive(USBD_HandleTypeDef *pdev, uint8_t ep_addr, uint8_t *pbuf, uint16_t size)
{
 80086e4:	b508      	push	{r3, lr}
  HAL_StatusTypeDef hal_status = HAL_OK;
  USBD_StatusTypeDef usb_status = USBD_OK;

  hal_status = HAL_PCD_EP_Receive(pdev->pData, ep_addr, pbuf, size);
 80086e6:	f8d0 02c0 	ldr.w	r0, [r0, #704]	; 0x2c0
 80086ea:	f7fd fc77 	bl	8005fdc <HAL_PCD_EP_Receive>
 80086ee:	2803      	cmp	r0, #3
 80086f0:	bf96      	itet	ls
 80086f2:	4b02      	ldrls	r3, [pc, #8]	; (80086fc <USBD_LL_PrepareReceive+0x18>)
 80086f4:	2002      	movhi	r0, #2
 80086f6:	5c18      	ldrbls	r0, [r3, r0]
     
  usb_status =  USBD_Get_USB_Status(hal_status);
  	
  return usb_status; 
}
 80086f8:	bd08      	pop	{r3, pc}
 80086fa:	bf00      	nop
 80086fc:	0800c3ec 	.word	0x0800c3ec

08008700 <USBD_LL_GetRxDataSize>:
  * @param  ep_addr: Endpoint number
  * @retval Recived Data Size
  */
uint32_t USBD_LL_GetRxDataSize(USBD_HandleTypeDef *pdev, uint8_t ep_addr)
{
  return HAL_PCD_EP_GetRxCount((PCD_HandleTypeDef*) pdev->pData, ep_addr);
 8008700:	f8d0 02c0 	ldr.w	r0, [r0, #704]	; 0x2c0
 8008704:	f7fd bc82 	b.w	800600c <HAL_PCD_EP_GetRxCount>

08008708 <USBD_static_malloc>:
  */
void *USBD_static_malloc(uint32_t size)
{
  static uint32_t mem[(sizeof(USBD_CDC_HandleTypeDef)/4)+1];/* On 32-bit boundary */
  return mem;
}
 8008708:	4800      	ldr	r0, [pc, #0]	; (800870c <USBD_static_malloc+0x4>)
 800870a:	4770      	bx	lr
 800870c:	200003c8 	.word	0x200003c8

08008710 <USBD_static_free>:
  * @retval None
  */
void USBD_static_free(void *p)
{

}
 8008710:	4770      	bx	lr
 8008712:	bf00      	nop

08008714 <HAL_PCDEx_SetConnectionState>:
  {
    /* Configure High connection state. */

  }
  /* USER CODE END 6 */
}
 8008714:	4770      	bx	lr
 8008716:	bf00      	nop

08008718 <arm_mat_scale_f32>:
 8008718:	e92d 4ff8 	stmdb	sp!, {r3, r4, r5, r6, r7, r8, r9, sl, fp, lr}
 800871c:	e9d2 3900 	ldrd	r3, r9, [r2]
 8008720:	6804      	ldr	r4, [r0, #0]
 8008722:	f8d0 a004 	ldr.w	sl, [r0, #4]
 8008726:	429c      	cmp	r4, r3
 8008728:	d154      	bne.n	80087d4 <arm_mat_scale_f32+0xbc>
 800872a:	8803      	ldrh	r3, [r0, #0]
 800872c:	f8b0 8002 	ldrh.w	r8, [r0, #2]
 8008730:	460e      	mov	r6, r1
 8008732:	fb08 f803 	mul.w	r8, r8, r3
 8008736:	ea5f 0b98 	movs.w	fp, r8, lsr #2
 800873a:	d02a      	beq.n	8008792 <arm_mat_scale_f32+0x7a>
 800873c:	465f      	mov	r7, fp
 800873e:	f10a 0510 	add.w	r5, sl, #16
 8008742:	f109 0410 	add.w	r4, r9, #16
 8008746:	f855 0c10 	ldr.w	r0, [r5, #-16]
 800874a:	4631      	mov	r1, r6
 800874c:	f7f8 fb1a 	bl	8000d84 <__aeabi_fmul>
 8008750:	f844 0c10 	str.w	r0, [r4, #-16]
 8008754:	f855 0c0c 	ldr.w	r0, [r5, #-12]
 8008758:	4631      	mov	r1, r6
 800875a:	f7f8 fb13 	bl	8000d84 <__aeabi_fmul>
 800875e:	f844 0c0c 	str.w	r0, [r4, #-12]
 8008762:	f855 0c08 	ldr.w	r0, [r5, #-8]
 8008766:	4631      	mov	r1, r6
 8008768:	f7f8 fb0c 	bl	8000d84 <__aeabi_fmul>
 800876c:	f844 0c08 	str.w	r0, [r4, #-8]
 8008770:	f855 0c04 	ldr.w	r0, [r5, #-4]
 8008774:	4631      	mov	r1, r6
 8008776:	f7f8 fb05 	bl	8000d84 <__aeabi_fmul>
 800877a:	3f01      	subs	r7, #1
 800877c:	f844 0c04 	str.w	r0, [r4, #-4]
 8008780:	f105 0510 	add.w	r5, r5, #16
 8008784:	f104 0410 	add.w	r4, r4, #16
 8008788:	d1dd      	bne.n	8008746 <arm_mat_scale_f32+0x2e>
 800878a:	ea4f 1b0b 	mov.w	fp, fp, lsl #4
 800878e:	44da      	add	sl, fp
 8008790:	44d9      	add	r9, fp
 8008792:	f018 0803 	ands.w	r8, r8, #3
 8008796:	d01a      	beq.n	80087ce <arm_mat_scale_f32+0xb6>
 8008798:	f8da 0000 	ldr.w	r0, [sl]
 800879c:	4631      	mov	r1, r6
 800879e:	f7f8 faf1 	bl	8000d84 <__aeabi_fmul>
 80087a2:	f1b8 0801 	subs.w	r8, r8, #1
 80087a6:	f8c9 0000 	str.w	r0, [r9]
 80087aa:	d010      	beq.n	80087ce <arm_mat_scale_f32+0xb6>
 80087ac:	f8da 0004 	ldr.w	r0, [sl, #4]
 80087b0:	4631      	mov	r1, r6
 80087b2:	f7f8 fae7 	bl	8000d84 <__aeabi_fmul>
 80087b6:	f1b8 0f01 	cmp.w	r8, #1
 80087ba:	f8c9 0004 	str.w	r0, [r9, #4]
 80087be:	d006      	beq.n	80087ce <arm_mat_scale_f32+0xb6>
 80087c0:	f8da 0008 	ldr.w	r0, [sl, #8]
 80087c4:	4631      	mov	r1, r6
 80087c6:	f7f8 fadd 	bl	8000d84 <__aeabi_fmul>
 80087ca:	f8c9 0008 	str.w	r0, [r9, #8]
 80087ce:	2000      	movs	r0, #0
 80087d0:	e8bd 8ff8 	ldmia.w	sp!, {r3, r4, r5, r6, r7, r8, r9, sl, fp, pc}
 80087d4:	f06f 0002 	mvn.w	r0, #2
 80087d8:	e7fa      	b.n	80087d0 <arm_mat_scale_f32+0xb8>
 80087da:	bf00      	nop

080087dc <arm_mat_mult_f32>:
 80087dc:	e92d 4ff0 	stmdb	sp!, {r4, r5, r6, r7, r8, r9, sl, fp, lr}
 80087e0:	8847      	ldrh	r7, [r0, #2]
 80087e2:	880b      	ldrh	r3, [r1, #0]
 80087e4:	6844      	ldr	r4, [r0, #4]
 80087e6:	8800      	ldrh	r0, [r0, #0]
 80087e8:	b08f      	sub	sp, #60	; 0x3c
 80087ea:	42bb      	cmp	r3, r7
 80087ec:	9008      	str	r0, [sp, #32]
 80087ee:	684e      	ldr	r6, [r1, #4]
 80087f0:	f8d2 c004 	ldr.w	ip, [r2, #4]
 80087f4:	884d      	ldrh	r5, [r1, #2]
 80087f6:	f040 809f 	bne.w	8008938 <arm_mat_mult_f32+0x15c>
 80087fa:	8817      	ldrh	r7, [r2, #0]
 80087fc:	4287      	cmp	r7, r0
 80087fe:	f040 809b 	bne.w	8008938 <arm_mat_mult_f32+0x15c>
 8008802:	f8b2 8002 	ldrh.w	r8, [r2, #2]
 8008806:	45a8      	cmp	r8, r5
 8008808:	f040 8096 	bne.w	8008938 <arm_mat_mult_f32+0x15c>
 800880c:	ea4f 1b08 	mov.w	fp, r8, lsl #4
 8008810:	910d      	str	r1, [sp, #52]	; 0x34
 8008812:	0899      	lsrs	r1, r3, #2
 8008814:	fb0b f201 	mul.w	r2, fp, r1
 8008818:	9105      	str	r1, [sp, #20]
 800881a:	9207      	str	r2, [sp, #28]
 800881c:	eb04 1101 	add.w	r1, r4, r1, lsl #4
 8008820:	ebc8 7288 	rsb	r2, r8, r8, lsl #30
 8008824:	ea4f 0788 	mov.w	r7, r8, lsl #2
 8008828:	0092      	lsls	r2, r2, #2
 800882a:	9104      	str	r1, [sp, #16]
 800882c:	f104 0110 	add.w	r1, r4, #16
 8008830:	eb08 0848 	add.w	r8, r8, r8, lsl #1
 8008834:	1d30      	adds	r0, r6, #4
 8008836:	9103      	str	r1, [sp, #12]
 8008838:	920b      	str	r2, [sp, #44]	; 0x2c
 800883a:	eb0c 0107 	add.w	r1, ip, r7
 800883e:	f003 0203 	and.w	r2, r3, #3
 8008842:	009b      	lsls	r3, r3, #2
 8008844:	900c      	str	r0, [sp, #48]	; 0x30
 8008846:	9102      	str	r1, [sp, #8]
 8008848:	ea4f 0888 	mov.w	r8, r8, lsl #2
 800884c:	9206      	str	r2, [sp, #24]
 800884e:	930a      	str	r3, [sp, #40]	; 0x28
 8008850:	9b0c      	ldr	r3, [sp, #48]	; 0x30
 8008852:	9a02      	ldr	r2, [sp, #8]
 8008854:	9301      	str	r3, [sp, #4]
 8008856:	9b03      	ldr	r3, [sp, #12]
 8008858:	3b10      	subs	r3, #16
 800885a:	9309      	str	r3, [sp, #36]	; 0x24
 800885c:	9b0b      	ldr	r3, [sp, #44]	; 0x2c
 800885e:	4413      	add	r3, r2
 8008860:	9300      	str	r3, [sp, #0]
 8008862:	9b05      	ldr	r3, [sp, #20]
 8008864:	2b00      	cmp	r3, #0
 8008866:	d05f      	beq.n	8008928 <arm_mat_mult_f32+0x14c>
 8008868:	4699      	mov	r9, r3
 800886a:	4634      	mov	r4, r6
 800886c:	f04f 0a00 	mov.w	sl, #0
 8008870:	9d03      	ldr	r5, [sp, #12]
 8008872:	6821      	ldr	r1, [r4, #0]
 8008874:	f855 0c10 	ldr.w	r0, [r5, #-16]
 8008878:	f7f8 fa84 	bl	8000d84 <__aeabi_fmul>
 800887c:	4651      	mov	r1, sl
 800887e:	f7f8 f979 	bl	8000b74 <__addsf3>
 8008882:	4682      	mov	sl, r0
 8008884:	59e1      	ldr	r1, [r4, r7]
 8008886:	f855 0c0c 	ldr.w	r0, [r5, #-12]
 800888a:	f7f8 fa7b 	bl	8000d84 <__aeabi_fmul>
 800888e:	4651      	mov	r1, sl
 8008890:	f7f8 f970 	bl	8000b74 <__addsf3>
 8008894:	4682      	mov	sl, r0
 8008896:	f854 1017 	ldr.w	r1, [r4, r7, lsl #1]
 800889a:	f855 0c08 	ldr.w	r0, [r5, #-8]
 800889e:	f7f8 fa71 	bl	8000d84 <__aeabi_fmul>
 80088a2:	4651      	mov	r1, sl
 80088a4:	f7f8 f966 	bl	8000b74 <__addsf3>
 80088a8:	4682      	mov	sl, r0
 80088aa:	f854 1008 	ldr.w	r1, [r4, r8]
 80088ae:	f855 0c04 	ldr.w	r0, [r5, #-4]
 80088b2:	f7f8 fa67 	bl	8000d84 <__aeabi_fmul>
 80088b6:	4651      	mov	r1, sl
 80088b8:	f7f8 f95c 	bl	8000b74 <__addsf3>
 80088bc:	f1b9 0901 	subs.w	r9, r9, #1
 80088c0:	445c      	add	r4, fp
 80088c2:	4682      	mov	sl, r0
 80088c4:	f105 0510 	add.w	r5, r5, #16
 80088c8:	d1d3      	bne.n	8008872 <arm_mat_mult_f32+0x96>
 80088ca:	9b07      	ldr	r3, [sp, #28]
 80088cc:	9d04      	ldr	r5, [sp, #16]
 80088ce:	441e      	add	r6, r3
 80088d0:	9b06      	ldr	r3, [sp, #24]
 80088d2:	b16b      	cbz	r3, 80088f0 <arm_mat_mult_f32+0x114>
 80088d4:	461c      	mov	r4, r3
 80088d6:	6831      	ldr	r1, [r6, #0]
 80088d8:	f855 0b04 	ldr.w	r0, [r5], #4
 80088dc:	f7f8 fa52 	bl	8000d84 <__aeabi_fmul>
 80088e0:	4601      	mov	r1, r0
 80088e2:	4650      	mov	r0, sl
 80088e4:	f7f8 f946 	bl	8000b74 <__addsf3>
 80088e8:	3c01      	subs	r4, #1
 80088ea:	443e      	add	r6, r7
 80088ec:	4682      	mov	sl, r0
 80088ee:	d1f2      	bne.n	80088d6 <arm_mat_mult_f32+0xfa>
 80088f0:	e9dd 3600 	ldrd	r3, r6, [sp]
 80088f4:	1d32      	adds	r2, r6, #4
 80088f6:	9201      	str	r2, [sp, #4]
 80088f8:	9a02      	ldr	r2, [sp, #8]
 80088fa:	f843 ab04 	str.w	sl, [r3], #4
 80088fe:	4293      	cmp	r3, r2
 8008900:	9300      	str	r3, [sp, #0]
 8008902:	d1ae      	bne.n	8008862 <arm_mat_mult_f32+0x86>
 8008904:	4613      	mov	r3, r2
 8008906:	9a04      	ldr	r2, [sp, #16]
 8008908:	443b      	add	r3, r7
 800890a:	4611      	mov	r1, r2
 800890c:	9302      	str	r3, [sp, #8]
 800890e:	9a03      	ldr	r2, [sp, #12]
 8008910:	9b0a      	ldr	r3, [sp, #40]	; 0x28
 8008912:	4419      	add	r1, r3
 8008914:	441a      	add	r2, r3
 8008916:	9b08      	ldr	r3, [sp, #32]
 8008918:	9104      	str	r1, [sp, #16]
 800891a:	3b01      	subs	r3, #1
 800891c:	9203      	str	r2, [sp, #12]
 800891e:	9308      	str	r3, [sp, #32]
 8008920:	d006      	beq.n	8008930 <arm_mat_mult_f32+0x154>
 8008922:	9b0d      	ldr	r3, [sp, #52]	; 0x34
 8008924:	685e      	ldr	r6, [r3, #4]
 8008926:	e793      	b.n	8008850 <arm_mat_mult_f32+0x74>
 8008928:	9d09      	ldr	r5, [sp, #36]	; 0x24
 800892a:	f04f 0a00 	mov.w	sl, #0
 800892e:	e7cf      	b.n	80088d0 <arm_mat_mult_f32+0xf4>
 8008930:	4618      	mov	r0, r3
 8008932:	b00f      	add	sp, #60	; 0x3c
 8008934:	e8bd 8ff0 	ldmia.w	sp!, {r4, r5, r6, r7, r8, r9, sl, fp, pc}
 8008938:	f06f 0002 	mvn.w	r0, #2
 800893c:	b00f      	add	sp, #60	; 0x3c
 800893e:	e8bd 8ff0 	ldmia.w	sp!, {r4, r5, r6, r7, r8, r9, sl, fp, pc}
 8008942:	bf00      	nop

08008944 <arm_mat_init_f32>:
 8008944:	8001      	strh	r1, [r0, #0]
 8008946:	8042      	strh	r2, [r0, #2]
 8008948:	6043      	str	r3, [r0, #4]
 800894a:	4770      	bx	lr

0800894c <atof>:
 800894c:	2100      	movs	r1, #0
 800894e:	f000 bee3 	b.w	8009718 <strtod>

08008952 <atoi>:
 8008952:	220a      	movs	r2, #10
 8008954:	2100      	movs	r1, #0
 8008956:	f000 bf7f 	b.w	8009858 <strtol>
	...

0800895c <__errno>:
 800895c:	4b01      	ldr	r3, [pc, #4]	; (8008964 <__errno+0x8>)
 800895e:	6818      	ldr	r0, [r3, #0]
 8008960:	4770      	bx	lr
 8008962:	bf00      	nop
 8008964:	200001b4 	.word	0x200001b4

08008968 <__libc_init_array>:
 8008968:	b570      	push	{r4, r5, r6, lr}
 800896a:	2500      	movs	r5, #0
 800896c:	4e0c      	ldr	r6, [pc, #48]	; (80089a0 <__libc_init_array+0x38>)
 800896e:	4c0d      	ldr	r4, [pc, #52]	; (80089a4 <__libc_init_array+0x3c>)
 8008970:	1ba4      	subs	r4, r4, r6
 8008972:	10a4      	asrs	r4, r4, #2
 8008974:	42a5      	cmp	r5, r4
 8008976:	d109      	bne.n	800898c <__libc_init_array+0x24>
 8008978:	f002 fe92 	bl	800b6a0 <_init>
 800897c:	2500      	movs	r5, #0
 800897e:	4e0a      	ldr	r6, [pc, #40]	; (80089a8 <__libc_init_array+0x40>)
 8008980:	4c0a      	ldr	r4, [pc, #40]	; (80089ac <__libc_init_array+0x44>)
 8008982:	1ba4      	subs	r4, r4, r6
 8008984:	10a4      	asrs	r4, r4, #2
 8008986:	42a5      	cmp	r5, r4
 8008988:	d105      	bne.n	8008996 <__libc_init_array+0x2e>
 800898a:	bd70      	pop	{r4, r5, r6, pc}
 800898c:	f856 3025 	ldr.w	r3, [r6, r5, lsl #2]
 8008990:	4798      	blx	r3
 8008992:	3501      	adds	r5, #1
 8008994:	e7ee      	b.n	8008974 <__libc_init_array+0xc>
 8008996:	f856 3025 	ldr.w	r3, [r6, r5, lsl #2]
 800899a:	4798      	blx	r3
 800899c:	3501      	adds	r5, #1
 800899e:	e7f2      	b.n	8008986 <__libc_init_array+0x1e>
 80089a0:	0800c718 	.word	0x0800c718
 80089a4:	0800c718 	.word	0x0800c718
 80089a8:	0800c718 	.word	0x0800c718
 80089ac:	0800c71c 	.word	0x0800c71c

080089b0 <__itoa>:
 80089b0:	1e93      	subs	r3, r2, #2
 80089b2:	2b22      	cmp	r3, #34	; 0x22
 80089b4:	b510      	push	{r4, lr}
 80089b6:	460c      	mov	r4, r1
 80089b8:	d904      	bls.n	80089c4 <__itoa+0x14>
 80089ba:	2300      	movs	r3, #0
 80089bc:	461c      	mov	r4, r3
 80089be:	700b      	strb	r3, [r1, #0]
 80089c0:	4620      	mov	r0, r4
 80089c2:	bd10      	pop	{r4, pc}
 80089c4:	2a0a      	cmp	r2, #10
 80089c6:	d109      	bne.n	80089dc <__itoa+0x2c>
 80089c8:	2800      	cmp	r0, #0
 80089ca:	da07      	bge.n	80089dc <__itoa+0x2c>
 80089cc:	232d      	movs	r3, #45	; 0x2d
 80089ce:	700b      	strb	r3, [r1, #0]
 80089d0:	2101      	movs	r1, #1
 80089d2:	4240      	negs	r0, r0
 80089d4:	4421      	add	r1, r4
 80089d6:	f000 ff55 	bl	8009884 <__utoa>
 80089da:	e7f1      	b.n	80089c0 <__itoa+0x10>
 80089dc:	2100      	movs	r1, #0
 80089de:	e7f9      	b.n	80089d4 <__itoa+0x24>

080089e0 <itoa>:
 80089e0:	f7ff bfe6 	b.w	80089b0 <__itoa>

080089e4 <memcmp>:
 80089e4:	b530      	push	{r4, r5, lr}
 80089e6:	2400      	movs	r4, #0
 80089e8:	42a2      	cmp	r2, r4
 80089ea:	d101      	bne.n	80089f0 <memcmp+0xc>
 80089ec:	2000      	movs	r0, #0
 80089ee:	e007      	b.n	8008a00 <memcmp+0x1c>
 80089f0:	5d03      	ldrb	r3, [r0, r4]
 80089f2:	3401      	adds	r4, #1
 80089f4:	190d      	adds	r5, r1, r4
 80089f6:	f815 5c01 	ldrb.w	r5, [r5, #-1]
 80089fa:	42ab      	cmp	r3, r5
 80089fc:	d0f4      	beq.n	80089e8 <memcmp+0x4>
 80089fe:	1b58      	subs	r0, r3, r5
 8008a00:	bd30      	pop	{r4, r5, pc}

08008a02 <memcpy>:
 8008a02:	b510      	push	{r4, lr}
 8008a04:	1e43      	subs	r3, r0, #1
 8008a06:	440a      	add	r2, r1
 8008a08:	4291      	cmp	r1, r2
 8008a0a:	d100      	bne.n	8008a0e <memcpy+0xc>
 8008a0c:	bd10      	pop	{r4, pc}
 8008a0e:	f811 4b01 	ldrb.w	r4, [r1], #1
 8008a12:	f803 4f01 	strb.w	r4, [r3, #1]!
 8008a16:	e7f7      	b.n	8008a08 <memcpy+0x6>

08008a18 <memset>:
 8008a18:	4603      	mov	r3, r0
 8008a1a:	4402      	add	r2, r0
 8008a1c:	4293      	cmp	r3, r2
 8008a1e:	d100      	bne.n	8008a22 <memset+0xa>
 8008a20:	4770      	bx	lr
 8008a22:	f803 1b01 	strb.w	r1, [r3], #1
 8008a26:	e7f9      	b.n	8008a1c <memset+0x4>

08008a28 <siscanf>:
 8008a28:	b40e      	push	{r1, r2, r3}
 8008a2a:	f44f 7201 	mov.w	r2, #516	; 0x204
 8008a2e:	b530      	push	{r4, r5, lr}
 8008a30:	b09c      	sub	sp, #112	; 0x70
 8008a32:	ac1f      	add	r4, sp, #124	; 0x7c
 8008a34:	f854 5b04 	ldr.w	r5, [r4], #4
 8008a38:	f8ad 2014 	strh.w	r2, [sp, #20]
 8008a3c:	9002      	str	r0, [sp, #8]
 8008a3e:	9006      	str	r0, [sp, #24]
 8008a40:	f7f7 fb86 	bl	8000150 <strlen>
 8008a44:	4b0b      	ldr	r3, [pc, #44]	; (8008a74 <siscanf+0x4c>)
 8008a46:	9003      	str	r0, [sp, #12]
 8008a48:	930b      	str	r3, [sp, #44]	; 0x2c
 8008a4a:	2300      	movs	r3, #0
 8008a4c:	930f      	str	r3, [sp, #60]	; 0x3c
 8008a4e:	9314      	str	r3, [sp, #80]	; 0x50
 8008a50:	f64f 73ff 	movw	r3, #65535	; 0xffff
 8008a54:	9007      	str	r0, [sp, #28]
 8008a56:	4808      	ldr	r0, [pc, #32]	; (8008a78 <siscanf+0x50>)
 8008a58:	f8ad 3016 	strh.w	r3, [sp, #22]
 8008a5c:	462a      	mov	r2, r5
 8008a5e:	4623      	mov	r3, r4
 8008a60:	a902      	add	r1, sp, #8
 8008a62:	6800      	ldr	r0, [r0, #0]
 8008a64:	9401      	str	r4, [sp, #4]
 8008a66:	f001 ff53 	bl	800a910 <__ssvfiscanf_r>
 8008a6a:	b01c      	add	sp, #112	; 0x70
 8008a6c:	e8bd 4030 	ldmia.w	sp!, {r4, r5, lr}
 8008a70:	b003      	add	sp, #12
 8008a72:	4770      	bx	lr
 8008a74:	08008a7d 	.word	0x08008a7d
 8008a78:	200001b4 	.word	0x200001b4

08008a7c <__seofread>:
 8008a7c:	2000      	movs	r0, #0
 8008a7e:	4770      	bx	lr

08008a80 <stpcpy>:
 8008a80:	4603      	mov	r3, r0
 8008a82:	f811 2b01 	ldrb.w	r2, [r1], #1
 8008a86:	4618      	mov	r0, r3
 8008a88:	f803 2b01 	strb.w	r2, [r3], #1
 8008a8c:	2a00      	cmp	r2, #0
 8008a8e:	d1f8      	bne.n	8008a82 <stpcpy+0x2>
 8008a90:	4770      	bx	lr

08008a92 <strcpy>:
 8008a92:	4603      	mov	r3, r0
 8008a94:	f811 2b01 	ldrb.w	r2, [r1], #1
 8008a98:	f803 2b01 	strb.w	r2, [r3], #1
 8008a9c:	2a00      	cmp	r2, #0
 8008a9e:	d1f9      	bne.n	8008a94 <strcpy+0x2>
 8008aa0:	4770      	bx	lr

08008aa2 <strstr>:
 8008aa2:	b5f0      	push	{r4, r5, r6, r7, lr}
 8008aa4:	7803      	ldrb	r3, [r0, #0]
 8008aa6:	b17b      	cbz	r3, 8008ac8 <strstr+0x26>
 8008aa8:	4604      	mov	r4, r0
 8008aaa:	7823      	ldrb	r3, [r4, #0]
 8008aac:	4620      	mov	r0, r4
 8008aae:	1c66      	adds	r6, r4, #1
 8008ab0:	b17b      	cbz	r3, 8008ad2 <strstr+0x30>
 8008ab2:	1e4a      	subs	r2, r1, #1
 8008ab4:	1e63      	subs	r3, r4, #1
 8008ab6:	f812 5f01 	ldrb.w	r5, [r2, #1]!
 8008aba:	b14d      	cbz	r5, 8008ad0 <strstr+0x2e>
 8008abc:	f813 7f01 	ldrb.w	r7, [r3, #1]!
 8008ac0:	4634      	mov	r4, r6
 8008ac2:	42af      	cmp	r7, r5
 8008ac4:	d0f7      	beq.n	8008ab6 <strstr+0x14>
 8008ac6:	e7f0      	b.n	8008aaa <strstr+0x8>
 8008ac8:	780b      	ldrb	r3, [r1, #0]
 8008aca:	2b00      	cmp	r3, #0
 8008acc:	bf18      	it	ne
 8008ace:	2000      	movne	r0, #0
 8008ad0:	bdf0      	pop	{r4, r5, r6, r7, pc}
 8008ad2:	4618      	mov	r0, r3
 8008ad4:	e7fc      	b.n	8008ad0 <strstr+0x2e>

08008ad6 <sulp>:
 8008ad6:	e92d 41f0 	stmdb	sp!, {r4, r5, r6, r7, r8, lr}
 8008ada:	460f      	mov	r7, r1
 8008adc:	4690      	mov	r8, r2
 8008ade:	f001 fd27 	bl	800a530 <__ulp>
 8008ae2:	4604      	mov	r4, r0
 8008ae4:	460d      	mov	r5, r1
 8008ae6:	f1b8 0f00 	cmp.w	r8, #0
 8008aea:	d011      	beq.n	8008b10 <sulp+0x3a>
 8008aec:	f3c7 530a 	ubfx	r3, r7, #20, #11
 8008af0:	f1c3 036b 	rsb	r3, r3, #107	; 0x6b
 8008af4:	2b00      	cmp	r3, #0
 8008af6:	dd0b      	ble.n	8008b10 <sulp+0x3a>
 8008af8:	2400      	movs	r4, #0
 8008afa:	051b      	lsls	r3, r3, #20
 8008afc:	f103 557f 	add.w	r5, r3, #1069547520	; 0x3fc00000
 8008b00:	f505 1540 	add.w	r5, r5, #3145728	; 0x300000
 8008b04:	4622      	mov	r2, r4
 8008b06:	462b      	mov	r3, r5
 8008b08:	f7f7 fce6 	bl	80004d8 <__aeabi_dmul>
 8008b0c:	4604      	mov	r4, r0
 8008b0e:	460d      	mov	r5, r1
 8008b10:	4620      	mov	r0, r4
 8008b12:	4629      	mov	r1, r5
 8008b14:	e8bd 81f0 	ldmia.w	sp!, {r4, r5, r6, r7, r8, pc}

08008b18 <_strtod_l>:
 8008b18:	e92d 4ff0 	stmdb	sp!, {r4, r5, r6, r7, r8, r9, sl, fp, lr}
 8008b1c:	461f      	mov	r7, r3
 8008b1e:	2300      	movs	r3, #0
 8008b20:	b0a1      	sub	sp, #132	; 0x84
 8008b22:	4683      	mov	fp, r0
 8008b24:	4638      	mov	r0, r7
 8008b26:	460e      	mov	r6, r1
 8008b28:	9217      	str	r2, [sp, #92]	; 0x5c
 8008b2a:	931c      	str	r3, [sp, #112]	; 0x70
 8008b2c:	f001 fa22 	bl	8009f74 <__localeconv_l>
 8008b30:	4680      	mov	r8, r0
 8008b32:	6800      	ldr	r0, [r0, #0]
 8008b34:	f7f7 fb0c 	bl	8000150 <strlen>
 8008b38:	f04f 0900 	mov.w	r9, #0
 8008b3c:	4604      	mov	r4, r0
 8008b3e:	f04f 0a00 	mov.w	sl, #0
 8008b42:	961b      	str	r6, [sp, #108]	; 0x6c
 8008b44:	9b1b      	ldr	r3, [sp, #108]	; 0x6c
 8008b46:	781a      	ldrb	r2, [r3, #0]
 8008b48:	2a0d      	cmp	r2, #13
 8008b4a:	d832      	bhi.n	8008bb2 <_strtod_l+0x9a>
 8008b4c:	2a09      	cmp	r2, #9
 8008b4e:	d236      	bcs.n	8008bbe <_strtod_l+0xa6>
 8008b50:	2a00      	cmp	r2, #0
 8008b52:	d03e      	beq.n	8008bd2 <_strtod_l+0xba>
 8008b54:	2300      	movs	r3, #0
 8008b56:	930d      	str	r3, [sp, #52]	; 0x34
 8008b58:	9d1b      	ldr	r5, [sp, #108]	; 0x6c
 8008b5a:	782b      	ldrb	r3, [r5, #0]
 8008b5c:	2b30      	cmp	r3, #48	; 0x30
 8008b5e:	f040 80ac 	bne.w	8008cba <_strtod_l+0x1a2>
 8008b62:	786b      	ldrb	r3, [r5, #1]
 8008b64:	2b58      	cmp	r3, #88	; 0x58
 8008b66:	d001      	beq.n	8008b6c <_strtod_l+0x54>
 8008b68:	2b78      	cmp	r3, #120	; 0x78
 8008b6a:	d167      	bne.n	8008c3c <_strtod_l+0x124>
 8008b6c:	9b0d      	ldr	r3, [sp, #52]	; 0x34
 8008b6e:	9702      	str	r7, [sp, #8]
 8008b70:	9301      	str	r3, [sp, #4]
 8008b72:	ab1c      	add	r3, sp, #112	; 0x70
 8008b74:	9300      	str	r3, [sp, #0]
 8008b76:	4a89      	ldr	r2, [pc, #548]	; (8008d9c <_strtod_l+0x284>)
 8008b78:	ab1d      	add	r3, sp, #116	; 0x74
 8008b7a:	a91b      	add	r1, sp, #108	; 0x6c
 8008b7c:	4658      	mov	r0, fp
 8008b7e:	f000 ff0f 	bl	80099a0 <__gethex>
 8008b82:	f010 0407 	ands.w	r4, r0, #7
 8008b86:	4606      	mov	r6, r0
 8008b88:	d005      	beq.n	8008b96 <_strtod_l+0x7e>
 8008b8a:	2c06      	cmp	r4, #6
 8008b8c:	d12b      	bne.n	8008be6 <_strtod_l+0xce>
 8008b8e:	2300      	movs	r3, #0
 8008b90:	3501      	adds	r5, #1
 8008b92:	951b      	str	r5, [sp, #108]	; 0x6c
 8008b94:	930d      	str	r3, [sp, #52]	; 0x34
 8008b96:	9b17      	ldr	r3, [sp, #92]	; 0x5c
 8008b98:	2b00      	cmp	r3, #0
 8008b9a:	f040 85a6 	bne.w	80096ea <_strtod_l+0xbd2>
 8008b9e:	9b0d      	ldr	r3, [sp, #52]	; 0x34
 8008ba0:	b1e3      	cbz	r3, 8008bdc <_strtod_l+0xc4>
 8008ba2:	464a      	mov	r2, r9
 8008ba4:	f10a 4300 	add.w	r3, sl, #2147483648	; 0x80000000
 8008ba8:	4610      	mov	r0, r2
 8008baa:	4619      	mov	r1, r3
 8008bac:	b021      	add	sp, #132	; 0x84
 8008bae:	e8bd 8ff0 	ldmia.w	sp!, {r4, r5, r6, r7, r8, r9, sl, fp, pc}
 8008bb2:	2a2b      	cmp	r2, #43	; 0x2b
 8008bb4:	d015      	beq.n	8008be2 <_strtod_l+0xca>
 8008bb6:	2a2d      	cmp	r2, #45	; 0x2d
 8008bb8:	d004      	beq.n	8008bc4 <_strtod_l+0xac>
 8008bba:	2a20      	cmp	r2, #32
 8008bbc:	d1ca      	bne.n	8008b54 <_strtod_l+0x3c>
 8008bbe:	3301      	adds	r3, #1
 8008bc0:	931b      	str	r3, [sp, #108]	; 0x6c
 8008bc2:	e7bf      	b.n	8008b44 <_strtod_l+0x2c>
 8008bc4:	2201      	movs	r2, #1
 8008bc6:	920d      	str	r2, [sp, #52]	; 0x34
 8008bc8:	1c5a      	adds	r2, r3, #1
 8008bca:	921b      	str	r2, [sp, #108]	; 0x6c
 8008bcc:	785b      	ldrb	r3, [r3, #1]
 8008bce:	2b00      	cmp	r3, #0
 8008bd0:	d1c2      	bne.n	8008b58 <_strtod_l+0x40>
 8008bd2:	9b17      	ldr	r3, [sp, #92]	; 0x5c
 8008bd4:	961b      	str	r6, [sp, #108]	; 0x6c
 8008bd6:	2b00      	cmp	r3, #0
 8008bd8:	f040 8585 	bne.w	80096e6 <_strtod_l+0xbce>
 8008bdc:	464a      	mov	r2, r9
 8008bde:	4653      	mov	r3, sl
 8008be0:	e7e2      	b.n	8008ba8 <_strtod_l+0x90>
 8008be2:	2200      	movs	r2, #0
 8008be4:	e7ef      	b.n	8008bc6 <_strtod_l+0xae>
 8008be6:	9a1c      	ldr	r2, [sp, #112]	; 0x70
 8008be8:	b13a      	cbz	r2, 8008bfa <_strtod_l+0xe2>
 8008bea:	2135      	movs	r1, #53	; 0x35
 8008bec:	a81e      	add	r0, sp, #120	; 0x78
 8008bee:	f001 fd92 	bl	800a716 <__copybits>
 8008bf2:	991c      	ldr	r1, [sp, #112]	; 0x70
 8008bf4:	4658      	mov	r0, fp
 8008bf6:	f001 fa05 	bl	800a004 <_Bfree>
 8008bfa:	3c01      	subs	r4, #1
 8008bfc:	2c04      	cmp	r4, #4
 8008bfe:	d806      	bhi.n	8008c0e <_strtod_l+0xf6>
 8008c00:	e8df f004 	tbb	[pc, r4]
 8008c04:	1714030a 	.word	0x1714030a
 8008c08:	0a          	.byte	0x0a
 8008c09:	00          	.byte	0x00
 8008c0a:	e9dd 9a1e 	ldrd	r9, sl, [sp, #120]	; 0x78
 8008c0e:	0731      	lsls	r1, r6, #28
 8008c10:	d5c1      	bpl.n	8008b96 <_strtod_l+0x7e>
 8008c12:	f04a 4a00 	orr.w	sl, sl, #2147483648	; 0x80000000
 8008c16:	e7be      	b.n	8008b96 <_strtod_l+0x7e>
 8008c18:	9a1d      	ldr	r2, [sp, #116]	; 0x74
 8008c1a:	e9dd 931e 	ldrd	r9, r3, [sp, #120]	; 0x78
 8008c1e:	f202 4233 	addw	r2, r2, #1075	; 0x433
 8008c22:	f423 1380 	bic.w	r3, r3, #1048576	; 0x100000
 8008c26:	ea43 5a02 	orr.w	sl, r3, r2, lsl #20
 8008c2a:	e7f0      	b.n	8008c0e <_strtod_l+0xf6>
 8008c2c:	f8df a170 	ldr.w	sl, [pc, #368]	; 8008da0 <_strtod_l+0x288>
 8008c30:	e7ed      	b.n	8008c0e <_strtod_l+0xf6>
 8008c32:	f06f 4a00 	mvn.w	sl, #2147483648	; 0x80000000
 8008c36:	f04f 39ff 	mov.w	r9, #4294967295
 8008c3a:	e7e8      	b.n	8008c0e <_strtod_l+0xf6>
 8008c3c:	9b1b      	ldr	r3, [sp, #108]	; 0x6c
 8008c3e:	1c5a      	adds	r2, r3, #1
 8008c40:	921b      	str	r2, [sp, #108]	; 0x6c
 8008c42:	785b      	ldrb	r3, [r3, #1]
 8008c44:	2b30      	cmp	r3, #48	; 0x30
 8008c46:	d0f9      	beq.n	8008c3c <_strtod_l+0x124>
 8008c48:	2b00      	cmp	r3, #0
 8008c4a:	d0a4      	beq.n	8008b96 <_strtod_l+0x7e>
 8008c4c:	2301      	movs	r3, #1
 8008c4e:	2500      	movs	r5, #0
 8008c50:	220a      	movs	r2, #10
 8008c52:	9307      	str	r3, [sp, #28]
 8008c54:	9b1b      	ldr	r3, [sp, #108]	; 0x6c
 8008c56:	9506      	str	r5, [sp, #24]
 8008c58:	9308      	str	r3, [sp, #32]
 8008c5a:	9504      	str	r5, [sp, #16]
 8008c5c:	981b      	ldr	r0, [sp, #108]	; 0x6c
 8008c5e:	7807      	ldrb	r7, [r0, #0]
 8008c60:	f1a7 0330 	sub.w	r3, r7, #48	; 0x30
 8008c64:	b2d9      	uxtb	r1, r3
 8008c66:	2909      	cmp	r1, #9
 8008c68:	d929      	bls.n	8008cbe <_strtod_l+0x1a6>
 8008c6a:	4622      	mov	r2, r4
 8008c6c:	f8d8 1000 	ldr.w	r1, [r8]
 8008c70:	f002 f937 	bl	800aee2 <strncmp>
 8008c74:	2800      	cmp	r0, #0
 8008c76:	d031      	beq.n	8008cdc <_strtod_l+0x1c4>
 8008c78:	2000      	movs	r0, #0
 8008c7a:	463b      	mov	r3, r7
 8008c7c:	4602      	mov	r2, r0
 8008c7e:	9c04      	ldr	r4, [sp, #16]
 8008c80:	9005      	str	r0, [sp, #20]
 8008c82:	2b65      	cmp	r3, #101	; 0x65
 8008c84:	d001      	beq.n	8008c8a <_strtod_l+0x172>
 8008c86:	2b45      	cmp	r3, #69	; 0x45
 8008c88:	d114      	bne.n	8008cb4 <_strtod_l+0x19c>
 8008c8a:	b924      	cbnz	r4, 8008c96 <_strtod_l+0x17e>
 8008c8c:	b910      	cbnz	r0, 8008c94 <_strtod_l+0x17c>
 8008c8e:	9b07      	ldr	r3, [sp, #28]
 8008c90:	2b00      	cmp	r3, #0
 8008c92:	d09e      	beq.n	8008bd2 <_strtod_l+0xba>
 8008c94:	2400      	movs	r4, #0
 8008c96:	9e1b      	ldr	r6, [sp, #108]	; 0x6c
 8008c98:	1c73      	adds	r3, r6, #1
 8008c9a:	931b      	str	r3, [sp, #108]	; 0x6c
 8008c9c:	7873      	ldrb	r3, [r6, #1]
 8008c9e:	2b2b      	cmp	r3, #43	; 0x2b
 8008ca0:	d078      	beq.n	8008d94 <_strtod_l+0x27c>
 8008ca2:	2b2d      	cmp	r3, #45	; 0x2d
 8008ca4:	d070      	beq.n	8008d88 <_strtod_l+0x270>
 8008ca6:	f04f 0c00 	mov.w	ip, #0
 8008caa:	f1a3 0730 	sub.w	r7, r3, #48	; 0x30
 8008cae:	2f09      	cmp	r7, #9
 8008cb0:	d97c      	bls.n	8008dac <_strtod_l+0x294>
 8008cb2:	961b      	str	r6, [sp, #108]	; 0x6c
 8008cb4:	f04f 0e00 	mov.w	lr, #0
 8008cb8:	e09a      	b.n	8008df0 <_strtod_l+0x2d8>
 8008cba:	2300      	movs	r3, #0
 8008cbc:	e7c7      	b.n	8008c4e <_strtod_l+0x136>
 8008cbe:	9904      	ldr	r1, [sp, #16]
 8008cc0:	3001      	adds	r0, #1
 8008cc2:	2908      	cmp	r1, #8
 8008cc4:	bfd7      	itett	le
 8008cc6:	9906      	ldrle	r1, [sp, #24]
 8008cc8:	fb02 3505 	mlagt	r5, r2, r5, r3
 8008ccc:	fb02 3301 	mlale	r3, r2, r1, r3
 8008cd0:	9306      	strle	r3, [sp, #24]
 8008cd2:	9b04      	ldr	r3, [sp, #16]
 8008cd4:	901b      	str	r0, [sp, #108]	; 0x6c
 8008cd6:	3301      	adds	r3, #1
 8008cd8:	9304      	str	r3, [sp, #16]
 8008cda:	e7bf      	b.n	8008c5c <_strtod_l+0x144>
 8008cdc:	9b1b      	ldr	r3, [sp, #108]	; 0x6c
 8008cde:	191a      	adds	r2, r3, r4
 8008ce0:	921b      	str	r2, [sp, #108]	; 0x6c
 8008ce2:	9a04      	ldr	r2, [sp, #16]
 8008ce4:	5d1b      	ldrb	r3, [r3, r4]
 8008ce6:	2a00      	cmp	r2, #0
 8008ce8:	d037      	beq.n	8008d5a <_strtod_l+0x242>
 8008cea:	4602      	mov	r2, r0
 8008cec:	9c04      	ldr	r4, [sp, #16]
 8008cee:	f1a3 0130 	sub.w	r1, r3, #48	; 0x30
 8008cf2:	2909      	cmp	r1, #9
 8008cf4:	d913      	bls.n	8008d1e <_strtod_l+0x206>
 8008cf6:	2101      	movs	r1, #1
 8008cf8:	9105      	str	r1, [sp, #20]
 8008cfa:	e7c2      	b.n	8008c82 <_strtod_l+0x16a>
 8008cfc:	9b1b      	ldr	r3, [sp, #108]	; 0x6c
 8008cfe:	3001      	adds	r0, #1
 8008d00:	1c5a      	adds	r2, r3, #1
 8008d02:	921b      	str	r2, [sp, #108]	; 0x6c
 8008d04:	785b      	ldrb	r3, [r3, #1]
 8008d06:	2b30      	cmp	r3, #48	; 0x30
 8008d08:	d0f8      	beq.n	8008cfc <_strtod_l+0x1e4>
 8008d0a:	f1a3 0231 	sub.w	r2, r3, #49	; 0x31
 8008d0e:	2a08      	cmp	r2, #8
 8008d10:	f200 84f0 	bhi.w	80096f4 <_strtod_l+0xbdc>
 8008d14:	9a1b      	ldr	r2, [sp, #108]	; 0x6c
 8008d16:	9208      	str	r2, [sp, #32]
 8008d18:	4602      	mov	r2, r0
 8008d1a:	2000      	movs	r0, #0
 8008d1c:	4604      	mov	r4, r0
 8008d1e:	f1b3 0e30 	subs.w	lr, r3, #48	; 0x30
 8008d22:	f100 0101 	add.w	r1, r0, #1
 8008d26:	d012      	beq.n	8008d4e <_strtod_l+0x236>
 8008d28:	440a      	add	r2, r1
 8008d2a:	270a      	movs	r7, #10
 8008d2c:	4621      	mov	r1, r4
 8008d2e:	eb00 0c04 	add.w	ip, r0, r4
 8008d32:	458c      	cmp	ip, r1
 8008d34:	d113      	bne.n	8008d5e <_strtod_l+0x246>
 8008d36:	1821      	adds	r1, r4, r0
 8008d38:	2908      	cmp	r1, #8
 8008d3a:	f104 0401 	add.w	r4, r4, #1
 8008d3e:	4404      	add	r4, r0
 8008d40:	dc19      	bgt.n	8008d76 <_strtod_l+0x25e>
 8008d42:	210a      	movs	r1, #10
 8008d44:	9b06      	ldr	r3, [sp, #24]
 8008d46:	fb01 e303 	mla	r3, r1, r3, lr
 8008d4a:	9306      	str	r3, [sp, #24]
 8008d4c:	2100      	movs	r1, #0
 8008d4e:	9b1b      	ldr	r3, [sp, #108]	; 0x6c
 8008d50:	1c58      	adds	r0, r3, #1
 8008d52:	901b      	str	r0, [sp, #108]	; 0x6c
 8008d54:	785b      	ldrb	r3, [r3, #1]
 8008d56:	4608      	mov	r0, r1
 8008d58:	e7c9      	b.n	8008cee <_strtod_l+0x1d6>
 8008d5a:	9804      	ldr	r0, [sp, #16]
 8008d5c:	e7d3      	b.n	8008d06 <_strtod_l+0x1ee>
 8008d5e:	2908      	cmp	r1, #8
 8008d60:	f101 0101 	add.w	r1, r1, #1
 8008d64:	dc03      	bgt.n	8008d6e <_strtod_l+0x256>
 8008d66:	9b06      	ldr	r3, [sp, #24]
 8008d68:	437b      	muls	r3, r7
 8008d6a:	9306      	str	r3, [sp, #24]
 8008d6c:	e7e1      	b.n	8008d32 <_strtod_l+0x21a>
 8008d6e:	2910      	cmp	r1, #16
 8008d70:	bfd8      	it	le
 8008d72:	437d      	mulle	r5, r7
 8008d74:	e7dd      	b.n	8008d32 <_strtod_l+0x21a>
 8008d76:	2c10      	cmp	r4, #16
 8008d78:	bfdc      	itt	le
 8008d7a:	210a      	movle	r1, #10
 8008d7c:	fb01 e505 	mlale	r5, r1, r5, lr
 8008d80:	e7e4      	b.n	8008d4c <_strtod_l+0x234>
 8008d82:	2301      	movs	r3, #1
 8008d84:	9305      	str	r3, [sp, #20]
 8008d86:	e781      	b.n	8008c8c <_strtod_l+0x174>
 8008d88:	f04f 0c01 	mov.w	ip, #1
 8008d8c:	1cb3      	adds	r3, r6, #2
 8008d8e:	931b      	str	r3, [sp, #108]	; 0x6c
 8008d90:	78b3      	ldrb	r3, [r6, #2]
 8008d92:	e78a      	b.n	8008caa <_strtod_l+0x192>
 8008d94:	f04f 0c00 	mov.w	ip, #0
 8008d98:	e7f8      	b.n	8008d8c <_strtod_l+0x274>
 8008d9a:	bf00      	nop
 8008d9c:	0800c3fc 	.word	0x0800c3fc
 8008da0:	7ff00000 	.word	0x7ff00000
 8008da4:	9b1b      	ldr	r3, [sp, #108]	; 0x6c
 8008da6:	1c5f      	adds	r7, r3, #1
 8008da8:	971b      	str	r7, [sp, #108]	; 0x6c
 8008daa:	785b      	ldrb	r3, [r3, #1]
 8008dac:	2b30      	cmp	r3, #48	; 0x30
 8008dae:	d0f9      	beq.n	8008da4 <_strtod_l+0x28c>
 8008db0:	f1a3 0731 	sub.w	r7, r3, #49	; 0x31
 8008db4:	2f08      	cmp	r7, #8
 8008db6:	f63f af7d 	bhi.w	8008cb4 <_strtod_l+0x19c>
 8008dba:	f1a3 0e30 	sub.w	lr, r3, #48	; 0x30
 8008dbe:	9b1b      	ldr	r3, [sp, #108]	; 0x6c
 8008dc0:	9309      	str	r3, [sp, #36]	; 0x24
 8008dc2:	9b1b      	ldr	r3, [sp, #108]	; 0x6c
 8008dc4:	1c5f      	adds	r7, r3, #1
 8008dc6:	971b      	str	r7, [sp, #108]	; 0x6c
 8008dc8:	785b      	ldrb	r3, [r3, #1]
 8008dca:	f1a3 0830 	sub.w	r8, r3, #48	; 0x30
 8008dce:	f1b8 0f09 	cmp.w	r8, #9
 8008dd2:	d937      	bls.n	8008e44 <_strtod_l+0x32c>
 8008dd4:	9909      	ldr	r1, [sp, #36]	; 0x24
 8008dd6:	1a7f      	subs	r7, r7, r1
 8008dd8:	2f08      	cmp	r7, #8
 8008dda:	f644 671f 	movw	r7, #19999	; 0x4e1f
 8008dde:	dc37      	bgt.n	8008e50 <_strtod_l+0x338>
 8008de0:	45be      	cmp	lr, r7
 8008de2:	bfa8      	it	ge
 8008de4:	46be      	movge	lr, r7
 8008de6:	f1bc 0f00 	cmp.w	ip, #0
 8008dea:	d001      	beq.n	8008df0 <_strtod_l+0x2d8>
 8008dec:	f1ce 0e00 	rsb	lr, lr, #0
 8008df0:	2c00      	cmp	r4, #0
 8008df2:	d151      	bne.n	8008e98 <_strtod_l+0x380>
 8008df4:	2800      	cmp	r0, #0
 8008df6:	f47f aece 	bne.w	8008b96 <_strtod_l+0x7e>
 8008dfa:	9a07      	ldr	r2, [sp, #28]
 8008dfc:	2a00      	cmp	r2, #0
 8008dfe:	f47f aeca 	bne.w	8008b96 <_strtod_l+0x7e>
 8008e02:	9a05      	ldr	r2, [sp, #20]
 8008e04:	2a00      	cmp	r2, #0
 8008e06:	f47f aee4 	bne.w	8008bd2 <_strtod_l+0xba>
 8008e0a:	2b4e      	cmp	r3, #78	; 0x4e
 8008e0c:	d027      	beq.n	8008e5e <_strtod_l+0x346>
 8008e0e:	dc21      	bgt.n	8008e54 <_strtod_l+0x33c>
 8008e10:	2b49      	cmp	r3, #73	; 0x49
 8008e12:	f47f aede 	bne.w	8008bd2 <_strtod_l+0xba>
 8008e16:	49a4      	ldr	r1, [pc, #656]	; (80090a8 <_strtod_l+0x590>)
 8008e18:	a81b      	add	r0, sp, #108	; 0x6c
 8008e1a:	f000 fff5 	bl	8009e08 <__match>
 8008e1e:	2800      	cmp	r0, #0
 8008e20:	f43f aed7 	beq.w	8008bd2 <_strtod_l+0xba>
 8008e24:	9b1b      	ldr	r3, [sp, #108]	; 0x6c
 8008e26:	49a1      	ldr	r1, [pc, #644]	; (80090ac <_strtod_l+0x594>)
 8008e28:	3b01      	subs	r3, #1
 8008e2a:	a81b      	add	r0, sp, #108	; 0x6c
 8008e2c:	931b      	str	r3, [sp, #108]	; 0x6c
 8008e2e:	f000 ffeb 	bl	8009e08 <__match>
 8008e32:	b910      	cbnz	r0, 8008e3a <_strtod_l+0x322>
 8008e34:	9b1b      	ldr	r3, [sp, #108]	; 0x6c
 8008e36:	3301      	adds	r3, #1
 8008e38:	931b      	str	r3, [sp, #108]	; 0x6c
 8008e3a:	f8df a284 	ldr.w	sl, [pc, #644]	; 80090c0 <_strtod_l+0x5a8>
 8008e3e:	f04f 0900 	mov.w	r9, #0
 8008e42:	e6a8      	b.n	8008b96 <_strtod_l+0x7e>
 8008e44:	210a      	movs	r1, #10
 8008e46:	fb01 3e0e 	mla	lr, r1, lr, r3
 8008e4a:	f1ae 0e30 	sub.w	lr, lr, #48	; 0x30
 8008e4e:	e7b8      	b.n	8008dc2 <_strtod_l+0x2aa>
 8008e50:	46be      	mov	lr, r7
 8008e52:	e7c8      	b.n	8008de6 <_strtod_l+0x2ce>
 8008e54:	2b69      	cmp	r3, #105	; 0x69
 8008e56:	d0de      	beq.n	8008e16 <_strtod_l+0x2fe>
 8008e58:	2b6e      	cmp	r3, #110	; 0x6e
 8008e5a:	f47f aeba 	bne.w	8008bd2 <_strtod_l+0xba>
 8008e5e:	4994      	ldr	r1, [pc, #592]	; (80090b0 <_strtod_l+0x598>)
 8008e60:	a81b      	add	r0, sp, #108	; 0x6c
 8008e62:	f000 ffd1 	bl	8009e08 <__match>
 8008e66:	2800      	cmp	r0, #0
 8008e68:	f43f aeb3 	beq.w	8008bd2 <_strtod_l+0xba>
 8008e6c:	9b1b      	ldr	r3, [sp, #108]	; 0x6c
 8008e6e:	781b      	ldrb	r3, [r3, #0]
 8008e70:	2b28      	cmp	r3, #40	; 0x28
 8008e72:	d10e      	bne.n	8008e92 <_strtod_l+0x37a>
 8008e74:	aa1e      	add	r2, sp, #120	; 0x78
 8008e76:	498f      	ldr	r1, [pc, #572]	; (80090b4 <_strtod_l+0x59c>)
 8008e78:	a81b      	add	r0, sp, #108	; 0x6c
 8008e7a:	f000 ffd9 	bl	8009e30 <__hexnan>
 8008e7e:	2805      	cmp	r0, #5
 8008e80:	d107      	bne.n	8008e92 <_strtod_l+0x37a>
 8008e82:	9b1f      	ldr	r3, [sp, #124]	; 0x7c
 8008e84:	f8dd 9078 	ldr.w	r9, [sp, #120]	; 0x78
 8008e88:	f043 4aff 	orr.w	sl, r3, #2139095040	; 0x7f800000
 8008e8c:	f44a 0ae0 	orr.w	sl, sl, #7340032	; 0x700000
 8008e90:	e681      	b.n	8008b96 <_strtod_l+0x7e>
 8008e92:	f8df a234 	ldr.w	sl, [pc, #564]	; 80090c8 <_strtod_l+0x5b0>
 8008e96:	e7d2      	b.n	8008e3e <_strtod_l+0x326>
 8008e98:	ebae 0302 	sub.w	r3, lr, r2
 8008e9c:	9307      	str	r3, [sp, #28]
 8008e9e:	9b04      	ldr	r3, [sp, #16]
 8008ea0:	9806      	ldr	r0, [sp, #24]
 8008ea2:	2b00      	cmp	r3, #0
 8008ea4:	bf08      	it	eq
 8008ea6:	4623      	moveq	r3, r4
 8008ea8:	2c10      	cmp	r4, #16
 8008eaa:	9304      	str	r3, [sp, #16]
 8008eac:	46a0      	mov	r8, r4
 8008eae:	bfa8      	it	ge
 8008eb0:	f04f 0810 	movge.w	r8, #16
 8008eb4:	f7f7 fa96 	bl	80003e4 <__aeabi_ui2d>
 8008eb8:	2c09      	cmp	r4, #9
 8008eba:	4681      	mov	r9, r0
 8008ebc:	468a      	mov	sl, r1
 8008ebe:	dc13      	bgt.n	8008ee8 <_strtod_l+0x3d0>
 8008ec0:	9b07      	ldr	r3, [sp, #28]
 8008ec2:	2b00      	cmp	r3, #0
 8008ec4:	f43f ae67 	beq.w	8008b96 <_strtod_l+0x7e>
 8008ec8:	9b07      	ldr	r3, [sp, #28]
 8008eca:	dd7e      	ble.n	8008fca <_strtod_l+0x4b2>
 8008ecc:	2b16      	cmp	r3, #22
 8008ece:	dc65      	bgt.n	8008f9c <_strtod_l+0x484>
 8008ed0:	4a79      	ldr	r2, [pc, #484]	; (80090b8 <_strtod_l+0x5a0>)
 8008ed2:	eb02 0ec3 	add.w	lr, r2, r3, lsl #3
 8008ed6:	464a      	mov	r2, r9
 8008ed8:	e9de 0100 	ldrd	r0, r1, [lr]
 8008edc:	4653      	mov	r3, sl
 8008ede:	f7f7 fafb 	bl	80004d8 <__aeabi_dmul>
 8008ee2:	4681      	mov	r9, r0
 8008ee4:	468a      	mov	sl, r1
 8008ee6:	e656      	b.n	8008b96 <_strtod_l+0x7e>
 8008ee8:	4b73      	ldr	r3, [pc, #460]	; (80090b8 <_strtod_l+0x5a0>)
 8008eea:	eb03 03c8 	add.w	r3, r3, r8, lsl #3
 8008eee:	e953 2312 	ldrd	r2, r3, [r3, #-72]	; 0x48
 8008ef2:	f7f7 faf1 	bl	80004d8 <__aeabi_dmul>
 8008ef6:	4606      	mov	r6, r0
 8008ef8:	4628      	mov	r0, r5
 8008efa:	460f      	mov	r7, r1
 8008efc:	f7f7 fa72 	bl	80003e4 <__aeabi_ui2d>
 8008f00:	4602      	mov	r2, r0
 8008f02:	460b      	mov	r3, r1
 8008f04:	4630      	mov	r0, r6
 8008f06:	4639      	mov	r1, r7
 8008f08:	f7f7 f930 	bl	800016c <__adddf3>
 8008f0c:	2c0f      	cmp	r4, #15
 8008f0e:	4681      	mov	r9, r0
 8008f10:	468a      	mov	sl, r1
 8008f12:	ddd5      	ble.n	8008ec0 <_strtod_l+0x3a8>
 8008f14:	9b07      	ldr	r3, [sp, #28]
 8008f16:	eba4 0808 	sub.w	r8, r4, r8
 8008f1a:	4498      	add	r8, r3
 8008f1c:	f1b8 0f00 	cmp.w	r8, #0
 8008f20:	f340 809a 	ble.w	8009058 <_strtod_l+0x540>
 8008f24:	f018 030f 	ands.w	r3, r8, #15
 8008f28:	d00a      	beq.n	8008f40 <_strtod_l+0x428>
 8008f2a:	4963      	ldr	r1, [pc, #396]	; (80090b8 <_strtod_l+0x5a0>)
 8008f2c:	464a      	mov	r2, r9
 8008f2e:	eb01 01c3 	add.w	r1, r1, r3, lsl #3
 8008f32:	e9d1 0100 	ldrd	r0, r1, [r1]
 8008f36:	4653      	mov	r3, sl
 8008f38:	f7f7 face 	bl	80004d8 <__aeabi_dmul>
 8008f3c:	4681      	mov	r9, r0
 8008f3e:	468a      	mov	sl, r1
 8008f40:	f038 080f 	bics.w	r8, r8, #15
 8008f44:	d077      	beq.n	8009036 <_strtod_l+0x51e>
 8008f46:	f5b8 7f9a 	cmp.w	r8, #308	; 0x134
 8008f4a:	dd4b      	ble.n	8008fe4 <_strtod_l+0x4cc>
 8008f4c:	f04f 0800 	mov.w	r8, #0
 8008f50:	f8cd 8010 	str.w	r8, [sp, #16]
 8008f54:	f8cd 8020 	str.w	r8, [sp, #32]
 8008f58:	f8cd 8018 	str.w	r8, [sp, #24]
 8008f5c:	2322      	movs	r3, #34	; 0x22
 8008f5e:	f04f 0900 	mov.w	r9, #0
 8008f62:	f8df a15c 	ldr.w	sl, [pc, #348]	; 80090c0 <_strtod_l+0x5a8>
 8008f66:	f8cb 3000 	str.w	r3, [fp]
 8008f6a:	9b08      	ldr	r3, [sp, #32]
 8008f6c:	2b00      	cmp	r3, #0
 8008f6e:	f43f ae12 	beq.w	8008b96 <_strtod_l+0x7e>
 8008f72:	991c      	ldr	r1, [sp, #112]	; 0x70
 8008f74:	4658      	mov	r0, fp
 8008f76:	f001 f845 	bl	800a004 <_Bfree>
 8008f7a:	9906      	ldr	r1, [sp, #24]
 8008f7c:	4658      	mov	r0, fp
 8008f7e:	f001 f841 	bl	800a004 <_Bfree>
 8008f82:	9904      	ldr	r1, [sp, #16]
 8008f84:	4658      	mov	r0, fp
 8008f86:	f001 f83d 	bl	800a004 <_Bfree>
 8008f8a:	9908      	ldr	r1, [sp, #32]
 8008f8c:	4658      	mov	r0, fp
 8008f8e:	f001 f839 	bl	800a004 <_Bfree>
 8008f92:	4641      	mov	r1, r8
 8008f94:	4658      	mov	r0, fp
 8008f96:	f001 f835 	bl	800a004 <_Bfree>
 8008f9a:	e5fc      	b.n	8008b96 <_strtod_l+0x7e>
 8008f9c:	9a07      	ldr	r2, [sp, #28]
 8008f9e:	f1c4 0325 	rsb	r3, r4, #37	; 0x25
 8008fa2:	4293      	cmp	r3, r2
 8008fa4:	dbb6      	blt.n	8008f14 <_strtod_l+0x3fc>
 8008fa6:	4d44      	ldr	r5, [pc, #272]	; (80090b8 <_strtod_l+0x5a0>)
 8008fa8:	f1c4 040f 	rsb	r4, r4, #15
 8008fac:	eb05 01c4 	add.w	r1, r5, r4, lsl #3
 8008fb0:	464a      	mov	r2, r9
 8008fb2:	e9d1 0100 	ldrd	r0, r1, [r1]
 8008fb6:	4653      	mov	r3, sl
 8008fb8:	f7f7 fa8e 	bl	80004d8 <__aeabi_dmul>
 8008fbc:	9b07      	ldr	r3, [sp, #28]
 8008fbe:	1b1c      	subs	r4, r3, r4
 8008fc0:	eb05 05c4 	add.w	r5, r5, r4, lsl #3
 8008fc4:	e9d5 2300 	ldrd	r2, r3, [r5]
 8008fc8:	e789      	b.n	8008ede <_strtod_l+0x3c6>
 8008fca:	f113 0f16 	cmn.w	r3, #22
 8008fce:	dba1      	blt.n	8008f14 <_strtod_l+0x3fc>
 8008fd0:	4a39      	ldr	r2, [pc, #228]	; (80090b8 <_strtod_l+0x5a0>)
 8008fd2:	4648      	mov	r0, r9
 8008fd4:	eba2 02c3 	sub.w	r2, r2, r3, lsl #3
 8008fd8:	e9d2 2300 	ldrd	r2, r3, [r2]
 8008fdc:	4651      	mov	r1, sl
 8008fde:	f7f7 fba5 	bl	800072c <__aeabi_ddiv>
 8008fe2:	e77e      	b.n	8008ee2 <_strtod_l+0x3ca>
 8008fe4:	2300      	movs	r3, #0
 8008fe6:	4648      	mov	r0, r9
 8008fe8:	4651      	mov	r1, sl
 8008fea:	461d      	mov	r5, r3
 8008fec:	4e33      	ldr	r6, [pc, #204]	; (80090bc <_strtod_l+0x5a4>)
 8008fee:	ea4f 1828 	mov.w	r8, r8, asr #4
 8008ff2:	f1b8 0f01 	cmp.w	r8, #1
 8008ff6:	dc21      	bgt.n	800903c <_strtod_l+0x524>
 8008ff8:	b10b      	cbz	r3, 8008ffe <_strtod_l+0x4e6>
 8008ffa:	4681      	mov	r9, r0
 8008ffc:	468a      	mov	sl, r1
 8008ffe:	4b2f      	ldr	r3, [pc, #188]	; (80090bc <_strtod_l+0x5a4>)
 8009000:	f1aa 7a54 	sub.w	sl, sl, #55574528	; 0x3500000
 8009004:	eb03 05c5 	add.w	r5, r3, r5, lsl #3
 8009008:	464a      	mov	r2, r9
 800900a:	e9d5 0100 	ldrd	r0, r1, [r5]
 800900e:	4653      	mov	r3, sl
 8009010:	f7f7 fa62 	bl	80004d8 <__aeabi_dmul>
 8009014:	4b2a      	ldr	r3, [pc, #168]	; (80090c0 <_strtod_l+0x5a8>)
 8009016:	460a      	mov	r2, r1
 8009018:	400b      	ands	r3, r1
 800901a:	492a      	ldr	r1, [pc, #168]	; (80090c4 <_strtod_l+0x5ac>)
 800901c:	4681      	mov	r9, r0
 800901e:	428b      	cmp	r3, r1
 8009020:	d894      	bhi.n	8008f4c <_strtod_l+0x434>
 8009022:	f5a1 1180 	sub.w	r1, r1, #1048576	; 0x100000
 8009026:	428b      	cmp	r3, r1
 8009028:	bf86      	itte	hi
 800902a:	f04f 39ff 	movhi.w	r9, #4294967295
 800902e:	f8df a09c 	ldrhi.w	sl, [pc, #156]	; 80090cc <_strtod_l+0x5b4>
 8009032:	f102 7a54 	addls.w	sl, r2, #55574528	; 0x3500000
 8009036:	2300      	movs	r3, #0
 8009038:	9305      	str	r3, [sp, #20]
 800903a:	e07b      	b.n	8009134 <_strtod_l+0x61c>
 800903c:	f018 0f01 	tst.w	r8, #1
 8009040:	d006      	beq.n	8009050 <_strtod_l+0x538>
 8009042:	eb06 03c5 	add.w	r3, r6, r5, lsl #3
 8009046:	e9d3 2300 	ldrd	r2, r3, [r3]
 800904a:	f7f7 fa45 	bl	80004d8 <__aeabi_dmul>
 800904e:	2301      	movs	r3, #1
 8009050:	3501      	adds	r5, #1
 8009052:	ea4f 0868 	mov.w	r8, r8, asr #1
 8009056:	e7cc      	b.n	8008ff2 <_strtod_l+0x4da>
 8009058:	d0ed      	beq.n	8009036 <_strtod_l+0x51e>
 800905a:	f1c8 0800 	rsb	r8, r8, #0
 800905e:	f018 020f 	ands.w	r2, r8, #15
 8009062:	d00a      	beq.n	800907a <_strtod_l+0x562>
 8009064:	4b14      	ldr	r3, [pc, #80]	; (80090b8 <_strtod_l+0x5a0>)
 8009066:	4648      	mov	r0, r9
 8009068:	eb03 03c2 	add.w	r3, r3, r2, lsl #3
 800906c:	4651      	mov	r1, sl
 800906e:	e9d3 2300 	ldrd	r2, r3, [r3]
 8009072:	f7f7 fb5b 	bl	800072c <__aeabi_ddiv>
 8009076:	4681      	mov	r9, r0
 8009078:	468a      	mov	sl, r1
 800907a:	ea5f 1828 	movs.w	r8, r8, asr #4
 800907e:	d0da      	beq.n	8009036 <_strtod_l+0x51e>
 8009080:	f1b8 0f1f 	cmp.w	r8, #31
 8009084:	dd24      	ble.n	80090d0 <_strtod_l+0x5b8>
 8009086:	f04f 0800 	mov.w	r8, #0
 800908a:	f8cd 8010 	str.w	r8, [sp, #16]
 800908e:	f8cd 8020 	str.w	r8, [sp, #32]
 8009092:	f8cd 8018 	str.w	r8, [sp, #24]
 8009096:	2322      	movs	r3, #34	; 0x22
 8009098:	f04f 0900 	mov.w	r9, #0
 800909c:	f04f 0a00 	mov.w	sl, #0
 80090a0:	f8cb 3000 	str.w	r3, [fp]
 80090a4:	e761      	b.n	8008f6a <_strtod_l+0x452>
 80090a6:	bf00      	nop
 80090a8:	0800c3f0 	.word	0x0800c3f0
 80090ac:	0800c3f3 	.word	0x0800c3f3
 80090b0:	0800c3f9 	.word	0x0800c3f9
 80090b4:	0800c410 	.word	0x0800c410
 80090b8:	0800c4a8 	.word	0x0800c4a8
 80090bc:	0800c480 	.word	0x0800c480
 80090c0:	7ff00000 	.word	0x7ff00000
 80090c4:	7ca00000 	.word	0x7ca00000
 80090c8:	fff80000 	.word	0xfff80000
 80090cc:	7fefffff 	.word	0x7fefffff
 80090d0:	f018 0310 	ands.w	r3, r8, #16
 80090d4:	bf18      	it	ne
 80090d6:	236a      	movne	r3, #106	; 0x6a
 80090d8:	4648      	mov	r0, r9
 80090da:	9305      	str	r3, [sp, #20]
 80090dc:	4651      	mov	r1, sl
 80090de:	2300      	movs	r3, #0
 80090e0:	4da1      	ldr	r5, [pc, #644]	; (8009368 <_strtod_l+0x850>)
 80090e2:	f1b8 0f00 	cmp.w	r8, #0
 80090e6:	f300 8113 	bgt.w	8009310 <_strtod_l+0x7f8>
 80090ea:	b10b      	cbz	r3, 80090f0 <_strtod_l+0x5d8>
 80090ec:	4681      	mov	r9, r0
 80090ee:	468a      	mov	sl, r1
 80090f0:	9b05      	ldr	r3, [sp, #20]
 80090f2:	b1bb      	cbz	r3, 8009124 <_strtod_l+0x60c>
 80090f4:	f3ca 530a 	ubfx	r3, sl, #20, #11
 80090f8:	f1c3 036b 	rsb	r3, r3, #107	; 0x6b
 80090fc:	2b00      	cmp	r3, #0
 80090fe:	4651      	mov	r1, sl
 8009100:	dd10      	ble.n	8009124 <_strtod_l+0x60c>
 8009102:	2b1f      	cmp	r3, #31
 8009104:	f340 8110 	ble.w	8009328 <_strtod_l+0x810>
 8009108:	2b34      	cmp	r3, #52	; 0x34
 800910a:	bfd8      	it	le
 800910c:	f04f 32ff 	movle.w	r2, #4294967295
 8009110:	f04f 0900 	mov.w	r9, #0
 8009114:	bfcf      	iteee	gt
 8009116:	f04f 7a5c 	movgt.w	sl, #57671680	; 0x3700000
 800911a:	3b20      	suble	r3, #32
 800911c:	fa02 f303 	lslle.w	r3, r2, r3
 8009120:	ea03 0a01 	andle.w	sl, r3, r1
 8009124:	2200      	movs	r2, #0
 8009126:	2300      	movs	r3, #0
 8009128:	4648      	mov	r0, r9
 800912a:	4651      	mov	r1, sl
 800912c:	f7f7 fc3c 	bl	80009a8 <__aeabi_dcmpeq>
 8009130:	2800      	cmp	r0, #0
 8009132:	d1a8      	bne.n	8009086 <_strtod_l+0x56e>
 8009134:	9b06      	ldr	r3, [sp, #24]
 8009136:	9a04      	ldr	r2, [sp, #16]
 8009138:	9300      	str	r3, [sp, #0]
 800913a:	9908      	ldr	r1, [sp, #32]
 800913c:	4623      	mov	r3, r4
 800913e:	4658      	mov	r0, fp
 8009140:	f000 ffb2 	bl	800a0a8 <__s2b>
 8009144:	9008      	str	r0, [sp, #32]
 8009146:	2800      	cmp	r0, #0
 8009148:	f43f af00 	beq.w	8008f4c <_strtod_l+0x434>
 800914c:	9a07      	ldr	r2, [sp, #28]
 800914e:	9b07      	ldr	r3, [sp, #28]
 8009150:	2a00      	cmp	r2, #0
 8009152:	f1c3 0300 	rsb	r3, r3, #0
 8009156:	bfa8      	it	ge
 8009158:	2300      	movge	r3, #0
 800915a:	f04f 0800 	mov.w	r8, #0
 800915e:	930e      	str	r3, [sp, #56]	; 0x38
 8009160:	ea22 73e2 	bic.w	r3, r2, r2, asr #31
 8009164:	9316      	str	r3, [sp, #88]	; 0x58
 8009166:	f8cd 8010 	str.w	r8, [sp, #16]
 800916a:	9b08      	ldr	r3, [sp, #32]
 800916c:	4658      	mov	r0, fp
 800916e:	6859      	ldr	r1, [r3, #4]
 8009170:	f000 ff14 	bl	8009f9c <_Balloc>
 8009174:	9006      	str	r0, [sp, #24]
 8009176:	2800      	cmp	r0, #0
 8009178:	f43f aef0 	beq.w	8008f5c <_strtod_l+0x444>
 800917c:	9b08      	ldr	r3, [sp, #32]
 800917e:	300c      	adds	r0, #12
 8009180:	691a      	ldr	r2, [r3, #16]
 8009182:	f103 010c 	add.w	r1, r3, #12
 8009186:	3202      	adds	r2, #2
 8009188:	0092      	lsls	r2, r2, #2
 800918a:	f7ff fc3a 	bl	8008a02 <memcpy>
 800918e:	ab1e      	add	r3, sp, #120	; 0x78
 8009190:	9301      	str	r3, [sp, #4]
 8009192:	ab1d      	add	r3, sp, #116	; 0x74
 8009194:	9300      	str	r3, [sp, #0]
 8009196:	464a      	mov	r2, r9
 8009198:	4653      	mov	r3, sl
 800919a:	4658      	mov	r0, fp
 800919c:	e9cd 9a0a 	strd	r9, sl, [sp, #40]	; 0x28
 80091a0:	f001 fa3c 	bl	800a61c <__d2b>
 80091a4:	901c      	str	r0, [sp, #112]	; 0x70
 80091a6:	2800      	cmp	r0, #0
 80091a8:	f43f aed8 	beq.w	8008f5c <_strtod_l+0x444>
 80091ac:	2101      	movs	r1, #1
 80091ae:	4658      	mov	r0, fp
 80091b0:	f001 f806 	bl	800a1c0 <__i2b>
 80091b4:	9004      	str	r0, [sp, #16]
 80091b6:	4603      	mov	r3, r0
 80091b8:	2800      	cmp	r0, #0
 80091ba:	f43f aecf 	beq.w	8008f5c <_strtod_l+0x444>
 80091be:	9d1d      	ldr	r5, [sp, #116]	; 0x74
 80091c0:	9a1e      	ldr	r2, [sp, #120]	; 0x78
 80091c2:	2d00      	cmp	r5, #0
 80091c4:	bfab      	itete	ge
 80091c6:	9b0e      	ldrge	r3, [sp, #56]	; 0x38
 80091c8:	9b16      	ldrlt	r3, [sp, #88]	; 0x58
 80091ca:	18ee      	addge	r6, r5, r3
 80091cc:	1b5c      	sublt	r4, r3, r5
 80091ce:	9b05      	ldr	r3, [sp, #20]
 80091d0:	bfa8      	it	ge
 80091d2:	9c16      	ldrge	r4, [sp, #88]	; 0x58
 80091d4:	eba5 0503 	sub.w	r5, r5, r3
 80091d8:	4415      	add	r5, r2
 80091da:	4b64      	ldr	r3, [pc, #400]	; (800936c <_strtod_l+0x854>)
 80091dc:	f105 35ff 	add.w	r5, r5, #4294967295
 80091e0:	bfb8      	it	lt
 80091e2:	9e0e      	ldrlt	r6, [sp, #56]	; 0x38
 80091e4:	429d      	cmp	r5, r3
 80091e6:	f1c2 0236 	rsb	r2, r2, #54	; 0x36
 80091ea:	f280 80af 	bge.w	800934c <_strtod_l+0x834>
 80091ee:	1b5b      	subs	r3, r3, r5
 80091f0:	2b1f      	cmp	r3, #31
 80091f2:	eba2 0203 	sub.w	r2, r2, r3
 80091f6:	f04f 0701 	mov.w	r7, #1
 80091fa:	f300 809c 	bgt.w	8009336 <_strtod_l+0x81e>
 80091fe:	2500      	movs	r5, #0
 8009200:	fa07 f303 	lsl.w	r3, r7, r3
 8009204:	930f      	str	r3, [sp, #60]	; 0x3c
 8009206:	18b7      	adds	r7, r6, r2
 8009208:	9b05      	ldr	r3, [sp, #20]
 800920a:	42be      	cmp	r6, r7
 800920c:	4414      	add	r4, r2
 800920e:	441c      	add	r4, r3
 8009210:	4633      	mov	r3, r6
 8009212:	bfa8      	it	ge
 8009214:	463b      	movge	r3, r7
 8009216:	42a3      	cmp	r3, r4
 8009218:	bfa8      	it	ge
 800921a:	4623      	movge	r3, r4
 800921c:	2b00      	cmp	r3, #0
 800921e:	bfc2      	ittt	gt
 8009220:	1aff      	subgt	r7, r7, r3
 8009222:	1ae4      	subgt	r4, r4, r3
 8009224:	1af6      	subgt	r6, r6, r3
 8009226:	9b0e      	ldr	r3, [sp, #56]	; 0x38
 8009228:	b1bb      	cbz	r3, 800925a <_strtod_l+0x742>
 800922a:	461a      	mov	r2, r3
 800922c:	9904      	ldr	r1, [sp, #16]
 800922e:	4658      	mov	r0, fp
 8009230:	f001 f864 	bl	800a2fc <__pow5mult>
 8009234:	9004      	str	r0, [sp, #16]
 8009236:	2800      	cmp	r0, #0
 8009238:	f43f ae90 	beq.w	8008f5c <_strtod_l+0x444>
 800923c:	4601      	mov	r1, r0
 800923e:	9a1c      	ldr	r2, [sp, #112]	; 0x70
 8009240:	4658      	mov	r0, fp
 8009242:	f000 ffc6 	bl	800a1d2 <__multiply>
 8009246:	9009      	str	r0, [sp, #36]	; 0x24
 8009248:	2800      	cmp	r0, #0
 800924a:	f43f ae87 	beq.w	8008f5c <_strtod_l+0x444>
 800924e:	991c      	ldr	r1, [sp, #112]	; 0x70
 8009250:	4658      	mov	r0, fp
 8009252:	f000 fed7 	bl	800a004 <_Bfree>
 8009256:	9b09      	ldr	r3, [sp, #36]	; 0x24
 8009258:	931c      	str	r3, [sp, #112]	; 0x70
 800925a:	2f00      	cmp	r7, #0
 800925c:	dc7a      	bgt.n	8009354 <_strtod_l+0x83c>
 800925e:	9b07      	ldr	r3, [sp, #28]
 8009260:	2b00      	cmp	r3, #0
 8009262:	dd08      	ble.n	8009276 <_strtod_l+0x75e>
 8009264:	9a16      	ldr	r2, [sp, #88]	; 0x58
 8009266:	9906      	ldr	r1, [sp, #24]
 8009268:	4658      	mov	r0, fp
 800926a:	f001 f847 	bl	800a2fc <__pow5mult>
 800926e:	9006      	str	r0, [sp, #24]
 8009270:	2800      	cmp	r0, #0
 8009272:	f43f ae73 	beq.w	8008f5c <_strtod_l+0x444>
 8009276:	2c00      	cmp	r4, #0
 8009278:	dd08      	ble.n	800928c <_strtod_l+0x774>
 800927a:	4622      	mov	r2, r4
 800927c:	9906      	ldr	r1, [sp, #24]
 800927e:	4658      	mov	r0, fp
 8009280:	f001 f88a 	bl	800a398 <__lshift>
 8009284:	9006      	str	r0, [sp, #24]
 8009286:	2800      	cmp	r0, #0
 8009288:	f43f ae68 	beq.w	8008f5c <_strtod_l+0x444>
 800928c:	2e00      	cmp	r6, #0
 800928e:	dd08      	ble.n	80092a2 <_strtod_l+0x78a>
 8009290:	4632      	mov	r2, r6
 8009292:	9904      	ldr	r1, [sp, #16]
 8009294:	4658      	mov	r0, fp
 8009296:	f001 f87f 	bl	800a398 <__lshift>
 800929a:	9004      	str	r0, [sp, #16]
 800929c:	2800      	cmp	r0, #0
 800929e:	f43f ae5d 	beq.w	8008f5c <_strtod_l+0x444>
 80092a2:	9a06      	ldr	r2, [sp, #24]
 80092a4:	991c      	ldr	r1, [sp, #112]	; 0x70
 80092a6:	4658      	mov	r0, fp
 80092a8:	f001 f8e4 	bl	800a474 <__mdiff>
 80092ac:	4680      	mov	r8, r0
 80092ae:	2800      	cmp	r0, #0
 80092b0:	f43f ae54 	beq.w	8008f5c <_strtod_l+0x444>
 80092b4:	2400      	movs	r4, #0
 80092b6:	68c3      	ldr	r3, [r0, #12]
 80092b8:	9904      	ldr	r1, [sp, #16]
 80092ba:	60c4      	str	r4, [r0, #12]
 80092bc:	930c      	str	r3, [sp, #48]	; 0x30
 80092be:	f001 f8bf 	bl	800a440 <__mcmp>
 80092c2:	42a0      	cmp	r0, r4
 80092c4:	da54      	bge.n	8009370 <_strtod_l+0x858>
 80092c6:	9b0c      	ldr	r3, [sp, #48]	; 0x30
 80092c8:	b9f3      	cbnz	r3, 8009308 <_strtod_l+0x7f0>
 80092ca:	f1b9 0f00 	cmp.w	r9, #0
 80092ce:	d11b      	bne.n	8009308 <_strtod_l+0x7f0>
 80092d0:	f3ca 0313 	ubfx	r3, sl, #0, #20
 80092d4:	b9c3      	cbnz	r3, 8009308 <_strtod_l+0x7f0>
 80092d6:	f02a 4300 	bic.w	r3, sl, #2147483648	; 0x80000000
 80092da:	0d1b      	lsrs	r3, r3, #20
 80092dc:	051b      	lsls	r3, r3, #20
 80092de:	f1b3 6fd6 	cmp.w	r3, #112197632	; 0x6b00000
 80092e2:	d911      	bls.n	8009308 <_strtod_l+0x7f0>
 80092e4:	f8d8 3014 	ldr.w	r3, [r8, #20]
 80092e8:	b91b      	cbnz	r3, 80092f2 <_strtod_l+0x7da>
 80092ea:	f8d8 3010 	ldr.w	r3, [r8, #16]
 80092ee:	2b01      	cmp	r3, #1
 80092f0:	dd0a      	ble.n	8009308 <_strtod_l+0x7f0>
 80092f2:	4641      	mov	r1, r8
 80092f4:	2201      	movs	r2, #1
 80092f6:	4658      	mov	r0, fp
 80092f8:	f001 f84e 	bl	800a398 <__lshift>
 80092fc:	9904      	ldr	r1, [sp, #16]
 80092fe:	4680      	mov	r8, r0
 8009300:	f001 f89e 	bl	800a440 <__mcmp>
 8009304:	2800      	cmp	r0, #0
 8009306:	dc68      	bgt.n	80093da <_strtod_l+0x8c2>
 8009308:	9b05      	ldr	r3, [sp, #20]
 800930a:	2b00      	cmp	r3, #0
 800930c:	d172      	bne.n	80093f4 <_strtod_l+0x8dc>
 800930e:	e630      	b.n	8008f72 <_strtod_l+0x45a>
 8009310:	f018 0f01 	tst.w	r8, #1
 8009314:	d004      	beq.n	8009320 <_strtod_l+0x808>
 8009316:	e9d5 2300 	ldrd	r2, r3, [r5]
 800931a:	f7f7 f8dd 	bl	80004d8 <__aeabi_dmul>
 800931e:	2301      	movs	r3, #1
 8009320:	ea4f 0868 	mov.w	r8, r8, asr #1
 8009324:	3508      	adds	r5, #8
 8009326:	e6dc      	b.n	80090e2 <_strtod_l+0x5ca>
 8009328:	f04f 32ff 	mov.w	r2, #4294967295
 800932c:	fa02 f303 	lsl.w	r3, r2, r3
 8009330:	ea03 0909 	and.w	r9, r3, r9
 8009334:	e6f6      	b.n	8009124 <_strtod_l+0x60c>
 8009336:	f1c5 457f 	rsb	r5, r5, #4278190080	; 0xff000000
 800933a:	f505 057f 	add.w	r5, r5, #16711680	; 0xff0000
 800933e:	f505 457b 	add.w	r5, r5, #64256	; 0xfb00
 8009342:	35e2      	adds	r5, #226	; 0xe2
 8009344:	fa07 f505 	lsl.w	r5, r7, r5
 8009348:	970f      	str	r7, [sp, #60]	; 0x3c
 800934a:	e75c      	b.n	8009206 <_strtod_l+0x6ee>
 800934c:	2301      	movs	r3, #1
 800934e:	2500      	movs	r5, #0
 8009350:	930f      	str	r3, [sp, #60]	; 0x3c
 8009352:	e758      	b.n	8009206 <_strtod_l+0x6ee>
 8009354:	463a      	mov	r2, r7
 8009356:	991c      	ldr	r1, [sp, #112]	; 0x70
 8009358:	4658      	mov	r0, fp
 800935a:	f001 f81d 	bl	800a398 <__lshift>
 800935e:	901c      	str	r0, [sp, #112]	; 0x70
 8009360:	2800      	cmp	r0, #0
 8009362:	f47f af7c 	bne.w	800925e <_strtod_l+0x746>
 8009366:	e5f9      	b.n	8008f5c <_strtod_l+0x444>
 8009368:	0800c428 	.word	0x0800c428
 800936c:	fffffc02 	.word	0xfffffc02
 8009370:	f8cd a024 	str.w	sl, [sp, #36]	; 0x24
 8009374:	f040 8089 	bne.w	800948a <_strtod_l+0x972>
 8009378:	9a0c      	ldr	r2, [sp, #48]	; 0x30
 800937a:	f3ca 0313 	ubfx	r3, sl, #0, #20
 800937e:	b342      	cbz	r2, 80093d2 <_strtod_l+0x8ba>
 8009380:	4aaf      	ldr	r2, [pc, #700]	; (8009640 <_strtod_l+0xb28>)
 8009382:	4293      	cmp	r3, r2
 8009384:	d156      	bne.n	8009434 <_strtod_l+0x91c>
 8009386:	9b05      	ldr	r3, [sp, #20]
 8009388:	4648      	mov	r0, r9
 800938a:	b1eb      	cbz	r3, 80093c8 <_strtod_l+0x8b0>
 800938c:	4653      	mov	r3, sl
 800938e:	4aad      	ldr	r2, [pc, #692]	; (8009644 <_strtod_l+0xb2c>)
 8009390:	f04f 31ff 	mov.w	r1, #4294967295
 8009394:	401a      	ands	r2, r3
 8009396:	f1b2 6fd4 	cmp.w	r2, #111149056	; 0x6a00000
 800939a:	d818      	bhi.n	80093ce <_strtod_l+0x8b6>
 800939c:	0d12      	lsrs	r2, r2, #20
 800939e:	f1c2 036b 	rsb	r3, r2, #107	; 0x6b
 80093a2:	fa01 f303 	lsl.w	r3, r1, r3
 80093a6:	4298      	cmp	r0, r3
 80093a8:	d144      	bne.n	8009434 <_strtod_l+0x91c>
 80093aa:	4ba7      	ldr	r3, [pc, #668]	; (8009648 <_strtod_l+0xb30>)
 80093ac:	9a09      	ldr	r2, [sp, #36]	; 0x24
 80093ae:	429a      	cmp	r2, r3
 80093b0:	d102      	bne.n	80093b8 <_strtod_l+0x8a0>
 80093b2:	3001      	adds	r0, #1
 80093b4:	f43f add2 	beq.w	8008f5c <_strtod_l+0x444>
 80093b8:	4ba2      	ldr	r3, [pc, #648]	; (8009644 <_strtod_l+0xb2c>)
 80093ba:	9a09      	ldr	r2, [sp, #36]	; 0x24
 80093bc:	f04f 0900 	mov.w	r9, #0
 80093c0:	401a      	ands	r2, r3
 80093c2:	f502 1a80 	add.w	sl, r2, #1048576	; 0x100000
 80093c6:	e79f      	b.n	8009308 <_strtod_l+0x7f0>
 80093c8:	f04f 33ff 	mov.w	r3, #4294967295
 80093cc:	e7eb      	b.n	80093a6 <_strtod_l+0x88e>
 80093ce:	460b      	mov	r3, r1
 80093d0:	e7e9      	b.n	80093a6 <_strtod_l+0x88e>
 80093d2:	bb7b      	cbnz	r3, 8009434 <_strtod_l+0x91c>
 80093d4:	f1b9 0f00 	cmp.w	r9, #0
 80093d8:	d12c      	bne.n	8009434 <_strtod_l+0x91c>
 80093da:	9905      	ldr	r1, [sp, #20]
 80093dc:	4653      	mov	r3, sl
 80093de:	4a99      	ldr	r2, [pc, #612]	; (8009644 <_strtod_l+0xb2c>)
 80093e0:	b1f1      	cbz	r1, 8009420 <_strtod_l+0x908>
 80093e2:	ea02 010a 	and.w	r1, r2, sl
 80093e6:	f1b1 6fd6 	cmp.w	r1, #112197632	; 0x6b00000
 80093ea:	dc19      	bgt.n	8009420 <_strtod_l+0x908>
 80093ec:	f1b1 7f5c 	cmp.w	r1, #57671680	; 0x3700000
 80093f0:	f77f ae51 	ble.w	8009096 <_strtod_l+0x57e>
 80093f4:	2300      	movs	r3, #0
 80093f6:	4a95      	ldr	r2, [pc, #596]	; (800964c <_strtod_l+0xb34>)
 80093f8:	4648      	mov	r0, r9
 80093fa:	e9cd 3214 	strd	r3, r2, [sp, #80]	; 0x50
 80093fe:	4651      	mov	r1, sl
 8009400:	e9dd 2314 	ldrd	r2, r3, [sp, #80]	; 0x50
 8009404:	f7f7 f868 	bl	80004d8 <__aeabi_dmul>
 8009408:	4681      	mov	r9, r0
 800940a:	468a      	mov	sl, r1
 800940c:	2900      	cmp	r1, #0
 800940e:	f47f adb0 	bne.w	8008f72 <_strtod_l+0x45a>
 8009412:	2800      	cmp	r0, #0
 8009414:	f47f adad 	bne.w	8008f72 <_strtod_l+0x45a>
 8009418:	2322      	movs	r3, #34	; 0x22
 800941a:	f8cb 3000 	str.w	r3, [fp]
 800941e:	e5a8      	b.n	8008f72 <_strtod_l+0x45a>
 8009420:	4013      	ands	r3, r2
 8009422:	f5a3 1380 	sub.w	r3, r3, #1048576	; 0x100000
 8009426:	ea6f 5a13 	mvn.w	sl, r3, lsr #20
 800942a:	f04f 39ff 	mov.w	r9, #4294967295
 800942e:	ea6f 5a0a 	mvn.w	sl, sl, lsl #20
 8009432:	e769      	b.n	8009308 <_strtod_l+0x7f0>
 8009434:	b19d      	cbz	r5, 800945e <_strtod_l+0x946>
 8009436:	9b09      	ldr	r3, [sp, #36]	; 0x24
 8009438:	421d      	tst	r5, r3
 800943a:	f43f af65 	beq.w	8009308 <_strtod_l+0x7f0>
 800943e:	9b0c      	ldr	r3, [sp, #48]	; 0x30
 8009440:	9a05      	ldr	r2, [sp, #20]
 8009442:	4648      	mov	r0, r9
 8009444:	4651      	mov	r1, sl
 8009446:	b173      	cbz	r3, 8009466 <_strtod_l+0x94e>
 8009448:	f7ff fb45 	bl	8008ad6 <sulp>
 800944c:	4602      	mov	r2, r0
 800944e:	460b      	mov	r3, r1
 8009450:	e9dd 010a 	ldrd	r0, r1, [sp, #40]	; 0x28
 8009454:	f7f6 fe8a 	bl	800016c <__adddf3>
 8009458:	4681      	mov	r9, r0
 800945a:	468a      	mov	sl, r1
 800945c:	e754      	b.n	8009308 <_strtod_l+0x7f0>
 800945e:	9b0f      	ldr	r3, [sp, #60]	; 0x3c
 8009460:	ea13 0f09 	tst.w	r3, r9
 8009464:	e7e9      	b.n	800943a <_strtod_l+0x922>
 8009466:	f7ff fb36 	bl	8008ad6 <sulp>
 800946a:	4602      	mov	r2, r0
 800946c:	460b      	mov	r3, r1
 800946e:	e9dd 010a 	ldrd	r0, r1, [sp, #40]	; 0x28
 8009472:	f7f6 fe79 	bl	8000168 <__aeabi_dsub>
 8009476:	2200      	movs	r2, #0
 8009478:	2300      	movs	r3, #0
 800947a:	4681      	mov	r9, r0
 800947c:	468a      	mov	sl, r1
 800947e:	f7f7 fa93 	bl	80009a8 <__aeabi_dcmpeq>
 8009482:	2800      	cmp	r0, #0
 8009484:	f47f ae07 	bne.w	8009096 <_strtod_l+0x57e>
 8009488:	e73e      	b.n	8009308 <_strtod_l+0x7f0>
 800948a:	9904      	ldr	r1, [sp, #16]
 800948c:	4640      	mov	r0, r8
 800948e:	f001 f914 	bl	800a6ba <__ratio>
 8009492:	2200      	movs	r2, #0
 8009494:	f04f 4380 	mov.w	r3, #1073741824	; 0x40000000
 8009498:	4606      	mov	r6, r0
 800949a:	460f      	mov	r7, r1
 800949c:	f7f7 fa98 	bl	80009d0 <__aeabi_dcmple>
 80094a0:	2800      	cmp	r0, #0
 80094a2:	d075      	beq.n	8009590 <_strtod_l+0xa78>
 80094a4:	9b0c      	ldr	r3, [sp, #48]	; 0x30
 80094a6:	2b00      	cmp	r3, #0
 80094a8:	d047      	beq.n	800953a <_strtod_l+0xa22>
 80094aa:	2600      	movs	r6, #0
 80094ac:	4f68      	ldr	r7, [pc, #416]	; (8009650 <_strtod_l+0xb38>)
 80094ae:	4d68      	ldr	r5, [pc, #416]	; (8009650 <_strtod_l+0xb38>)
 80094b0:	9b09      	ldr	r3, [sp, #36]	; 0x24
 80094b2:	f023 4300 	bic.w	r3, r3, #2147483648	; 0x80000000
 80094b6:	0d1b      	lsrs	r3, r3, #20
 80094b8:	051b      	lsls	r3, r3, #20
 80094ba:	930f      	str	r3, [sp, #60]	; 0x3c
 80094bc:	9a0f      	ldr	r2, [sp, #60]	; 0x3c
 80094be:	4b65      	ldr	r3, [pc, #404]	; (8009654 <_strtod_l+0xb3c>)
 80094c0:	429a      	cmp	r2, r3
 80094c2:	f040 80cf 	bne.w	8009664 <_strtod_l+0xb4c>
 80094c6:	e9dd 230a 	ldrd	r2, r3, [sp, #40]	; 0x28
 80094ca:	e9cd 2314 	strd	r2, r3, [sp, #80]	; 0x50
 80094ce:	9b09      	ldr	r3, [sp, #36]	; 0x24
 80094d0:	4648      	mov	r0, r9
 80094d2:	f1a3 7a54 	sub.w	sl, r3, #55574528	; 0x3500000
 80094d6:	4651      	mov	r1, sl
 80094d8:	f001 f82a 	bl	800a530 <__ulp>
 80094dc:	4602      	mov	r2, r0
 80094de:	460b      	mov	r3, r1
 80094e0:	4630      	mov	r0, r6
 80094e2:	4639      	mov	r1, r7
 80094e4:	f7f6 fff8 	bl	80004d8 <__aeabi_dmul>
 80094e8:	464a      	mov	r2, r9
 80094ea:	4653      	mov	r3, sl
 80094ec:	f7f6 fe3e 	bl	800016c <__adddf3>
 80094f0:	460b      	mov	r3, r1
 80094f2:	4954      	ldr	r1, [pc, #336]	; (8009644 <_strtod_l+0xb2c>)
 80094f4:	4a58      	ldr	r2, [pc, #352]	; (8009658 <_strtod_l+0xb40>)
 80094f6:	4019      	ands	r1, r3
 80094f8:	4291      	cmp	r1, r2
 80094fa:	4681      	mov	r9, r0
 80094fc:	d95e      	bls.n	80095bc <_strtod_l+0xaa4>
 80094fe:	9b0b      	ldr	r3, [sp, #44]	; 0x2c
 8009500:	f102 7254 	add.w	r2, r2, #55574528	; 0x3500000
 8009504:	4293      	cmp	r3, r2
 8009506:	d103      	bne.n	8009510 <_strtod_l+0x9f8>
 8009508:	9b0a      	ldr	r3, [sp, #40]	; 0x28
 800950a:	3301      	adds	r3, #1
 800950c:	f43f ad26 	beq.w	8008f5c <_strtod_l+0x444>
 8009510:	f04f 39ff 	mov.w	r9, #4294967295
 8009514:	f8df a130 	ldr.w	sl, [pc, #304]	; 8009648 <_strtod_l+0xb30>
 8009518:	991c      	ldr	r1, [sp, #112]	; 0x70
 800951a:	4658      	mov	r0, fp
 800951c:	f000 fd72 	bl	800a004 <_Bfree>
 8009520:	9906      	ldr	r1, [sp, #24]
 8009522:	4658      	mov	r0, fp
 8009524:	f000 fd6e 	bl	800a004 <_Bfree>
 8009528:	9904      	ldr	r1, [sp, #16]
 800952a:	4658      	mov	r0, fp
 800952c:	f000 fd6a 	bl	800a004 <_Bfree>
 8009530:	4641      	mov	r1, r8
 8009532:	4658      	mov	r0, fp
 8009534:	f000 fd66 	bl	800a004 <_Bfree>
 8009538:	e617      	b.n	800916a <_strtod_l+0x652>
 800953a:	f1b9 0f00 	cmp.w	r9, #0
 800953e:	d119      	bne.n	8009574 <_strtod_l+0xa5c>
 8009540:	9b09      	ldr	r3, [sp, #36]	; 0x24
 8009542:	f3c3 0313 	ubfx	r3, r3, #0, #20
 8009546:	b9e3      	cbnz	r3, 8009582 <_strtod_l+0xa6a>
 8009548:	2200      	movs	r2, #0
 800954a:	4b41      	ldr	r3, [pc, #260]	; (8009650 <_strtod_l+0xb38>)
 800954c:	4630      	mov	r0, r6
 800954e:	4639      	mov	r1, r7
 8009550:	f7f7 fa34 	bl	80009bc <__aeabi_dcmplt>
 8009554:	b9c8      	cbnz	r0, 800958a <_strtod_l+0xa72>
 8009556:	2200      	movs	r2, #0
 8009558:	4b40      	ldr	r3, [pc, #256]	; (800965c <_strtod_l+0xb44>)
 800955a:	4630      	mov	r0, r6
 800955c:	4639      	mov	r1, r7
 800955e:	f7f6 ffbb 	bl	80004d8 <__aeabi_dmul>
 8009562:	4604      	mov	r4, r0
 8009564:	460d      	mov	r5, r1
 8009566:	f105 4300 	add.w	r3, r5, #2147483648	; 0x80000000
 800956a:	9418      	str	r4, [sp, #96]	; 0x60
 800956c:	9319      	str	r3, [sp, #100]	; 0x64
 800956e:	e9dd 6718 	ldrd	r6, r7, [sp, #96]	; 0x60
 8009572:	e79d      	b.n	80094b0 <_strtod_l+0x998>
 8009574:	f1b9 0f01 	cmp.w	r9, #1
 8009578:	d103      	bne.n	8009582 <_strtod_l+0xa6a>
 800957a:	9b09      	ldr	r3, [sp, #36]	; 0x24
 800957c:	2b00      	cmp	r3, #0
 800957e:	f43f ad8a 	beq.w	8009096 <_strtod_l+0x57e>
 8009582:	2600      	movs	r6, #0
 8009584:	4f36      	ldr	r7, [pc, #216]	; (8009660 <_strtod_l+0xb48>)
 8009586:	2400      	movs	r4, #0
 8009588:	e791      	b.n	80094ae <_strtod_l+0x996>
 800958a:	9c0c      	ldr	r4, [sp, #48]	; 0x30
 800958c:	4d33      	ldr	r5, [pc, #204]	; (800965c <_strtod_l+0xb44>)
 800958e:	e7ea      	b.n	8009566 <_strtod_l+0xa4e>
 8009590:	4b32      	ldr	r3, [pc, #200]	; (800965c <_strtod_l+0xb44>)
 8009592:	2200      	movs	r2, #0
 8009594:	4630      	mov	r0, r6
 8009596:	4639      	mov	r1, r7
 8009598:	f7f6 ff9e 	bl	80004d8 <__aeabi_dmul>
 800959c:	9b0c      	ldr	r3, [sp, #48]	; 0x30
 800959e:	4604      	mov	r4, r0
 80095a0:	460d      	mov	r5, r1
 80095a2:	b933      	cbnz	r3, 80095b2 <_strtod_l+0xa9a>
 80095a4:	f101 4300 	add.w	r3, r1, #2147483648	; 0x80000000
 80095a8:	9010      	str	r0, [sp, #64]	; 0x40
 80095aa:	9311      	str	r3, [sp, #68]	; 0x44
 80095ac:	e9dd 6710 	ldrd	r6, r7, [sp, #64]	; 0x40
 80095b0:	e77e      	b.n	80094b0 <_strtod_l+0x998>
 80095b2:	4602      	mov	r2, r0
 80095b4:	460b      	mov	r3, r1
 80095b6:	e9cd 2310 	strd	r2, r3, [sp, #64]	; 0x40
 80095ba:	e7f7      	b.n	80095ac <_strtod_l+0xa94>
 80095bc:	f103 7a54 	add.w	sl, r3, #55574528	; 0x3500000
 80095c0:	9b05      	ldr	r3, [sp, #20]
 80095c2:	2b00      	cmp	r3, #0
 80095c4:	d1a8      	bne.n	8009518 <_strtod_l+0xa00>
 80095c6:	f02a 4300 	bic.w	r3, sl, #2147483648	; 0x80000000
 80095ca:	0d1b      	lsrs	r3, r3, #20
 80095cc:	9a0f      	ldr	r2, [sp, #60]	; 0x3c
 80095ce:	051b      	lsls	r3, r3, #20
 80095d0:	429a      	cmp	r2, r3
 80095d2:	4656      	mov	r6, sl
 80095d4:	d1a0      	bne.n	8009518 <_strtod_l+0xa00>
 80095d6:	4629      	mov	r1, r5
 80095d8:	4620      	mov	r0, r4
 80095da:	f7f7 fa2d 	bl	8000a38 <__aeabi_d2iz>
 80095de:	f7f6 ff11 	bl	8000404 <__aeabi_i2d>
 80095e2:	460b      	mov	r3, r1
 80095e4:	4602      	mov	r2, r0
 80095e6:	4629      	mov	r1, r5
 80095e8:	4620      	mov	r0, r4
 80095ea:	f7f6 fdbd 	bl	8000168 <__aeabi_dsub>
 80095ee:	9b0c      	ldr	r3, [sp, #48]	; 0x30
 80095f0:	4604      	mov	r4, r0
 80095f2:	460d      	mov	r5, r1
 80095f4:	b933      	cbnz	r3, 8009604 <_strtod_l+0xaec>
 80095f6:	f1b9 0f00 	cmp.w	r9, #0
 80095fa:	d103      	bne.n	8009604 <_strtod_l+0xaec>
 80095fc:	f3ca 0613 	ubfx	r6, sl, #0, #20
 8009600:	2e00      	cmp	r6, #0
 8009602:	d06a      	beq.n	80096da <_strtod_l+0xbc2>
 8009604:	a30a      	add	r3, pc, #40	; (adr r3, 8009630 <_strtod_l+0xb18>)
 8009606:	e9d3 2300 	ldrd	r2, r3, [r3]
 800960a:	4620      	mov	r0, r4
 800960c:	4629      	mov	r1, r5
 800960e:	f7f7 f9d5 	bl	80009bc <__aeabi_dcmplt>
 8009612:	2800      	cmp	r0, #0
 8009614:	f47f acad 	bne.w	8008f72 <_strtod_l+0x45a>
 8009618:	a307      	add	r3, pc, #28	; (adr r3, 8009638 <_strtod_l+0xb20>)
 800961a:	e9d3 2300 	ldrd	r2, r3, [r3]
 800961e:	4620      	mov	r0, r4
 8009620:	4629      	mov	r1, r5
 8009622:	f7f7 f9e9 	bl	80009f8 <__aeabi_dcmpgt>
 8009626:	2800      	cmp	r0, #0
 8009628:	f43f af76 	beq.w	8009518 <_strtod_l+0xa00>
 800962c:	e4a1      	b.n	8008f72 <_strtod_l+0x45a>
 800962e:	bf00      	nop
 8009630:	94a03595 	.word	0x94a03595
 8009634:	3fdfffff 	.word	0x3fdfffff
 8009638:	35afe535 	.word	0x35afe535
 800963c:	3fe00000 	.word	0x3fe00000
 8009640:	000fffff 	.word	0x000fffff
 8009644:	7ff00000 	.word	0x7ff00000
 8009648:	7fefffff 	.word	0x7fefffff
 800964c:	39500000 	.word	0x39500000
 8009650:	3ff00000 	.word	0x3ff00000
 8009654:	7fe00000 	.word	0x7fe00000
 8009658:	7c9fffff 	.word	0x7c9fffff
 800965c:	3fe00000 	.word	0x3fe00000
 8009660:	bff00000 	.word	0xbff00000
 8009664:	9b05      	ldr	r3, [sp, #20]
 8009666:	b313      	cbz	r3, 80096ae <_strtod_l+0xb96>
 8009668:	9b0f      	ldr	r3, [sp, #60]	; 0x3c
 800966a:	f1b3 6fd4 	cmp.w	r3, #111149056	; 0x6a00000
 800966e:	d81e      	bhi.n	80096ae <_strtod_l+0xb96>
 8009670:	a325      	add	r3, pc, #148	; (adr r3, 8009708 <_strtod_l+0xbf0>)
 8009672:	e9d3 2300 	ldrd	r2, r3, [r3]
 8009676:	4620      	mov	r0, r4
 8009678:	4629      	mov	r1, r5
 800967a:	f7f7 f9a9 	bl	80009d0 <__aeabi_dcmple>
 800967e:	b190      	cbz	r0, 80096a6 <_strtod_l+0xb8e>
 8009680:	4629      	mov	r1, r5
 8009682:	4620      	mov	r0, r4
 8009684:	f7f7 fa00 	bl	8000a88 <__aeabi_d2uiz>
 8009688:	2800      	cmp	r0, #0
 800968a:	bf08      	it	eq
 800968c:	2001      	moveq	r0, #1
 800968e:	f7f6 fea9 	bl	80003e4 <__aeabi_ui2d>
 8009692:	9b0c      	ldr	r3, [sp, #48]	; 0x30
 8009694:	4604      	mov	r4, r0
 8009696:	460d      	mov	r5, r1
 8009698:	b9d3      	cbnz	r3, 80096d0 <_strtod_l+0xbb8>
 800969a:	f101 4300 	add.w	r3, r1, #2147483648	; 0x80000000
 800969e:	9012      	str	r0, [sp, #72]	; 0x48
 80096a0:	9313      	str	r3, [sp, #76]	; 0x4c
 80096a2:	e9dd 6712 	ldrd	r6, r7, [sp, #72]	; 0x48
 80096a6:	9a0f      	ldr	r2, [sp, #60]	; 0x3c
 80096a8:	f107 63d6 	add.w	r3, r7, #112197632	; 0x6b00000
 80096ac:	1a9f      	subs	r7, r3, r2
 80096ae:	e9dd 010a 	ldrd	r0, r1, [sp, #40]	; 0x28
 80096b2:	f000 ff3d 	bl	800a530 <__ulp>
 80096b6:	4602      	mov	r2, r0
 80096b8:	460b      	mov	r3, r1
 80096ba:	4630      	mov	r0, r6
 80096bc:	4639      	mov	r1, r7
 80096be:	f7f6 ff0b 	bl	80004d8 <__aeabi_dmul>
 80096c2:	e9dd 230a 	ldrd	r2, r3, [sp, #40]	; 0x28
 80096c6:	f7f6 fd51 	bl	800016c <__adddf3>
 80096ca:	4681      	mov	r9, r0
 80096cc:	468a      	mov	sl, r1
 80096ce:	e777      	b.n	80095c0 <_strtod_l+0xaa8>
 80096d0:	4602      	mov	r2, r0
 80096d2:	460b      	mov	r3, r1
 80096d4:	e9cd 2312 	strd	r2, r3, [sp, #72]	; 0x48
 80096d8:	e7e3      	b.n	80096a2 <_strtod_l+0xb8a>
 80096da:	a30d      	add	r3, pc, #52	; (adr r3, 8009710 <_strtod_l+0xbf8>)
 80096dc:	e9d3 2300 	ldrd	r2, r3, [r3]
 80096e0:	f7f7 f96c 	bl	80009bc <__aeabi_dcmplt>
 80096e4:	e79f      	b.n	8009626 <_strtod_l+0xb0e>
 80096e6:	2300      	movs	r3, #0
 80096e8:	930d      	str	r3, [sp, #52]	; 0x34
 80096ea:	9b1b      	ldr	r3, [sp, #108]	; 0x6c
 80096ec:	9a17      	ldr	r2, [sp, #92]	; 0x5c
 80096ee:	6013      	str	r3, [r2, #0]
 80096f0:	f7ff ba55 	b.w	8008b9e <_strtod_l+0x86>
 80096f4:	2b65      	cmp	r3, #101	; 0x65
 80096f6:	f04f 0200 	mov.w	r2, #0
 80096fa:	f43f ab42 	beq.w	8008d82 <_strtod_l+0x26a>
 80096fe:	2101      	movs	r1, #1
 8009700:	4614      	mov	r4, r2
 8009702:	9105      	str	r1, [sp, #20]
 8009704:	f7ff babf 	b.w	8008c86 <_strtod_l+0x16e>
 8009708:	ffc00000 	.word	0xffc00000
 800970c:	41dfffff 	.word	0x41dfffff
 8009710:	94a03595 	.word	0x94a03595
 8009714:	3fcfffff 	.word	0x3fcfffff

08009718 <strtod>:
 8009718:	4b06      	ldr	r3, [pc, #24]	; (8009734 <strtod+0x1c>)
 800971a:	b410      	push	{r4}
 800971c:	681c      	ldr	r4, [r3, #0]
 800971e:	4a06      	ldr	r2, [pc, #24]	; (8009738 <strtod+0x20>)
 8009720:	6a23      	ldr	r3, [r4, #32]
 8009722:	2b00      	cmp	r3, #0
 8009724:	bf08      	it	eq
 8009726:	4613      	moveq	r3, r2
 8009728:	460a      	mov	r2, r1
 800972a:	4601      	mov	r1, r0
 800972c:	4620      	mov	r0, r4
 800972e:	bc10      	pop	{r4}
 8009730:	f7ff b9f2 	b.w	8008b18 <_strtod_l>
 8009734:	200001b4 	.word	0x200001b4
 8009738:	20000218 	.word	0x20000218

0800973c <_strtol_l.isra.0>:
 800973c:	e92d 47f0 	stmdb	sp!, {r4, r5, r6, r7, r8, r9, sl, lr}
 8009740:	4680      	mov	r8, r0
 8009742:	4689      	mov	r9, r1
 8009744:	4692      	mov	sl, r2
 8009746:	461e      	mov	r6, r3
 8009748:	460f      	mov	r7, r1
 800974a:	463d      	mov	r5, r7
 800974c:	9808      	ldr	r0, [sp, #32]
 800974e:	f815 4b01 	ldrb.w	r4, [r5], #1
 8009752:	f000 fbfd 	bl	8009f50 <__locale_ctype_ptr_l>
 8009756:	4420      	add	r0, r4
 8009758:	7843      	ldrb	r3, [r0, #1]
 800975a:	f013 0308 	ands.w	r3, r3, #8
 800975e:	d132      	bne.n	80097c6 <_strtol_l.isra.0+0x8a>
 8009760:	2c2d      	cmp	r4, #45	; 0x2d
 8009762:	d132      	bne.n	80097ca <_strtol_l.isra.0+0x8e>
 8009764:	2201      	movs	r2, #1
 8009766:	787c      	ldrb	r4, [r7, #1]
 8009768:	1cbd      	adds	r5, r7, #2
 800976a:	2e00      	cmp	r6, #0
 800976c:	d05d      	beq.n	800982a <_strtol_l.isra.0+0xee>
 800976e:	2e10      	cmp	r6, #16
 8009770:	d109      	bne.n	8009786 <_strtol_l.isra.0+0x4a>
 8009772:	2c30      	cmp	r4, #48	; 0x30
 8009774:	d107      	bne.n	8009786 <_strtol_l.isra.0+0x4a>
 8009776:	782b      	ldrb	r3, [r5, #0]
 8009778:	f003 03df 	and.w	r3, r3, #223	; 0xdf
 800977c:	2b58      	cmp	r3, #88	; 0x58
 800977e:	d14f      	bne.n	8009820 <_strtol_l.isra.0+0xe4>
 8009780:	2610      	movs	r6, #16
 8009782:	786c      	ldrb	r4, [r5, #1]
 8009784:	3502      	adds	r5, #2
 8009786:	2a00      	cmp	r2, #0
 8009788:	bf14      	ite	ne
 800978a:	f04f 4100 	movne.w	r1, #2147483648	; 0x80000000
 800978e:	f06f 4100 	mvneq.w	r1, #2147483648	; 0x80000000
 8009792:	2700      	movs	r7, #0
 8009794:	fbb1 fcf6 	udiv	ip, r1, r6
 8009798:	4638      	mov	r0, r7
 800979a:	fb06 1e1c 	mls	lr, r6, ip, r1
 800979e:	f1a4 0330 	sub.w	r3, r4, #48	; 0x30
 80097a2:	2b09      	cmp	r3, #9
 80097a4:	d817      	bhi.n	80097d6 <_strtol_l.isra.0+0x9a>
 80097a6:	461c      	mov	r4, r3
 80097a8:	42a6      	cmp	r6, r4
 80097aa:	dd23      	ble.n	80097f4 <_strtol_l.isra.0+0xb8>
 80097ac:	1c7b      	adds	r3, r7, #1
 80097ae:	d007      	beq.n	80097c0 <_strtol_l.isra.0+0x84>
 80097b0:	4584      	cmp	ip, r0
 80097b2:	d31c      	bcc.n	80097ee <_strtol_l.isra.0+0xb2>
 80097b4:	d101      	bne.n	80097ba <_strtol_l.isra.0+0x7e>
 80097b6:	45a6      	cmp	lr, r4
 80097b8:	db19      	blt.n	80097ee <_strtol_l.isra.0+0xb2>
 80097ba:	2701      	movs	r7, #1
 80097bc:	fb00 4006 	mla	r0, r0, r6, r4
 80097c0:	f815 4b01 	ldrb.w	r4, [r5], #1
 80097c4:	e7eb      	b.n	800979e <_strtol_l.isra.0+0x62>
 80097c6:	462f      	mov	r7, r5
 80097c8:	e7bf      	b.n	800974a <_strtol_l.isra.0+0xe>
 80097ca:	2c2b      	cmp	r4, #43	; 0x2b
 80097cc:	bf04      	itt	eq
 80097ce:	1cbd      	addeq	r5, r7, #2
 80097d0:	787c      	ldrbeq	r4, [r7, #1]
 80097d2:	461a      	mov	r2, r3
 80097d4:	e7c9      	b.n	800976a <_strtol_l.isra.0+0x2e>
 80097d6:	f1a4 0341 	sub.w	r3, r4, #65	; 0x41
 80097da:	2b19      	cmp	r3, #25
 80097dc:	d801      	bhi.n	80097e2 <_strtol_l.isra.0+0xa6>
 80097de:	3c37      	subs	r4, #55	; 0x37
 80097e0:	e7e2      	b.n	80097a8 <_strtol_l.isra.0+0x6c>
 80097e2:	f1a4 0361 	sub.w	r3, r4, #97	; 0x61
 80097e6:	2b19      	cmp	r3, #25
 80097e8:	d804      	bhi.n	80097f4 <_strtol_l.isra.0+0xb8>
 80097ea:	3c57      	subs	r4, #87	; 0x57
 80097ec:	e7dc      	b.n	80097a8 <_strtol_l.isra.0+0x6c>
 80097ee:	f04f 37ff 	mov.w	r7, #4294967295
 80097f2:	e7e5      	b.n	80097c0 <_strtol_l.isra.0+0x84>
 80097f4:	1c7b      	adds	r3, r7, #1
 80097f6:	d108      	bne.n	800980a <_strtol_l.isra.0+0xce>
 80097f8:	2322      	movs	r3, #34	; 0x22
 80097fa:	4608      	mov	r0, r1
 80097fc:	f8c8 3000 	str.w	r3, [r8]
 8009800:	f1ba 0f00 	cmp.w	sl, #0
 8009804:	d107      	bne.n	8009816 <_strtol_l.isra.0+0xda>
 8009806:	e8bd 87f0 	ldmia.w	sp!, {r4, r5, r6, r7, r8, r9, sl, pc}
 800980a:	b102      	cbz	r2, 800980e <_strtol_l.isra.0+0xd2>
 800980c:	4240      	negs	r0, r0
 800980e:	f1ba 0f00 	cmp.w	sl, #0
 8009812:	d0f8      	beq.n	8009806 <_strtol_l.isra.0+0xca>
 8009814:	b10f      	cbz	r7, 800981a <_strtol_l.isra.0+0xde>
 8009816:	f105 39ff 	add.w	r9, r5, #4294967295
 800981a:	f8ca 9000 	str.w	r9, [sl]
 800981e:	e7f2      	b.n	8009806 <_strtol_l.isra.0+0xca>
 8009820:	2430      	movs	r4, #48	; 0x30
 8009822:	2e00      	cmp	r6, #0
 8009824:	d1af      	bne.n	8009786 <_strtol_l.isra.0+0x4a>
 8009826:	2608      	movs	r6, #8
 8009828:	e7ad      	b.n	8009786 <_strtol_l.isra.0+0x4a>
 800982a:	2c30      	cmp	r4, #48	; 0x30
 800982c:	d0a3      	beq.n	8009776 <_strtol_l.isra.0+0x3a>
 800982e:	260a      	movs	r6, #10
 8009830:	e7a9      	b.n	8009786 <_strtol_l.isra.0+0x4a>
	...

08009834 <_strtol_r>:
 8009834:	b537      	push	{r0, r1, r2, r4, r5, lr}
 8009836:	4c06      	ldr	r4, [pc, #24]	; (8009850 <_strtol_r+0x1c>)
 8009838:	4d06      	ldr	r5, [pc, #24]	; (8009854 <_strtol_r+0x20>)
 800983a:	6824      	ldr	r4, [r4, #0]
 800983c:	6a24      	ldr	r4, [r4, #32]
 800983e:	2c00      	cmp	r4, #0
 8009840:	bf08      	it	eq
 8009842:	462c      	moveq	r4, r5
 8009844:	9400      	str	r4, [sp, #0]
 8009846:	f7ff ff79 	bl	800973c <_strtol_l.isra.0>
 800984a:	b003      	add	sp, #12
 800984c:	bd30      	pop	{r4, r5, pc}
 800984e:	bf00      	nop
 8009850:	200001b4 	.word	0x200001b4
 8009854:	20000218 	.word	0x20000218

08009858 <strtol>:
 8009858:	4b08      	ldr	r3, [pc, #32]	; (800987c <strtol+0x24>)
 800985a:	b537      	push	{r0, r1, r2, r4, r5, lr}
 800985c:	681c      	ldr	r4, [r3, #0]
 800985e:	4d08      	ldr	r5, [pc, #32]	; (8009880 <strtol+0x28>)
 8009860:	6a23      	ldr	r3, [r4, #32]
 8009862:	2b00      	cmp	r3, #0
 8009864:	bf08      	it	eq
 8009866:	462b      	moveq	r3, r5
 8009868:	9300      	str	r3, [sp, #0]
 800986a:	4613      	mov	r3, r2
 800986c:	460a      	mov	r2, r1
 800986e:	4601      	mov	r1, r0
 8009870:	4620      	mov	r0, r4
 8009872:	f7ff ff63 	bl	800973c <_strtol_l.isra.0>
 8009876:	b003      	add	sp, #12
 8009878:	bd30      	pop	{r4, r5, pc}
 800987a:	bf00      	nop
 800987c:	200001b4 	.word	0x200001b4
 8009880:	20000218 	.word	0x20000218

08009884 <__utoa>:
 8009884:	b5f0      	push	{r4, r5, r6, r7, lr}
 8009886:	b08b      	sub	sp, #44	; 0x2c
 8009888:	4605      	mov	r5, r0
 800988a:	460c      	mov	r4, r1
 800988c:	466e      	mov	r6, sp
 800988e:	4b1b      	ldr	r3, [pc, #108]	; (80098fc <__utoa+0x78>)
 8009890:	f103 0c20 	add.w	ip, r3, #32
 8009894:	4637      	mov	r7, r6
 8009896:	6818      	ldr	r0, [r3, #0]
 8009898:	6859      	ldr	r1, [r3, #4]
 800989a:	3308      	adds	r3, #8
 800989c:	c703      	stmia	r7!, {r0, r1}
 800989e:	4563      	cmp	r3, ip
 80098a0:	463e      	mov	r6, r7
 80098a2:	d1f7      	bne.n	8009894 <__utoa+0x10>
 80098a4:	6818      	ldr	r0, [r3, #0]
 80098a6:	791b      	ldrb	r3, [r3, #4]
 80098a8:	6038      	str	r0, [r7, #0]
 80098aa:	713b      	strb	r3, [r7, #4]
 80098ac:	1e93      	subs	r3, r2, #2
 80098ae:	2b22      	cmp	r3, #34	; 0x22
 80098b0:	f04f 0300 	mov.w	r3, #0
 80098b4:	d904      	bls.n	80098c0 <__utoa+0x3c>
 80098b6:	7023      	strb	r3, [r4, #0]
 80098b8:	461c      	mov	r4, r3
 80098ba:	4620      	mov	r0, r4
 80098bc:	b00b      	add	sp, #44	; 0x2c
 80098be:	bdf0      	pop	{r4, r5, r6, r7, pc}
 80098c0:	1e66      	subs	r6, r4, #1
 80098c2:	fbb5 f0f2 	udiv	r0, r5, r2
 80098c6:	fb02 5510 	mls	r5, r2, r0, r5
 80098ca:	af0a      	add	r7, sp, #40	; 0x28
 80098cc:	443d      	add	r5, r7
 80098ce:	f815 5c28 	ldrb.w	r5, [r5, #-40]
 80098d2:	1c59      	adds	r1, r3, #1
 80098d4:	f806 5f01 	strb.w	r5, [r6, #1]!
 80098d8:	4605      	mov	r5, r0
 80098da:	b968      	cbnz	r0, 80098f8 <__utoa+0x74>
 80098dc:	4622      	mov	r2, r4
 80098de:	5460      	strb	r0, [r4, r1]
 80098e0:	4423      	add	r3, r4
 80098e2:	1b19      	subs	r1, r3, r4
 80098e4:	1b10      	subs	r0, r2, r4
 80098e6:	4281      	cmp	r1, r0
 80098e8:	dde7      	ble.n	80098ba <__utoa+0x36>
 80098ea:	7811      	ldrb	r1, [r2, #0]
 80098ec:	7818      	ldrb	r0, [r3, #0]
 80098ee:	f802 0b01 	strb.w	r0, [r2], #1
 80098f2:	f803 1901 	strb.w	r1, [r3], #-1
 80098f6:	e7f4      	b.n	80098e2 <__utoa+0x5e>
 80098f8:	460b      	mov	r3, r1
 80098fa:	e7e2      	b.n	80098c2 <__utoa+0x3e>
 80098fc:	0800c450 	.word	0x0800c450

08009900 <rshift>:
 8009900:	b5f0      	push	{r4, r5, r6, r7, lr}
 8009902:	6906      	ldr	r6, [r0, #16]
 8009904:	114b      	asrs	r3, r1, #5
 8009906:	429e      	cmp	r6, r3
 8009908:	f100 0414 	add.w	r4, r0, #20
 800990c:	dd31      	ble.n	8009972 <rshift+0x72>
 800990e:	f011 011f 	ands.w	r1, r1, #31
 8009912:	eb04 0686 	add.w	r6, r4, r6, lsl #2
 8009916:	eb04 0283 	add.w	r2, r4, r3, lsl #2
 800991a:	d108      	bne.n	800992e <rshift+0x2e>
 800991c:	4621      	mov	r1, r4
 800991e:	42b2      	cmp	r2, r6
 8009920:	460b      	mov	r3, r1
 8009922:	d211      	bcs.n	8009948 <rshift+0x48>
 8009924:	f852 3b04 	ldr.w	r3, [r2], #4
 8009928:	f841 3b04 	str.w	r3, [r1], #4
 800992c:	e7f7      	b.n	800991e <rshift+0x1e>
 800992e:	f854 5023 	ldr.w	r5, [r4, r3, lsl #2]
 8009932:	4623      	mov	r3, r4
 8009934:	f1c1 0c20 	rsb	ip, r1, #32
 8009938:	40cd      	lsrs	r5, r1
 800993a:	3204      	adds	r2, #4
 800993c:	42b2      	cmp	r2, r6
 800993e:	4617      	mov	r7, r2
 8009940:	d30d      	bcc.n	800995e <rshift+0x5e>
 8009942:	601d      	str	r5, [r3, #0]
 8009944:	b105      	cbz	r5, 8009948 <rshift+0x48>
 8009946:	3304      	adds	r3, #4
 8009948:	42a3      	cmp	r3, r4
 800994a:	eba3 0204 	sub.w	r2, r3, r4
 800994e:	bf08      	it	eq
 8009950:	2300      	moveq	r3, #0
 8009952:	ea4f 02a2 	mov.w	r2, r2, asr #2
 8009956:	6102      	str	r2, [r0, #16]
 8009958:	bf08      	it	eq
 800995a:	6143      	streq	r3, [r0, #20]
 800995c:	bdf0      	pop	{r4, r5, r6, r7, pc}
 800995e:	683f      	ldr	r7, [r7, #0]
 8009960:	fa07 f70c 	lsl.w	r7, r7, ip
 8009964:	433d      	orrs	r5, r7
 8009966:	f843 5b04 	str.w	r5, [r3], #4
 800996a:	f852 5b04 	ldr.w	r5, [r2], #4
 800996e:	40cd      	lsrs	r5, r1
 8009970:	e7e4      	b.n	800993c <rshift+0x3c>
 8009972:	4623      	mov	r3, r4
 8009974:	e7e8      	b.n	8009948 <rshift+0x48>

08009976 <__hexdig_fun>:
 8009976:	f1a0 0330 	sub.w	r3, r0, #48	; 0x30
 800997a:	2b09      	cmp	r3, #9
 800997c:	d802      	bhi.n	8009984 <__hexdig_fun+0xe>
 800997e:	3820      	subs	r0, #32
 8009980:	b2c0      	uxtb	r0, r0
 8009982:	4770      	bx	lr
 8009984:	f1a0 0361 	sub.w	r3, r0, #97	; 0x61
 8009988:	2b05      	cmp	r3, #5
 800998a:	d801      	bhi.n	8009990 <__hexdig_fun+0x1a>
 800998c:	3847      	subs	r0, #71	; 0x47
 800998e:	e7f7      	b.n	8009980 <__hexdig_fun+0xa>
 8009990:	f1a0 0341 	sub.w	r3, r0, #65	; 0x41
 8009994:	2b05      	cmp	r3, #5
 8009996:	d801      	bhi.n	800999c <__hexdig_fun+0x26>
 8009998:	3827      	subs	r0, #39	; 0x27
 800999a:	e7f1      	b.n	8009980 <__hexdig_fun+0xa>
 800999c:	2000      	movs	r0, #0
 800999e:	4770      	bx	lr

080099a0 <__gethex>:
 80099a0:	e92d 4ff0 	stmdb	sp!, {r4, r5, r6, r7, r8, r9, sl, fp, lr}
 80099a4:	b08b      	sub	sp, #44	; 0x2c
 80099a6:	9002      	str	r0, [sp, #8]
 80099a8:	9816      	ldr	r0, [sp, #88]	; 0x58
 80099aa:	468a      	mov	sl, r1
 80099ac:	4690      	mov	r8, r2
 80099ae:	9306      	str	r3, [sp, #24]
 80099b0:	f000 fae0 	bl	8009f74 <__localeconv_l>
 80099b4:	6803      	ldr	r3, [r0, #0]
 80099b6:	f04f 0b00 	mov.w	fp, #0
 80099ba:	4618      	mov	r0, r3
 80099bc:	9303      	str	r3, [sp, #12]
 80099be:	f7f6 fbc7 	bl	8000150 <strlen>
 80099c2:	9b03      	ldr	r3, [sp, #12]
 80099c4:	9001      	str	r0, [sp, #4]
 80099c6:	4403      	add	r3, r0
 80099c8:	f813 3c01 	ldrb.w	r3, [r3, #-1]
 80099cc:	9307      	str	r3, [sp, #28]
 80099ce:	f8da 3000 	ldr.w	r3, [sl]
 80099d2:	3302      	adds	r3, #2
 80099d4:	461f      	mov	r7, r3
 80099d6:	f813 0b01 	ldrb.w	r0, [r3], #1
 80099da:	2830      	cmp	r0, #48	; 0x30
 80099dc:	d06c      	beq.n	8009ab8 <__gethex+0x118>
 80099de:	f7ff ffca 	bl	8009976 <__hexdig_fun>
 80099e2:	4604      	mov	r4, r0
 80099e4:	2800      	cmp	r0, #0
 80099e6:	d16a      	bne.n	8009abe <__gethex+0x11e>
 80099e8:	9a01      	ldr	r2, [sp, #4]
 80099ea:	9903      	ldr	r1, [sp, #12]
 80099ec:	4638      	mov	r0, r7
 80099ee:	f001 fa78 	bl	800aee2 <strncmp>
 80099f2:	2800      	cmp	r0, #0
 80099f4:	d166      	bne.n	8009ac4 <__gethex+0x124>
 80099f6:	9b01      	ldr	r3, [sp, #4]
 80099f8:	5cf8      	ldrb	r0, [r7, r3]
 80099fa:	18fe      	adds	r6, r7, r3
 80099fc:	f7ff ffbb 	bl	8009976 <__hexdig_fun>
 8009a00:	2800      	cmp	r0, #0
 8009a02:	d062      	beq.n	8009aca <__gethex+0x12a>
 8009a04:	4633      	mov	r3, r6
 8009a06:	7818      	ldrb	r0, [r3, #0]
 8009a08:	461f      	mov	r7, r3
 8009a0a:	2830      	cmp	r0, #48	; 0x30
 8009a0c:	f103 0301 	add.w	r3, r3, #1
 8009a10:	d0f9      	beq.n	8009a06 <__gethex+0x66>
 8009a12:	f7ff ffb0 	bl	8009976 <__hexdig_fun>
 8009a16:	fab0 f580 	clz	r5, r0
 8009a1a:	4634      	mov	r4, r6
 8009a1c:	f04f 0b01 	mov.w	fp, #1
 8009a20:	096d      	lsrs	r5, r5, #5
 8009a22:	463a      	mov	r2, r7
 8009a24:	4616      	mov	r6, r2
 8009a26:	7830      	ldrb	r0, [r6, #0]
 8009a28:	3201      	adds	r2, #1
 8009a2a:	f7ff ffa4 	bl	8009976 <__hexdig_fun>
 8009a2e:	2800      	cmp	r0, #0
 8009a30:	d1f8      	bne.n	8009a24 <__gethex+0x84>
 8009a32:	9a01      	ldr	r2, [sp, #4]
 8009a34:	9903      	ldr	r1, [sp, #12]
 8009a36:	4630      	mov	r0, r6
 8009a38:	f001 fa53 	bl	800aee2 <strncmp>
 8009a3c:	b950      	cbnz	r0, 8009a54 <__gethex+0xb4>
 8009a3e:	b954      	cbnz	r4, 8009a56 <__gethex+0xb6>
 8009a40:	9b01      	ldr	r3, [sp, #4]
 8009a42:	18f4      	adds	r4, r6, r3
 8009a44:	4622      	mov	r2, r4
 8009a46:	4616      	mov	r6, r2
 8009a48:	7830      	ldrb	r0, [r6, #0]
 8009a4a:	3201      	adds	r2, #1
 8009a4c:	f7ff ff93 	bl	8009976 <__hexdig_fun>
 8009a50:	2800      	cmp	r0, #0
 8009a52:	d1f8      	bne.n	8009a46 <__gethex+0xa6>
 8009a54:	b10c      	cbz	r4, 8009a5a <__gethex+0xba>
 8009a56:	1ba4      	subs	r4, r4, r6
 8009a58:	00a4      	lsls	r4, r4, #2
 8009a5a:	7833      	ldrb	r3, [r6, #0]
 8009a5c:	2b50      	cmp	r3, #80	; 0x50
 8009a5e:	d001      	beq.n	8009a64 <__gethex+0xc4>
 8009a60:	2b70      	cmp	r3, #112	; 0x70
 8009a62:	d140      	bne.n	8009ae6 <__gethex+0x146>
 8009a64:	7873      	ldrb	r3, [r6, #1]
 8009a66:	2b2b      	cmp	r3, #43	; 0x2b
 8009a68:	d031      	beq.n	8009ace <__gethex+0x12e>
 8009a6a:	2b2d      	cmp	r3, #45	; 0x2d
 8009a6c:	d033      	beq.n	8009ad6 <__gethex+0x136>
 8009a6e:	f04f 0900 	mov.w	r9, #0
 8009a72:	1c71      	adds	r1, r6, #1
 8009a74:	7808      	ldrb	r0, [r1, #0]
 8009a76:	f7ff ff7e 	bl	8009976 <__hexdig_fun>
 8009a7a:	1e43      	subs	r3, r0, #1
 8009a7c:	b2db      	uxtb	r3, r3
 8009a7e:	2b18      	cmp	r3, #24
 8009a80:	d831      	bhi.n	8009ae6 <__gethex+0x146>
 8009a82:	f1a0 0210 	sub.w	r2, r0, #16
 8009a86:	f811 0f01 	ldrb.w	r0, [r1, #1]!
 8009a8a:	f7ff ff74 	bl	8009976 <__hexdig_fun>
 8009a8e:	1e43      	subs	r3, r0, #1
 8009a90:	b2db      	uxtb	r3, r3
 8009a92:	2b18      	cmp	r3, #24
 8009a94:	d922      	bls.n	8009adc <__gethex+0x13c>
 8009a96:	f1b9 0f00 	cmp.w	r9, #0
 8009a9a:	d000      	beq.n	8009a9e <__gethex+0xfe>
 8009a9c:	4252      	negs	r2, r2
 8009a9e:	4414      	add	r4, r2
 8009aa0:	f8ca 1000 	str.w	r1, [sl]
 8009aa4:	b30d      	cbz	r5, 8009aea <__gethex+0x14a>
 8009aa6:	f1bb 0f00 	cmp.w	fp, #0
 8009aaa:	bf0c      	ite	eq
 8009aac:	2706      	moveq	r7, #6
 8009aae:	2700      	movne	r7, #0
 8009ab0:	4638      	mov	r0, r7
 8009ab2:	b00b      	add	sp, #44	; 0x2c
 8009ab4:	e8bd 8ff0 	ldmia.w	sp!, {r4, r5, r6, r7, r8, r9, sl, fp, pc}
 8009ab8:	f10b 0b01 	add.w	fp, fp, #1
 8009abc:	e78a      	b.n	80099d4 <__gethex+0x34>
 8009abe:	2500      	movs	r5, #0
 8009ac0:	462c      	mov	r4, r5
 8009ac2:	e7ae      	b.n	8009a22 <__gethex+0x82>
 8009ac4:	463e      	mov	r6, r7
 8009ac6:	2501      	movs	r5, #1
 8009ac8:	e7c7      	b.n	8009a5a <__gethex+0xba>
 8009aca:	4604      	mov	r4, r0
 8009acc:	e7fb      	b.n	8009ac6 <__gethex+0x126>
 8009ace:	f04f 0900 	mov.w	r9, #0
 8009ad2:	1cb1      	adds	r1, r6, #2
 8009ad4:	e7ce      	b.n	8009a74 <__gethex+0xd4>
 8009ad6:	f04f 0901 	mov.w	r9, #1
 8009ada:	e7fa      	b.n	8009ad2 <__gethex+0x132>
 8009adc:	230a      	movs	r3, #10
 8009ade:	fb03 0202 	mla	r2, r3, r2, r0
 8009ae2:	3a10      	subs	r2, #16
 8009ae4:	e7cf      	b.n	8009a86 <__gethex+0xe6>
 8009ae6:	4631      	mov	r1, r6
 8009ae8:	e7da      	b.n	8009aa0 <__gethex+0x100>
 8009aea:	4629      	mov	r1, r5
 8009aec:	1bf3      	subs	r3, r6, r7
 8009aee:	3b01      	subs	r3, #1
 8009af0:	2b07      	cmp	r3, #7
 8009af2:	dc49      	bgt.n	8009b88 <__gethex+0x1e8>
 8009af4:	9802      	ldr	r0, [sp, #8]
 8009af6:	f000 fa51 	bl	8009f9c <_Balloc>
 8009afa:	f04f 0b00 	mov.w	fp, #0
 8009afe:	4605      	mov	r5, r0
 8009b00:	46da      	mov	sl, fp
 8009b02:	9b01      	ldr	r3, [sp, #4]
 8009b04:	f100 0914 	add.w	r9, r0, #20
 8009b08:	f1c3 0301 	rsb	r3, r3, #1
 8009b0c:	f8cd 9010 	str.w	r9, [sp, #16]
 8009b10:	9308      	str	r3, [sp, #32]
 8009b12:	42b7      	cmp	r7, r6
 8009b14:	d33b      	bcc.n	8009b8e <__gethex+0x1ee>
 8009b16:	9804      	ldr	r0, [sp, #16]
 8009b18:	f840 ab04 	str.w	sl, [r0], #4
 8009b1c:	eba0 0009 	sub.w	r0, r0, r9
 8009b20:	1080      	asrs	r0, r0, #2
 8009b22:	6128      	str	r0, [r5, #16]
 8009b24:	0147      	lsls	r7, r0, #5
 8009b26:	4650      	mov	r0, sl
 8009b28:	f000 fafc 	bl	800a124 <__hi0bits>
 8009b2c:	f8d8 6000 	ldr.w	r6, [r8]
 8009b30:	1a3f      	subs	r7, r7, r0
 8009b32:	42b7      	cmp	r7, r6
 8009b34:	dd64      	ble.n	8009c00 <__gethex+0x260>
 8009b36:	1bbf      	subs	r7, r7, r6
 8009b38:	4639      	mov	r1, r7
 8009b3a:	4628      	mov	r0, r5
 8009b3c:	f000 fe05 	bl	800a74a <__any_on>
 8009b40:	4682      	mov	sl, r0
 8009b42:	b178      	cbz	r0, 8009b64 <__gethex+0x1c4>
 8009b44:	f04f 0a01 	mov.w	sl, #1
 8009b48:	1e7b      	subs	r3, r7, #1
 8009b4a:	1159      	asrs	r1, r3, #5
 8009b4c:	f003 021f 	and.w	r2, r3, #31
 8009b50:	f859 1021 	ldr.w	r1, [r9, r1, lsl #2]
 8009b54:	fa0a f202 	lsl.w	r2, sl, r2
 8009b58:	420a      	tst	r2, r1
 8009b5a:	d003      	beq.n	8009b64 <__gethex+0x1c4>
 8009b5c:	4553      	cmp	r3, sl
 8009b5e:	dc46      	bgt.n	8009bee <__gethex+0x24e>
 8009b60:	f04f 0a02 	mov.w	sl, #2
 8009b64:	4639      	mov	r1, r7
 8009b66:	4628      	mov	r0, r5
 8009b68:	f7ff feca 	bl	8009900 <rshift>
 8009b6c:	443c      	add	r4, r7
 8009b6e:	f8d8 3008 	ldr.w	r3, [r8, #8]
 8009b72:	42a3      	cmp	r3, r4
 8009b74:	da52      	bge.n	8009c1c <__gethex+0x27c>
 8009b76:	4629      	mov	r1, r5
 8009b78:	9802      	ldr	r0, [sp, #8]
 8009b7a:	f000 fa43 	bl	800a004 <_Bfree>
 8009b7e:	2300      	movs	r3, #0
 8009b80:	9a14      	ldr	r2, [sp, #80]	; 0x50
 8009b82:	27a3      	movs	r7, #163	; 0xa3
 8009b84:	6013      	str	r3, [r2, #0]
 8009b86:	e793      	b.n	8009ab0 <__gethex+0x110>
 8009b88:	3101      	adds	r1, #1
 8009b8a:	105b      	asrs	r3, r3, #1
 8009b8c:	e7b0      	b.n	8009af0 <__gethex+0x150>
 8009b8e:	1e73      	subs	r3, r6, #1
 8009b90:	9305      	str	r3, [sp, #20]
 8009b92:	9a07      	ldr	r2, [sp, #28]
 8009b94:	f816 3c01 	ldrb.w	r3, [r6, #-1]
 8009b98:	4293      	cmp	r3, r2
 8009b9a:	d018      	beq.n	8009bce <__gethex+0x22e>
 8009b9c:	f1bb 0f20 	cmp.w	fp, #32
 8009ba0:	d107      	bne.n	8009bb2 <__gethex+0x212>
 8009ba2:	9b04      	ldr	r3, [sp, #16]
 8009ba4:	f8c3 a000 	str.w	sl, [r3]
 8009ba8:	f04f 0a00 	mov.w	sl, #0
 8009bac:	46d3      	mov	fp, sl
 8009bae:	3304      	adds	r3, #4
 8009bb0:	9304      	str	r3, [sp, #16]
 8009bb2:	f816 0c01 	ldrb.w	r0, [r6, #-1]
 8009bb6:	f7ff fede 	bl	8009976 <__hexdig_fun>
 8009bba:	f000 000f 	and.w	r0, r0, #15
 8009bbe:	fa00 f00b 	lsl.w	r0, r0, fp
 8009bc2:	ea4a 0a00 	orr.w	sl, sl, r0
 8009bc6:	f10b 0b04 	add.w	fp, fp, #4
 8009bca:	9b05      	ldr	r3, [sp, #20]
 8009bcc:	e00d      	b.n	8009bea <__gethex+0x24a>
 8009bce:	9b05      	ldr	r3, [sp, #20]
 8009bd0:	9a08      	ldr	r2, [sp, #32]
 8009bd2:	4413      	add	r3, r2
 8009bd4:	42bb      	cmp	r3, r7
 8009bd6:	d3e1      	bcc.n	8009b9c <__gethex+0x1fc>
 8009bd8:	4618      	mov	r0, r3
 8009bda:	9a01      	ldr	r2, [sp, #4]
 8009bdc:	9903      	ldr	r1, [sp, #12]
 8009bde:	9309      	str	r3, [sp, #36]	; 0x24
 8009be0:	f001 f97f 	bl	800aee2 <strncmp>
 8009be4:	9b09      	ldr	r3, [sp, #36]	; 0x24
 8009be6:	2800      	cmp	r0, #0
 8009be8:	d1d8      	bne.n	8009b9c <__gethex+0x1fc>
 8009bea:	461e      	mov	r6, r3
 8009bec:	e791      	b.n	8009b12 <__gethex+0x172>
 8009bee:	1eb9      	subs	r1, r7, #2
 8009bf0:	4628      	mov	r0, r5
 8009bf2:	f000 fdaa 	bl	800a74a <__any_on>
 8009bf6:	2800      	cmp	r0, #0
 8009bf8:	d0b2      	beq.n	8009b60 <__gethex+0x1c0>
 8009bfa:	f04f 0a03 	mov.w	sl, #3
 8009bfe:	e7b1      	b.n	8009b64 <__gethex+0x1c4>
 8009c00:	da09      	bge.n	8009c16 <__gethex+0x276>
 8009c02:	1bf7      	subs	r7, r6, r7
 8009c04:	4629      	mov	r1, r5
 8009c06:	463a      	mov	r2, r7
 8009c08:	9802      	ldr	r0, [sp, #8]
 8009c0a:	f000 fbc5 	bl	800a398 <__lshift>
 8009c0e:	4605      	mov	r5, r0
 8009c10:	1be4      	subs	r4, r4, r7
 8009c12:	f100 0914 	add.w	r9, r0, #20
 8009c16:	f04f 0a00 	mov.w	sl, #0
 8009c1a:	e7a8      	b.n	8009b6e <__gethex+0x1ce>
 8009c1c:	f8d8 0004 	ldr.w	r0, [r8, #4]
 8009c20:	42a0      	cmp	r0, r4
 8009c22:	dd6b      	ble.n	8009cfc <__gethex+0x35c>
 8009c24:	1b04      	subs	r4, r0, r4
 8009c26:	42a6      	cmp	r6, r4
 8009c28:	dc2e      	bgt.n	8009c88 <__gethex+0x2e8>
 8009c2a:	f8d8 300c 	ldr.w	r3, [r8, #12]
 8009c2e:	2b02      	cmp	r3, #2
 8009c30:	d022      	beq.n	8009c78 <__gethex+0x2d8>
 8009c32:	2b03      	cmp	r3, #3
 8009c34:	d024      	beq.n	8009c80 <__gethex+0x2e0>
 8009c36:	2b01      	cmp	r3, #1
 8009c38:	d115      	bne.n	8009c66 <__gethex+0x2c6>
 8009c3a:	42a6      	cmp	r6, r4
 8009c3c:	d113      	bne.n	8009c66 <__gethex+0x2c6>
 8009c3e:	2e01      	cmp	r6, #1
 8009c40:	dc0b      	bgt.n	8009c5a <__gethex+0x2ba>
 8009c42:	f8d8 3004 	ldr.w	r3, [r8, #4]
 8009c46:	9a06      	ldr	r2, [sp, #24]
 8009c48:	2762      	movs	r7, #98	; 0x62
 8009c4a:	6013      	str	r3, [r2, #0]
 8009c4c:	2301      	movs	r3, #1
 8009c4e:	612b      	str	r3, [r5, #16]
 8009c50:	f8c9 3000 	str.w	r3, [r9]
 8009c54:	9b14      	ldr	r3, [sp, #80]	; 0x50
 8009c56:	601d      	str	r5, [r3, #0]
 8009c58:	e72a      	b.n	8009ab0 <__gethex+0x110>
 8009c5a:	1e71      	subs	r1, r6, #1
 8009c5c:	4628      	mov	r0, r5
 8009c5e:	f000 fd74 	bl	800a74a <__any_on>
 8009c62:	2800      	cmp	r0, #0
 8009c64:	d1ed      	bne.n	8009c42 <__gethex+0x2a2>
 8009c66:	4629      	mov	r1, r5
 8009c68:	9802      	ldr	r0, [sp, #8]
 8009c6a:	f000 f9cb 	bl	800a004 <_Bfree>
 8009c6e:	2300      	movs	r3, #0
 8009c70:	9a14      	ldr	r2, [sp, #80]	; 0x50
 8009c72:	2750      	movs	r7, #80	; 0x50
 8009c74:	6013      	str	r3, [r2, #0]
 8009c76:	e71b      	b.n	8009ab0 <__gethex+0x110>
 8009c78:	9b15      	ldr	r3, [sp, #84]	; 0x54
 8009c7a:	2b00      	cmp	r3, #0
 8009c7c:	d0e1      	beq.n	8009c42 <__gethex+0x2a2>
 8009c7e:	e7f2      	b.n	8009c66 <__gethex+0x2c6>
 8009c80:	9b15      	ldr	r3, [sp, #84]	; 0x54
 8009c82:	2b00      	cmp	r3, #0
 8009c84:	d1dd      	bne.n	8009c42 <__gethex+0x2a2>
 8009c86:	e7ee      	b.n	8009c66 <__gethex+0x2c6>
 8009c88:	1e67      	subs	r7, r4, #1
 8009c8a:	f1ba 0f00 	cmp.w	sl, #0
 8009c8e:	d132      	bne.n	8009cf6 <__gethex+0x356>
 8009c90:	b127      	cbz	r7, 8009c9c <__gethex+0x2fc>
 8009c92:	4639      	mov	r1, r7
 8009c94:	4628      	mov	r0, r5
 8009c96:	f000 fd58 	bl	800a74a <__any_on>
 8009c9a:	4682      	mov	sl, r0
 8009c9c:	2301      	movs	r3, #1
 8009c9e:	117a      	asrs	r2, r7, #5
 8009ca0:	f007 071f 	and.w	r7, r7, #31
 8009ca4:	fa03 f707 	lsl.w	r7, r3, r7
 8009ca8:	f859 3022 	ldr.w	r3, [r9, r2, lsl #2]
 8009cac:	4621      	mov	r1, r4
 8009cae:	421f      	tst	r7, r3
 8009cb0:	f04f 0702 	mov.w	r7, #2
 8009cb4:	4628      	mov	r0, r5
 8009cb6:	bf18      	it	ne
 8009cb8:	f04a 0a02 	orrne.w	sl, sl, #2
 8009cbc:	1b36      	subs	r6, r6, r4
 8009cbe:	f7ff fe1f 	bl	8009900 <rshift>
 8009cc2:	f8d8 4004 	ldr.w	r4, [r8, #4]
 8009cc6:	f1ba 0f00 	cmp.w	sl, #0
 8009cca:	d048      	beq.n	8009d5e <__gethex+0x3be>
 8009ccc:	f8d8 300c 	ldr.w	r3, [r8, #12]
 8009cd0:	2b02      	cmp	r3, #2
 8009cd2:	d015      	beq.n	8009d00 <__gethex+0x360>
 8009cd4:	2b03      	cmp	r3, #3
 8009cd6:	d017      	beq.n	8009d08 <__gethex+0x368>
 8009cd8:	2b01      	cmp	r3, #1
 8009cda:	d109      	bne.n	8009cf0 <__gethex+0x350>
 8009cdc:	f01a 0f02 	tst.w	sl, #2
 8009ce0:	d006      	beq.n	8009cf0 <__gethex+0x350>
 8009ce2:	f8d9 3000 	ldr.w	r3, [r9]
 8009ce6:	ea4a 0a03 	orr.w	sl, sl, r3
 8009cea:	f01a 0f01 	tst.w	sl, #1
 8009cee:	d10e      	bne.n	8009d0e <__gethex+0x36e>
 8009cf0:	f047 0710 	orr.w	r7, r7, #16
 8009cf4:	e033      	b.n	8009d5e <__gethex+0x3be>
 8009cf6:	f04f 0a01 	mov.w	sl, #1
 8009cfa:	e7cf      	b.n	8009c9c <__gethex+0x2fc>
 8009cfc:	2701      	movs	r7, #1
 8009cfe:	e7e2      	b.n	8009cc6 <__gethex+0x326>
 8009d00:	9b15      	ldr	r3, [sp, #84]	; 0x54
 8009d02:	f1c3 0301 	rsb	r3, r3, #1
 8009d06:	9315      	str	r3, [sp, #84]	; 0x54
 8009d08:	9b15      	ldr	r3, [sp, #84]	; 0x54
 8009d0a:	2b00      	cmp	r3, #0
 8009d0c:	d0f0      	beq.n	8009cf0 <__gethex+0x350>
 8009d0e:	f04f 0c00 	mov.w	ip, #0
 8009d12:	f8d5 9010 	ldr.w	r9, [r5, #16]
 8009d16:	f105 0314 	add.w	r3, r5, #20
 8009d1a:	ea4f 0a89 	mov.w	sl, r9, lsl #2
 8009d1e:	eb03 010a 	add.w	r1, r3, sl
 8009d22:	4618      	mov	r0, r3
 8009d24:	f853 2b04 	ldr.w	r2, [r3], #4
 8009d28:	f1b2 3fff 	cmp.w	r2, #4294967295
 8009d2c:	d01c      	beq.n	8009d68 <__gethex+0x3c8>
 8009d2e:	3201      	adds	r2, #1
 8009d30:	6002      	str	r2, [r0, #0]
 8009d32:	2f02      	cmp	r7, #2
 8009d34:	f105 0314 	add.w	r3, r5, #20
 8009d38:	d138      	bne.n	8009dac <__gethex+0x40c>
 8009d3a:	f8d8 2000 	ldr.w	r2, [r8]
 8009d3e:	3a01      	subs	r2, #1
 8009d40:	42b2      	cmp	r2, r6
 8009d42:	d10a      	bne.n	8009d5a <__gethex+0x3ba>
 8009d44:	2201      	movs	r2, #1
 8009d46:	1171      	asrs	r1, r6, #5
 8009d48:	f853 3021 	ldr.w	r3, [r3, r1, lsl #2]
 8009d4c:	f006 061f 	and.w	r6, r6, #31
 8009d50:	fa02 f606 	lsl.w	r6, r2, r6
 8009d54:	421e      	tst	r6, r3
 8009d56:	bf18      	it	ne
 8009d58:	4617      	movne	r7, r2
 8009d5a:	f047 0720 	orr.w	r7, r7, #32
 8009d5e:	9b14      	ldr	r3, [sp, #80]	; 0x50
 8009d60:	601d      	str	r5, [r3, #0]
 8009d62:	9b06      	ldr	r3, [sp, #24]
 8009d64:	601c      	str	r4, [r3, #0]
 8009d66:	e6a3      	b.n	8009ab0 <__gethex+0x110>
 8009d68:	4299      	cmp	r1, r3
 8009d6a:	f843 cc04 	str.w	ip, [r3, #-4]
 8009d6e:	d8d8      	bhi.n	8009d22 <__gethex+0x382>
 8009d70:	68ab      	ldr	r3, [r5, #8]
 8009d72:	4599      	cmp	r9, r3
 8009d74:	db12      	blt.n	8009d9c <__gethex+0x3fc>
 8009d76:	6869      	ldr	r1, [r5, #4]
 8009d78:	9802      	ldr	r0, [sp, #8]
 8009d7a:	3101      	adds	r1, #1
 8009d7c:	f000 f90e 	bl	8009f9c <_Balloc>
 8009d80:	4683      	mov	fp, r0
 8009d82:	692a      	ldr	r2, [r5, #16]
 8009d84:	f105 010c 	add.w	r1, r5, #12
 8009d88:	3202      	adds	r2, #2
 8009d8a:	0092      	lsls	r2, r2, #2
 8009d8c:	300c      	adds	r0, #12
 8009d8e:	f7fe fe38 	bl	8008a02 <memcpy>
 8009d92:	4629      	mov	r1, r5
 8009d94:	9802      	ldr	r0, [sp, #8]
 8009d96:	f000 f935 	bl	800a004 <_Bfree>
 8009d9a:	465d      	mov	r5, fp
 8009d9c:	692b      	ldr	r3, [r5, #16]
 8009d9e:	1c5a      	adds	r2, r3, #1
 8009da0:	612a      	str	r2, [r5, #16]
 8009da2:	2201      	movs	r2, #1
 8009da4:	eb05 0383 	add.w	r3, r5, r3, lsl #2
 8009da8:	615a      	str	r2, [r3, #20]
 8009daa:	e7c2      	b.n	8009d32 <__gethex+0x392>
 8009dac:	692a      	ldr	r2, [r5, #16]
 8009dae:	454a      	cmp	r2, r9
 8009db0:	dd0b      	ble.n	8009dca <__gethex+0x42a>
 8009db2:	2101      	movs	r1, #1
 8009db4:	4628      	mov	r0, r5
 8009db6:	f7ff fda3 	bl	8009900 <rshift>
 8009dba:	f8d8 3008 	ldr.w	r3, [r8, #8]
 8009dbe:	3401      	adds	r4, #1
 8009dc0:	42a3      	cmp	r3, r4
 8009dc2:	f6ff aed8 	blt.w	8009b76 <__gethex+0x1d6>
 8009dc6:	2701      	movs	r7, #1
 8009dc8:	e7c7      	b.n	8009d5a <__gethex+0x3ba>
 8009dca:	f016 061f 	ands.w	r6, r6, #31
 8009dce:	d0fa      	beq.n	8009dc6 <__gethex+0x426>
 8009dd0:	449a      	add	sl, r3
 8009dd2:	f85a 0c04 	ldr.w	r0, [sl, #-4]
 8009dd6:	f000 f9a5 	bl	800a124 <__hi0bits>
 8009dda:	f1c6 0620 	rsb	r6, r6, #32
 8009dde:	42b0      	cmp	r0, r6
 8009de0:	dbe7      	blt.n	8009db2 <__gethex+0x412>
 8009de2:	e7f0      	b.n	8009dc6 <__gethex+0x426>

08009de4 <L_shift>:
 8009de4:	f1c2 0208 	rsb	r2, r2, #8
 8009de8:	0092      	lsls	r2, r2, #2
 8009dea:	b570      	push	{r4, r5, r6, lr}
 8009dec:	f1c2 0620 	rsb	r6, r2, #32
 8009df0:	6843      	ldr	r3, [r0, #4]
 8009df2:	6804      	ldr	r4, [r0, #0]
 8009df4:	fa03 f506 	lsl.w	r5, r3, r6
 8009df8:	432c      	orrs	r4, r5
 8009dfa:	40d3      	lsrs	r3, r2
 8009dfc:	6004      	str	r4, [r0, #0]
 8009dfe:	f840 3f04 	str.w	r3, [r0, #4]!
 8009e02:	4288      	cmp	r0, r1
 8009e04:	d3f4      	bcc.n	8009df0 <L_shift+0xc>
 8009e06:	bd70      	pop	{r4, r5, r6, pc}

08009e08 <__match>:
 8009e08:	b530      	push	{r4, r5, lr}
 8009e0a:	6803      	ldr	r3, [r0, #0]
 8009e0c:	3301      	adds	r3, #1
 8009e0e:	f811 4b01 	ldrb.w	r4, [r1], #1
 8009e12:	b914      	cbnz	r4, 8009e1a <__match+0x12>
 8009e14:	6003      	str	r3, [r0, #0]
 8009e16:	2001      	movs	r0, #1
 8009e18:	bd30      	pop	{r4, r5, pc}
 8009e1a:	f813 2b01 	ldrb.w	r2, [r3], #1
 8009e1e:	f1a2 0541 	sub.w	r5, r2, #65	; 0x41
 8009e22:	2d19      	cmp	r5, #25
 8009e24:	bf98      	it	ls
 8009e26:	3220      	addls	r2, #32
 8009e28:	42a2      	cmp	r2, r4
 8009e2a:	d0f0      	beq.n	8009e0e <__match+0x6>
 8009e2c:	2000      	movs	r0, #0
 8009e2e:	e7f3      	b.n	8009e18 <__match+0x10>

08009e30 <__hexnan>:
 8009e30:	e92d 4ff0 	stmdb	sp!, {r4, r5, r6, r7, r8, r9, sl, fp, lr}
 8009e34:	2500      	movs	r5, #0
 8009e36:	680b      	ldr	r3, [r1, #0]
 8009e38:	4682      	mov	sl, r0
 8009e3a:	115f      	asrs	r7, r3, #5
 8009e3c:	eb02 0787 	add.w	r7, r2, r7, lsl #2
 8009e40:	f013 031f 	ands.w	r3, r3, #31
 8009e44:	bf18      	it	ne
 8009e46:	3704      	addne	r7, #4
 8009e48:	1f3e      	subs	r6, r7, #4
 8009e4a:	4690      	mov	r8, r2
 8009e4c:	46b1      	mov	r9, r6
 8009e4e:	4634      	mov	r4, r6
 8009e50:	46ab      	mov	fp, r5
 8009e52:	b087      	sub	sp, #28
 8009e54:	6801      	ldr	r1, [r0, #0]
 8009e56:	9301      	str	r3, [sp, #4]
 8009e58:	f847 5c04 	str.w	r5, [r7, #-4]
 8009e5c:	9502      	str	r5, [sp, #8]
 8009e5e:	784a      	ldrb	r2, [r1, #1]
 8009e60:	1c4b      	adds	r3, r1, #1
 8009e62:	9303      	str	r3, [sp, #12]
 8009e64:	b342      	cbz	r2, 8009eb8 <__hexnan+0x88>
 8009e66:	4610      	mov	r0, r2
 8009e68:	9105      	str	r1, [sp, #20]
 8009e6a:	9204      	str	r2, [sp, #16]
 8009e6c:	f7ff fd83 	bl	8009976 <__hexdig_fun>
 8009e70:	2800      	cmp	r0, #0
 8009e72:	d143      	bne.n	8009efc <__hexnan+0xcc>
 8009e74:	9a04      	ldr	r2, [sp, #16]
 8009e76:	9905      	ldr	r1, [sp, #20]
 8009e78:	2a20      	cmp	r2, #32
 8009e7a:	d818      	bhi.n	8009eae <__hexnan+0x7e>
 8009e7c:	9b02      	ldr	r3, [sp, #8]
 8009e7e:	459b      	cmp	fp, r3
 8009e80:	dd13      	ble.n	8009eaa <__hexnan+0x7a>
 8009e82:	454c      	cmp	r4, r9
 8009e84:	d206      	bcs.n	8009e94 <__hexnan+0x64>
 8009e86:	2d07      	cmp	r5, #7
 8009e88:	dc04      	bgt.n	8009e94 <__hexnan+0x64>
 8009e8a:	462a      	mov	r2, r5
 8009e8c:	4649      	mov	r1, r9
 8009e8e:	4620      	mov	r0, r4
 8009e90:	f7ff ffa8 	bl	8009de4 <L_shift>
 8009e94:	4544      	cmp	r4, r8
 8009e96:	d944      	bls.n	8009f22 <__hexnan+0xf2>
 8009e98:	2300      	movs	r3, #0
 8009e9a:	f1a4 0904 	sub.w	r9, r4, #4
 8009e9e:	f844 3c04 	str.w	r3, [r4, #-4]
 8009ea2:	461d      	mov	r5, r3
 8009ea4:	464c      	mov	r4, r9
 8009ea6:	f8cd b008 	str.w	fp, [sp, #8]
 8009eaa:	9903      	ldr	r1, [sp, #12]
 8009eac:	e7d7      	b.n	8009e5e <__hexnan+0x2e>
 8009eae:	2a29      	cmp	r2, #41	; 0x29
 8009eb0:	d14a      	bne.n	8009f48 <__hexnan+0x118>
 8009eb2:	3102      	adds	r1, #2
 8009eb4:	f8ca 1000 	str.w	r1, [sl]
 8009eb8:	f1bb 0f00 	cmp.w	fp, #0
 8009ebc:	d044      	beq.n	8009f48 <__hexnan+0x118>
 8009ebe:	454c      	cmp	r4, r9
 8009ec0:	d206      	bcs.n	8009ed0 <__hexnan+0xa0>
 8009ec2:	2d07      	cmp	r5, #7
 8009ec4:	dc04      	bgt.n	8009ed0 <__hexnan+0xa0>
 8009ec6:	462a      	mov	r2, r5
 8009ec8:	4649      	mov	r1, r9
 8009eca:	4620      	mov	r0, r4
 8009ecc:	f7ff ff8a 	bl	8009de4 <L_shift>
 8009ed0:	4544      	cmp	r4, r8
 8009ed2:	d928      	bls.n	8009f26 <__hexnan+0xf6>
 8009ed4:	4643      	mov	r3, r8
 8009ed6:	f854 2b04 	ldr.w	r2, [r4], #4
 8009eda:	42a6      	cmp	r6, r4
 8009edc:	f843 2b04 	str.w	r2, [r3], #4
 8009ee0:	d2f9      	bcs.n	8009ed6 <__hexnan+0xa6>
 8009ee2:	2200      	movs	r2, #0
 8009ee4:	f843 2b04 	str.w	r2, [r3], #4
 8009ee8:	429e      	cmp	r6, r3
 8009eea:	d2fb      	bcs.n	8009ee4 <__hexnan+0xb4>
 8009eec:	6833      	ldr	r3, [r6, #0]
 8009eee:	b91b      	cbnz	r3, 8009ef8 <__hexnan+0xc8>
 8009ef0:	4546      	cmp	r6, r8
 8009ef2:	d127      	bne.n	8009f44 <__hexnan+0x114>
 8009ef4:	2301      	movs	r3, #1
 8009ef6:	6033      	str	r3, [r6, #0]
 8009ef8:	2005      	movs	r0, #5
 8009efa:	e026      	b.n	8009f4a <__hexnan+0x11a>
 8009efc:	3501      	adds	r5, #1
 8009efe:	2d08      	cmp	r5, #8
 8009f00:	f10b 0b01 	add.w	fp, fp, #1
 8009f04:	dd06      	ble.n	8009f14 <__hexnan+0xe4>
 8009f06:	4544      	cmp	r4, r8
 8009f08:	d9cf      	bls.n	8009eaa <__hexnan+0x7a>
 8009f0a:	2300      	movs	r3, #0
 8009f0c:	2501      	movs	r5, #1
 8009f0e:	f844 3c04 	str.w	r3, [r4, #-4]
 8009f12:	3c04      	subs	r4, #4
 8009f14:	6822      	ldr	r2, [r4, #0]
 8009f16:	f000 000f 	and.w	r0, r0, #15
 8009f1a:	ea40 1002 	orr.w	r0, r0, r2, lsl #4
 8009f1e:	6020      	str	r0, [r4, #0]
 8009f20:	e7c3      	b.n	8009eaa <__hexnan+0x7a>
 8009f22:	2508      	movs	r5, #8
 8009f24:	e7c1      	b.n	8009eaa <__hexnan+0x7a>
 8009f26:	9b01      	ldr	r3, [sp, #4]
 8009f28:	2b00      	cmp	r3, #0
 8009f2a:	d0df      	beq.n	8009eec <__hexnan+0xbc>
 8009f2c:	f04f 32ff 	mov.w	r2, #4294967295
 8009f30:	f1c3 0320 	rsb	r3, r3, #32
 8009f34:	fa22 f303 	lsr.w	r3, r2, r3
 8009f38:	f857 2c04 	ldr.w	r2, [r7, #-4]
 8009f3c:	401a      	ands	r2, r3
 8009f3e:	f847 2c04 	str.w	r2, [r7, #-4]
 8009f42:	e7d3      	b.n	8009eec <__hexnan+0xbc>
 8009f44:	3e04      	subs	r6, #4
 8009f46:	e7d1      	b.n	8009eec <__hexnan+0xbc>
 8009f48:	2004      	movs	r0, #4
 8009f4a:	b007      	add	sp, #28
 8009f4c:	e8bd 8ff0 	ldmia.w	sp!, {r4, r5, r6, r7, r8, r9, sl, fp, pc}

08009f50 <__locale_ctype_ptr_l>:
 8009f50:	f8d0 00ec 	ldr.w	r0, [r0, #236]	; 0xec
 8009f54:	4770      	bx	lr
	...

08009f58 <__locale_ctype_ptr>:
 8009f58:	4b04      	ldr	r3, [pc, #16]	; (8009f6c <__locale_ctype_ptr+0x14>)
 8009f5a:	4a05      	ldr	r2, [pc, #20]	; (8009f70 <__locale_ctype_ptr+0x18>)
 8009f5c:	681b      	ldr	r3, [r3, #0]
 8009f5e:	6a1b      	ldr	r3, [r3, #32]
 8009f60:	2b00      	cmp	r3, #0
 8009f62:	bf08      	it	eq
 8009f64:	4613      	moveq	r3, r2
 8009f66:	f8d3 00ec 	ldr.w	r0, [r3, #236]	; 0xec
 8009f6a:	4770      	bx	lr
 8009f6c:	200001b4 	.word	0x200001b4
 8009f70:	20000218 	.word	0x20000218

08009f74 <__localeconv_l>:
 8009f74:	30f0      	adds	r0, #240	; 0xf0
 8009f76:	4770      	bx	lr

08009f78 <__ascii_mbtowc>:
 8009f78:	b082      	sub	sp, #8
 8009f7a:	b901      	cbnz	r1, 8009f7e <__ascii_mbtowc+0x6>
 8009f7c:	a901      	add	r1, sp, #4
 8009f7e:	b142      	cbz	r2, 8009f92 <__ascii_mbtowc+0x1a>
 8009f80:	b14b      	cbz	r3, 8009f96 <__ascii_mbtowc+0x1e>
 8009f82:	7813      	ldrb	r3, [r2, #0]
 8009f84:	600b      	str	r3, [r1, #0]
 8009f86:	7812      	ldrb	r2, [r2, #0]
 8009f88:	1c10      	adds	r0, r2, #0
 8009f8a:	bf18      	it	ne
 8009f8c:	2001      	movne	r0, #1
 8009f8e:	b002      	add	sp, #8
 8009f90:	4770      	bx	lr
 8009f92:	4610      	mov	r0, r2
 8009f94:	e7fb      	b.n	8009f8e <__ascii_mbtowc+0x16>
 8009f96:	f06f 0001 	mvn.w	r0, #1
 8009f9a:	e7f8      	b.n	8009f8e <__ascii_mbtowc+0x16>

08009f9c <_Balloc>:
 8009f9c:	b570      	push	{r4, r5, r6, lr}
 8009f9e:	6a45      	ldr	r5, [r0, #36]	; 0x24
 8009fa0:	4604      	mov	r4, r0
 8009fa2:	460e      	mov	r6, r1
 8009fa4:	b93d      	cbnz	r5, 8009fb6 <_Balloc+0x1a>
 8009fa6:	2010      	movs	r0, #16
 8009fa8:	f001 f880 	bl	800b0ac <malloc>
 8009fac:	6260      	str	r0, [r4, #36]	; 0x24
 8009fae:	e9c0 5501 	strd	r5, r5, [r0, #4]
 8009fb2:	6005      	str	r5, [r0, #0]
 8009fb4:	60c5      	str	r5, [r0, #12]
 8009fb6:	6a65      	ldr	r5, [r4, #36]	; 0x24
 8009fb8:	68eb      	ldr	r3, [r5, #12]
 8009fba:	b183      	cbz	r3, 8009fde <_Balloc+0x42>
 8009fbc:	6a63      	ldr	r3, [r4, #36]	; 0x24
 8009fbe:	68db      	ldr	r3, [r3, #12]
 8009fc0:	f853 0026 	ldr.w	r0, [r3, r6, lsl #2]
 8009fc4:	b9b8      	cbnz	r0, 8009ff6 <_Balloc+0x5a>
 8009fc6:	2101      	movs	r1, #1
 8009fc8:	fa01 f506 	lsl.w	r5, r1, r6
 8009fcc:	1d6a      	adds	r2, r5, #5
 8009fce:	0092      	lsls	r2, r2, #2
 8009fd0:	4620      	mov	r0, r4
 8009fd2:	f000 fbdb 	bl	800a78c <_calloc_r>
 8009fd6:	b160      	cbz	r0, 8009ff2 <_Balloc+0x56>
 8009fd8:	e9c0 6501 	strd	r6, r5, [r0, #4]
 8009fdc:	e00e      	b.n	8009ffc <_Balloc+0x60>
 8009fde:	2221      	movs	r2, #33	; 0x21
 8009fe0:	2104      	movs	r1, #4
 8009fe2:	4620      	mov	r0, r4
 8009fe4:	f000 fbd2 	bl	800a78c <_calloc_r>
 8009fe8:	6a63      	ldr	r3, [r4, #36]	; 0x24
 8009fea:	60e8      	str	r0, [r5, #12]
 8009fec:	68db      	ldr	r3, [r3, #12]
 8009fee:	2b00      	cmp	r3, #0
 8009ff0:	d1e4      	bne.n	8009fbc <_Balloc+0x20>
 8009ff2:	2000      	movs	r0, #0
 8009ff4:	bd70      	pop	{r4, r5, r6, pc}
 8009ff6:	6802      	ldr	r2, [r0, #0]
 8009ff8:	f843 2026 	str.w	r2, [r3, r6, lsl #2]
 8009ffc:	2300      	movs	r3, #0
 8009ffe:	e9c0 3303 	strd	r3, r3, [r0, #12]
 800a002:	e7f7      	b.n	8009ff4 <_Balloc+0x58>

0800a004 <_Bfree>:
 800a004:	b570      	push	{r4, r5, r6, lr}
 800a006:	6a44      	ldr	r4, [r0, #36]	; 0x24
 800a008:	4606      	mov	r6, r0
 800a00a:	460d      	mov	r5, r1
 800a00c:	b93c      	cbnz	r4, 800a01e <_Bfree+0x1a>
 800a00e:	2010      	movs	r0, #16
 800a010:	f001 f84c 	bl	800b0ac <malloc>
 800a014:	6270      	str	r0, [r6, #36]	; 0x24
 800a016:	e9c0 4401 	strd	r4, r4, [r0, #4]
 800a01a:	6004      	str	r4, [r0, #0]
 800a01c:	60c4      	str	r4, [r0, #12]
 800a01e:	b13d      	cbz	r5, 800a030 <_Bfree+0x2c>
 800a020:	6a73      	ldr	r3, [r6, #36]	; 0x24
 800a022:	686a      	ldr	r2, [r5, #4]
 800a024:	68db      	ldr	r3, [r3, #12]
 800a026:	f853 1022 	ldr.w	r1, [r3, r2, lsl #2]
 800a02a:	6029      	str	r1, [r5, #0]
 800a02c:	f843 5022 	str.w	r5, [r3, r2, lsl #2]
 800a030:	bd70      	pop	{r4, r5, r6, pc}

0800a032 <__multadd>:
 800a032:	e92d 41f0 	stmdb	sp!, {r4, r5, r6, r7, r8, lr}
 800a036:	461f      	mov	r7, r3
 800a038:	4606      	mov	r6, r0
 800a03a:	460c      	mov	r4, r1
 800a03c:	2300      	movs	r3, #0
 800a03e:	690d      	ldr	r5, [r1, #16]
 800a040:	f101 0c14 	add.w	ip, r1, #20
 800a044:	f8dc 0000 	ldr.w	r0, [ip]
 800a048:	3301      	adds	r3, #1
 800a04a:	b281      	uxth	r1, r0
 800a04c:	fb02 7101 	mla	r1, r2, r1, r7
 800a050:	0c00      	lsrs	r0, r0, #16
 800a052:	0c0f      	lsrs	r7, r1, #16
 800a054:	fb02 7000 	mla	r0, r2, r0, r7
 800a058:	b289      	uxth	r1, r1
 800a05a:	eb01 4100 	add.w	r1, r1, r0, lsl #16
 800a05e:	429d      	cmp	r5, r3
 800a060:	ea4f 4710 	mov.w	r7, r0, lsr #16
 800a064:	f84c 1b04 	str.w	r1, [ip], #4
 800a068:	dcec      	bgt.n	800a044 <__multadd+0x12>
 800a06a:	b1d7      	cbz	r7, 800a0a2 <__multadd+0x70>
 800a06c:	68a3      	ldr	r3, [r4, #8]
 800a06e:	42ab      	cmp	r3, r5
 800a070:	dc12      	bgt.n	800a098 <__multadd+0x66>
 800a072:	6861      	ldr	r1, [r4, #4]
 800a074:	4630      	mov	r0, r6
 800a076:	3101      	adds	r1, #1
 800a078:	f7ff ff90 	bl	8009f9c <_Balloc>
 800a07c:	4680      	mov	r8, r0
 800a07e:	6922      	ldr	r2, [r4, #16]
 800a080:	f104 010c 	add.w	r1, r4, #12
 800a084:	3202      	adds	r2, #2
 800a086:	0092      	lsls	r2, r2, #2
 800a088:	300c      	adds	r0, #12
 800a08a:	f7fe fcba 	bl	8008a02 <memcpy>
 800a08e:	4621      	mov	r1, r4
 800a090:	4630      	mov	r0, r6
 800a092:	f7ff ffb7 	bl	800a004 <_Bfree>
 800a096:	4644      	mov	r4, r8
 800a098:	eb04 0385 	add.w	r3, r4, r5, lsl #2
 800a09c:	3501      	adds	r5, #1
 800a09e:	615f      	str	r7, [r3, #20]
 800a0a0:	6125      	str	r5, [r4, #16]
 800a0a2:	4620      	mov	r0, r4
 800a0a4:	e8bd 81f0 	ldmia.w	sp!, {r4, r5, r6, r7, r8, pc}

0800a0a8 <__s2b>:
 800a0a8:	e92d 43f8 	stmdb	sp!, {r3, r4, r5, r6, r7, r8, r9, lr}
 800a0ac:	4615      	mov	r5, r2
 800a0ae:	2209      	movs	r2, #9
 800a0b0:	461f      	mov	r7, r3
 800a0b2:	3308      	adds	r3, #8
 800a0b4:	460c      	mov	r4, r1
 800a0b6:	fb93 f3f2 	sdiv	r3, r3, r2
 800a0ba:	4606      	mov	r6, r0
 800a0bc:	2201      	movs	r2, #1
 800a0be:	2100      	movs	r1, #0
 800a0c0:	429a      	cmp	r2, r3
 800a0c2:	db20      	blt.n	800a106 <__s2b+0x5e>
 800a0c4:	4630      	mov	r0, r6
 800a0c6:	f7ff ff69 	bl	8009f9c <_Balloc>
 800a0ca:	9b08      	ldr	r3, [sp, #32]
 800a0cc:	2d09      	cmp	r5, #9
 800a0ce:	6143      	str	r3, [r0, #20]
 800a0d0:	f04f 0301 	mov.w	r3, #1
 800a0d4:	6103      	str	r3, [r0, #16]
 800a0d6:	dd19      	ble.n	800a10c <__s2b+0x64>
 800a0d8:	f104 0809 	add.w	r8, r4, #9
 800a0dc:	46c1      	mov	r9, r8
 800a0de:	442c      	add	r4, r5
 800a0e0:	f819 3b01 	ldrb.w	r3, [r9], #1
 800a0e4:	4601      	mov	r1, r0
 800a0e6:	3b30      	subs	r3, #48	; 0x30
 800a0e8:	220a      	movs	r2, #10
 800a0ea:	4630      	mov	r0, r6
 800a0ec:	f7ff ffa1 	bl	800a032 <__multadd>
 800a0f0:	45a1      	cmp	r9, r4
 800a0f2:	d1f5      	bne.n	800a0e0 <__s2b+0x38>
 800a0f4:	eb08 0405 	add.w	r4, r8, r5
 800a0f8:	3c08      	subs	r4, #8
 800a0fa:	1b2d      	subs	r5, r5, r4
 800a0fc:	1963      	adds	r3, r4, r5
 800a0fe:	42bb      	cmp	r3, r7
 800a100:	db07      	blt.n	800a112 <__s2b+0x6a>
 800a102:	e8bd 83f8 	ldmia.w	sp!, {r3, r4, r5, r6, r7, r8, r9, pc}
 800a106:	0052      	lsls	r2, r2, #1
 800a108:	3101      	adds	r1, #1
 800a10a:	e7d9      	b.n	800a0c0 <__s2b+0x18>
 800a10c:	340a      	adds	r4, #10
 800a10e:	2509      	movs	r5, #9
 800a110:	e7f3      	b.n	800a0fa <__s2b+0x52>
 800a112:	f814 3b01 	ldrb.w	r3, [r4], #1
 800a116:	4601      	mov	r1, r0
 800a118:	3b30      	subs	r3, #48	; 0x30
 800a11a:	220a      	movs	r2, #10
 800a11c:	4630      	mov	r0, r6
 800a11e:	f7ff ff88 	bl	800a032 <__multadd>
 800a122:	e7eb      	b.n	800a0fc <__s2b+0x54>

0800a124 <__hi0bits>:
 800a124:	0c02      	lsrs	r2, r0, #16
 800a126:	0412      	lsls	r2, r2, #16
 800a128:	4603      	mov	r3, r0
 800a12a:	b9b2      	cbnz	r2, 800a15a <__hi0bits+0x36>
 800a12c:	0403      	lsls	r3, r0, #16
 800a12e:	2010      	movs	r0, #16
 800a130:	f013 4f7f 	tst.w	r3, #4278190080	; 0xff000000
 800a134:	bf04      	itt	eq
 800a136:	021b      	lsleq	r3, r3, #8
 800a138:	3008      	addeq	r0, #8
 800a13a:	f013 4f70 	tst.w	r3, #4026531840	; 0xf0000000
 800a13e:	bf04      	itt	eq
 800a140:	011b      	lsleq	r3, r3, #4
 800a142:	3004      	addeq	r0, #4
 800a144:	f013 4f40 	tst.w	r3, #3221225472	; 0xc0000000
 800a148:	bf04      	itt	eq
 800a14a:	009b      	lsleq	r3, r3, #2
 800a14c:	3002      	addeq	r0, #2
 800a14e:	2b00      	cmp	r3, #0
 800a150:	db06      	blt.n	800a160 <__hi0bits+0x3c>
 800a152:	005b      	lsls	r3, r3, #1
 800a154:	d503      	bpl.n	800a15e <__hi0bits+0x3a>
 800a156:	3001      	adds	r0, #1
 800a158:	4770      	bx	lr
 800a15a:	2000      	movs	r0, #0
 800a15c:	e7e8      	b.n	800a130 <__hi0bits+0xc>
 800a15e:	2020      	movs	r0, #32
 800a160:	4770      	bx	lr

0800a162 <__lo0bits>:
 800a162:	6803      	ldr	r3, [r0, #0]
 800a164:	4601      	mov	r1, r0
 800a166:	f013 0207 	ands.w	r2, r3, #7
 800a16a:	d00b      	beq.n	800a184 <__lo0bits+0x22>
 800a16c:	07da      	lsls	r2, r3, #31
 800a16e:	d423      	bmi.n	800a1b8 <__lo0bits+0x56>
 800a170:	0798      	lsls	r0, r3, #30
 800a172:	bf49      	itett	mi
 800a174:	085b      	lsrmi	r3, r3, #1
 800a176:	089b      	lsrpl	r3, r3, #2
 800a178:	2001      	movmi	r0, #1
 800a17a:	600b      	strmi	r3, [r1, #0]
 800a17c:	bf5c      	itt	pl
 800a17e:	600b      	strpl	r3, [r1, #0]
 800a180:	2002      	movpl	r0, #2
 800a182:	4770      	bx	lr
 800a184:	b298      	uxth	r0, r3
 800a186:	b9a8      	cbnz	r0, 800a1b4 <__lo0bits+0x52>
 800a188:	2010      	movs	r0, #16
 800a18a:	0c1b      	lsrs	r3, r3, #16
 800a18c:	f013 0fff 	tst.w	r3, #255	; 0xff
 800a190:	bf04      	itt	eq
 800a192:	0a1b      	lsreq	r3, r3, #8
 800a194:	3008      	addeq	r0, #8
 800a196:	071a      	lsls	r2, r3, #28
 800a198:	bf04      	itt	eq
 800a19a:	091b      	lsreq	r3, r3, #4
 800a19c:	3004      	addeq	r0, #4
 800a19e:	079a      	lsls	r2, r3, #30
 800a1a0:	bf04      	itt	eq
 800a1a2:	089b      	lsreq	r3, r3, #2
 800a1a4:	3002      	addeq	r0, #2
 800a1a6:	07da      	lsls	r2, r3, #31
 800a1a8:	d402      	bmi.n	800a1b0 <__lo0bits+0x4e>
 800a1aa:	085b      	lsrs	r3, r3, #1
 800a1ac:	d006      	beq.n	800a1bc <__lo0bits+0x5a>
 800a1ae:	3001      	adds	r0, #1
 800a1b0:	600b      	str	r3, [r1, #0]
 800a1b2:	4770      	bx	lr
 800a1b4:	4610      	mov	r0, r2
 800a1b6:	e7e9      	b.n	800a18c <__lo0bits+0x2a>
 800a1b8:	2000      	movs	r0, #0
 800a1ba:	4770      	bx	lr
 800a1bc:	2020      	movs	r0, #32
 800a1be:	4770      	bx	lr

0800a1c0 <__i2b>:
 800a1c0:	b510      	push	{r4, lr}
 800a1c2:	460c      	mov	r4, r1
 800a1c4:	2101      	movs	r1, #1
 800a1c6:	f7ff fee9 	bl	8009f9c <_Balloc>
 800a1ca:	2201      	movs	r2, #1
 800a1cc:	6144      	str	r4, [r0, #20]
 800a1ce:	6102      	str	r2, [r0, #16]
 800a1d0:	bd10      	pop	{r4, pc}

0800a1d2 <__multiply>:
 800a1d2:	e92d 4ff7 	stmdb	sp!, {r0, r1, r2, r4, r5, r6, r7, r8, r9, sl, fp, lr}
 800a1d6:	4614      	mov	r4, r2
 800a1d8:	690a      	ldr	r2, [r1, #16]
 800a1da:	6923      	ldr	r3, [r4, #16]
 800a1dc:	4688      	mov	r8, r1
 800a1de:	429a      	cmp	r2, r3
 800a1e0:	bfbe      	ittt	lt
 800a1e2:	460b      	movlt	r3, r1
 800a1e4:	46a0      	movlt	r8, r4
 800a1e6:	461c      	movlt	r4, r3
 800a1e8:	f8d8 7010 	ldr.w	r7, [r8, #16]
 800a1ec:	f8d4 9010 	ldr.w	r9, [r4, #16]
 800a1f0:	f8d8 3008 	ldr.w	r3, [r8, #8]
 800a1f4:	f8d8 1004 	ldr.w	r1, [r8, #4]
 800a1f8:	eb07 0609 	add.w	r6, r7, r9
 800a1fc:	42b3      	cmp	r3, r6
 800a1fe:	bfb8      	it	lt
 800a200:	3101      	addlt	r1, #1
 800a202:	f7ff fecb 	bl	8009f9c <_Balloc>
 800a206:	f100 0514 	add.w	r5, r0, #20
 800a20a:	462b      	mov	r3, r5
 800a20c:	2200      	movs	r2, #0
 800a20e:	eb05 0e86 	add.w	lr, r5, r6, lsl #2
 800a212:	4573      	cmp	r3, lr
 800a214:	d316      	bcc.n	800a244 <__multiply+0x72>
 800a216:	f104 0214 	add.w	r2, r4, #20
 800a21a:	f108 0114 	add.w	r1, r8, #20
 800a21e:	eb02 0389 	add.w	r3, r2, r9, lsl #2
 800a222:	eb01 0787 	add.w	r7, r1, r7, lsl #2
 800a226:	9300      	str	r3, [sp, #0]
 800a228:	9b00      	ldr	r3, [sp, #0]
 800a22a:	9201      	str	r2, [sp, #4]
 800a22c:	4293      	cmp	r3, r2
 800a22e:	d80c      	bhi.n	800a24a <__multiply+0x78>
 800a230:	2e00      	cmp	r6, #0
 800a232:	dd03      	ble.n	800a23c <__multiply+0x6a>
 800a234:	f85e 3d04 	ldr.w	r3, [lr, #-4]!
 800a238:	2b00      	cmp	r3, #0
 800a23a:	d05d      	beq.n	800a2f8 <__multiply+0x126>
 800a23c:	6106      	str	r6, [r0, #16]
 800a23e:	b003      	add	sp, #12
 800a240:	e8bd 8ff0 	ldmia.w	sp!, {r4, r5, r6, r7, r8, r9, sl, fp, pc}
 800a244:	f843 2b04 	str.w	r2, [r3], #4
 800a248:	e7e3      	b.n	800a212 <__multiply+0x40>
 800a24a:	f8b2 b000 	ldrh.w	fp, [r2]
 800a24e:	f1bb 0f00 	cmp.w	fp, #0
 800a252:	d023      	beq.n	800a29c <__multiply+0xca>
 800a254:	4689      	mov	r9, r1
 800a256:	46ac      	mov	ip, r5
 800a258:	f04f 0800 	mov.w	r8, #0
 800a25c:	f859 4b04 	ldr.w	r4, [r9], #4
 800a260:	f8dc a000 	ldr.w	sl, [ip]
 800a264:	b2a3      	uxth	r3, r4
 800a266:	fa1f fa8a 	uxth.w	sl, sl
 800a26a:	fb0b a303 	mla	r3, fp, r3, sl
 800a26e:	ea4f 4a14 	mov.w	sl, r4, lsr #16
 800a272:	f8dc 4000 	ldr.w	r4, [ip]
 800a276:	4443      	add	r3, r8
 800a278:	ea4f 4814 	mov.w	r8, r4, lsr #16
 800a27c:	fb0b 840a 	mla	r4, fp, sl, r8
 800a280:	46e2      	mov	sl, ip
 800a282:	eb04 4413 	add.w	r4, r4, r3, lsr #16
 800a286:	b29b      	uxth	r3, r3
 800a288:	ea43 4304 	orr.w	r3, r3, r4, lsl #16
 800a28c:	454f      	cmp	r7, r9
 800a28e:	ea4f 4814 	mov.w	r8, r4, lsr #16
 800a292:	f84a 3b04 	str.w	r3, [sl], #4
 800a296:	d82b      	bhi.n	800a2f0 <__multiply+0x11e>
 800a298:	f8cc 8004 	str.w	r8, [ip, #4]
 800a29c:	9b01      	ldr	r3, [sp, #4]
 800a29e:	3204      	adds	r2, #4
 800a2a0:	f8b3 a002 	ldrh.w	sl, [r3, #2]
 800a2a4:	f1ba 0f00 	cmp.w	sl, #0
 800a2a8:	d020      	beq.n	800a2ec <__multiply+0x11a>
 800a2aa:	4689      	mov	r9, r1
 800a2ac:	46a8      	mov	r8, r5
 800a2ae:	f04f 0b00 	mov.w	fp, #0
 800a2b2:	682b      	ldr	r3, [r5, #0]
 800a2b4:	f8b9 c000 	ldrh.w	ip, [r9]
 800a2b8:	f8b8 4002 	ldrh.w	r4, [r8, #2]
 800a2bc:	b29b      	uxth	r3, r3
 800a2be:	fb0a 440c 	mla	r4, sl, ip, r4
 800a2c2:	46c4      	mov	ip, r8
 800a2c4:	445c      	add	r4, fp
 800a2c6:	ea43 4304 	orr.w	r3, r3, r4, lsl #16
 800a2ca:	f84c 3b04 	str.w	r3, [ip], #4
 800a2ce:	f859 3b04 	ldr.w	r3, [r9], #4
 800a2d2:	f8b8 b004 	ldrh.w	fp, [r8, #4]
 800a2d6:	0c1b      	lsrs	r3, r3, #16
 800a2d8:	fb0a b303 	mla	r3, sl, r3, fp
 800a2dc:	454f      	cmp	r7, r9
 800a2de:	eb03 4314 	add.w	r3, r3, r4, lsr #16
 800a2e2:	ea4f 4b13 	mov.w	fp, r3, lsr #16
 800a2e6:	d805      	bhi.n	800a2f4 <__multiply+0x122>
 800a2e8:	f8c8 3004 	str.w	r3, [r8, #4]
 800a2ec:	3504      	adds	r5, #4
 800a2ee:	e79b      	b.n	800a228 <__multiply+0x56>
 800a2f0:	46d4      	mov	ip, sl
 800a2f2:	e7b3      	b.n	800a25c <__multiply+0x8a>
 800a2f4:	46e0      	mov	r8, ip
 800a2f6:	e7dd      	b.n	800a2b4 <__multiply+0xe2>
 800a2f8:	3e01      	subs	r6, #1
 800a2fa:	e799      	b.n	800a230 <__multiply+0x5e>

0800a2fc <__pow5mult>:
 800a2fc:	e92d 43f8 	stmdb	sp!, {r3, r4, r5, r6, r7, r8, r9, lr}
 800a300:	4615      	mov	r5, r2
 800a302:	f012 0203 	ands.w	r2, r2, #3
 800a306:	4606      	mov	r6, r0
 800a308:	460f      	mov	r7, r1
 800a30a:	d007      	beq.n	800a31c <__pow5mult+0x20>
 800a30c:	4c21      	ldr	r4, [pc, #132]	; (800a394 <__pow5mult+0x98>)
 800a30e:	3a01      	subs	r2, #1
 800a310:	2300      	movs	r3, #0
 800a312:	f854 2022 	ldr.w	r2, [r4, r2, lsl #2]
 800a316:	f7ff fe8c 	bl	800a032 <__multadd>
 800a31a:	4607      	mov	r7, r0
 800a31c:	10ad      	asrs	r5, r5, #2
 800a31e:	d035      	beq.n	800a38c <__pow5mult+0x90>
 800a320:	6a74      	ldr	r4, [r6, #36]	; 0x24
 800a322:	b93c      	cbnz	r4, 800a334 <__pow5mult+0x38>
 800a324:	2010      	movs	r0, #16
 800a326:	f000 fec1 	bl	800b0ac <malloc>
 800a32a:	6270      	str	r0, [r6, #36]	; 0x24
 800a32c:	e9c0 4401 	strd	r4, r4, [r0, #4]
 800a330:	6004      	str	r4, [r0, #0]
 800a332:	60c4      	str	r4, [r0, #12]
 800a334:	f8d6 8024 	ldr.w	r8, [r6, #36]	; 0x24
 800a338:	f8d8 4008 	ldr.w	r4, [r8, #8]
 800a33c:	b94c      	cbnz	r4, 800a352 <__pow5mult+0x56>
 800a33e:	f240 2171 	movw	r1, #625	; 0x271
 800a342:	4630      	mov	r0, r6
 800a344:	f7ff ff3c 	bl	800a1c0 <__i2b>
 800a348:	2300      	movs	r3, #0
 800a34a:	4604      	mov	r4, r0
 800a34c:	f8c8 0008 	str.w	r0, [r8, #8]
 800a350:	6003      	str	r3, [r0, #0]
 800a352:	f04f 0800 	mov.w	r8, #0
 800a356:	07eb      	lsls	r3, r5, #31
 800a358:	d50a      	bpl.n	800a370 <__pow5mult+0x74>
 800a35a:	4639      	mov	r1, r7
 800a35c:	4622      	mov	r2, r4
 800a35e:	4630      	mov	r0, r6
 800a360:	f7ff ff37 	bl	800a1d2 <__multiply>
 800a364:	4681      	mov	r9, r0
 800a366:	4639      	mov	r1, r7
 800a368:	4630      	mov	r0, r6
 800a36a:	f7ff fe4b 	bl	800a004 <_Bfree>
 800a36e:	464f      	mov	r7, r9
 800a370:	106d      	asrs	r5, r5, #1
 800a372:	d00b      	beq.n	800a38c <__pow5mult+0x90>
 800a374:	6820      	ldr	r0, [r4, #0]
 800a376:	b938      	cbnz	r0, 800a388 <__pow5mult+0x8c>
 800a378:	4622      	mov	r2, r4
 800a37a:	4621      	mov	r1, r4
 800a37c:	4630      	mov	r0, r6
 800a37e:	f7ff ff28 	bl	800a1d2 <__multiply>
 800a382:	6020      	str	r0, [r4, #0]
 800a384:	f8c0 8000 	str.w	r8, [r0]
 800a388:	4604      	mov	r4, r0
 800a38a:	e7e4      	b.n	800a356 <__pow5mult+0x5a>
 800a38c:	4638      	mov	r0, r7
 800a38e:	e8bd 83f8 	ldmia.w	sp!, {r3, r4, r5, r6, r7, r8, r9, pc}
 800a392:	bf00      	nop
 800a394:	0800c570 	.word	0x0800c570

0800a398 <__lshift>:
 800a398:	e92d 47f0 	stmdb	sp!, {r4, r5, r6, r7, r8, r9, sl, lr}
 800a39c:	460c      	mov	r4, r1
 800a39e:	4607      	mov	r7, r0
 800a3a0:	4616      	mov	r6, r2
 800a3a2:	6923      	ldr	r3, [r4, #16]
 800a3a4:	ea4f 1a62 	mov.w	sl, r2, asr #5
 800a3a8:	eb0a 0903 	add.w	r9, sl, r3
 800a3ac:	6849      	ldr	r1, [r1, #4]
 800a3ae:	68a3      	ldr	r3, [r4, #8]
 800a3b0:	f109 0501 	add.w	r5, r9, #1
 800a3b4:	42ab      	cmp	r3, r5
 800a3b6:	db32      	blt.n	800a41e <__lshift+0x86>
 800a3b8:	4638      	mov	r0, r7
 800a3ba:	f7ff fdef 	bl	8009f9c <_Balloc>
 800a3be:	2300      	movs	r3, #0
 800a3c0:	4680      	mov	r8, r0
 800a3c2:	461a      	mov	r2, r3
 800a3c4:	f100 0114 	add.w	r1, r0, #20
 800a3c8:	4553      	cmp	r3, sl
 800a3ca:	db2b      	blt.n	800a424 <__lshift+0x8c>
 800a3cc:	6920      	ldr	r0, [r4, #16]
 800a3ce:	ea2a 7aea 	bic.w	sl, sl, sl, asr #31
 800a3d2:	f104 0314 	add.w	r3, r4, #20
 800a3d6:	f016 021f 	ands.w	r2, r6, #31
 800a3da:	eb01 018a 	add.w	r1, r1, sl, lsl #2
 800a3de:	eb03 0c80 	add.w	ip, r3, r0, lsl #2
 800a3e2:	d025      	beq.n	800a430 <__lshift+0x98>
 800a3e4:	2000      	movs	r0, #0
 800a3e6:	f1c2 0e20 	rsb	lr, r2, #32
 800a3ea:	468a      	mov	sl, r1
 800a3ec:	681e      	ldr	r6, [r3, #0]
 800a3ee:	4096      	lsls	r6, r2
 800a3f0:	4330      	orrs	r0, r6
 800a3f2:	f84a 0b04 	str.w	r0, [sl], #4
 800a3f6:	f853 0b04 	ldr.w	r0, [r3], #4
 800a3fa:	459c      	cmp	ip, r3
 800a3fc:	fa20 f00e 	lsr.w	r0, r0, lr
 800a400:	d814      	bhi.n	800a42c <__lshift+0x94>
 800a402:	6048      	str	r0, [r1, #4]
 800a404:	b108      	cbz	r0, 800a40a <__lshift+0x72>
 800a406:	f109 0502 	add.w	r5, r9, #2
 800a40a:	3d01      	subs	r5, #1
 800a40c:	4638      	mov	r0, r7
 800a40e:	f8c8 5010 	str.w	r5, [r8, #16]
 800a412:	4621      	mov	r1, r4
 800a414:	f7ff fdf6 	bl	800a004 <_Bfree>
 800a418:	4640      	mov	r0, r8
 800a41a:	e8bd 87f0 	ldmia.w	sp!, {r4, r5, r6, r7, r8, r9, sl, pc}
 800a41e:	3101      	adds	r1, #1
 800a420:	005b      	lsls	r3, r3, #1
 800a422:	e7c7      	b.n	800a3b4 <__lshift+0x1c>
 800a424:	f841 2023 	str.w	r2, [r1, r3, lsl #2]
 800a428:	3301      	adds	r3, #1
 800a42a:	e7cd      	b.n	800a3c8 <__lshift+0x30>
 800a42c:	4651      	mov	r1, sl
 800a42e:	e7dc      	b.n	800a3ea <__lshift+0x52>
 800a430:	3904      	subs	r1, #4
 800a432:	f853 2b04 	ldr.w	r2, [r3], #4
 800a436:	459c      	cmp	ip, r3
 800a438:	f841 2f04 	str.w	r2, [r1, #4]!
 800a43c:	d8f9      	bhi.n	800a432 <__lshift+0x9a>
 800a43e:	e7e4      	b.n	800a40a <__lshift+0x72>

0800a440 <__mcmp>:
 800a440:	6903      	ldr	r3, [r0, #16]
 800a442:	690a      	ldr	r2, [r1, #16]
 800a444:	b530      	push	{r4, r5, lr}
 800a446:	1a9b      	subs	r3, r3, r2
 800a448:	d10c      	bne.n	800a464 <__mcmp+0x24>
 800a44a:	0092      	lsls	r2, r2, #2
 800a44c:	3014      	adds	r0, #20
 800a44e:	3114      	adds	r1, #20
 800a450:	1884      	adds	r4, r0, r2
 800a452:	4411      	add	r1, r2
 800a454:	f854 5d04 	ldr.w	r5, [r4, #-4]!
 800a458:	f851 2d04 	ldr.w	r2, [r1, #-4]!
 800a45c:	4295      	cmp	r5, r2
 800a45e:	d003      	beq.n	800a468 <__mcmp+0x28>
 800a460:	d305      	bcc.n	800a46e <__mcmp+0x2e>
 800a462:	2301      	movs	r3, #1
 800a464:	4618      	mov	r0, r3
 800a466:	bd30      	pop	{r4, r5, pc}
 800a468:	42a0      	cmp	r0, r4
 800a46a:	d3f3      	bcc.n	800a454 <__mcmp+0x14>
 800a46c:	e7fa      	b.n	800a464 <__mcmp+0x24>
 800a46e:	f04f 33ff 	mov.w	r3, #4294967295
 800a472:	e7f7      	b.n	800a464 <__mcmp+0x24>

0800a474 <__mdiff>:
 800a474:	e92d 47f0 	stmdb	sp!, {r4, r5, r6, r7, r8, r9, sl, lr}
 800a478:	460d      	mov	r5, r1
 800a47a:	4607      	mov	r7, r0
 800a47c:	4611      	mov	r1, r2
 800a47e:	4628      	mov	r0, r5
 800a480:	4614      	mov	r4, r2
 800a482:	f7ff ffdd 	bl	800a440 <__mcmp>
 800a486:	1e06      	subs	r6, r0, #0
 800a488:	d108      	bne.n	800a49c <__mdiff+0x28>
 800a48a:	4631      	mov	r1, r6
 800a48c:	4638      	mov	r0, r7
 800a48e:	f7ff fd85 	bl	8009f9c <_Balloc>
 800a492:	2301      	movs	r3, #1
 800a494:	e9c0 3604 	strd	r3, r6, [r0, #16]
 800a498:	e8bd 87f0 	ldmia.w	sp!, {r4, r5, r6, r7, r8, r9, sl, pc}
 800a49c:	bfa4      	itt	ge
 800a49e:	4623      	movge	r3, r4
 800a4a0:	462c      	movge	r4, r5
 800a4a2:	4638      	mov	r0, r7
 800a4a4:	6861      	ldr	r1, [r4, #4]
 800a4a6:	bfa6      	itte	ge
 800a4a8:	461d      	movge	r5, r3
 800a4aa:	2600      	movge	r6, #0
 800a4ac:	2601      	movlt	r6, #1
 800a4ae:	f7ff fd75 	bl	8009f9c <_Balloc>
 800a4b2:	f04f 0e00 	mov.w	lr, #0
 800a4b6:	60c6      	str	r6, [r0, #12]
 800a4b8:	692b      	ldr	r3, [r5, #16]
 800a4ba:	6926      	ldr	r6, [r4, #16]
 800a4bc:	f104 0214 	add.w	r2, r4, #20
 800a4c0:	f105 0914 	add.w	r9, r5, #20
 800a4c4:	eb02 0786 	add.w	r7, r2, r6, lsl #2
 800a4c8:	eb09 0883 	add.w	r8, r9, r3, lsl #2
 800a4cc:	f100 0114 	add.w	r1, r0, #20
 800a4d0:	f852 ab04 	ldr.w	sl, [r2], #4
 800a4d4:	f859 5b04 	ldr.w	r5, [r9], #4
 800a4d8:	fa1f f38a 	uxth.w	r3, sl
 800a4dc:	4473      	add	r3, lr
 800a4de:	b2ac      	uxth	r4, r5
 800a4e0:	1b1b      	subs	r3, r3, r4
 800a4e2:	0c2c      	lsrs	r4, r5, #16
 800a4e4:	ebc4 441a 	rsb	r4, r4, sl, lsr #16
 800a4e8:	eb04 4423 	add.w	r4, r4, r3, asr #16
 800a4ec:	b29b      	uxth	r3, r3
 800a4ee:	ea4f 4e24 	mov.w	lr, r4, asr #16
 800a4f2:	45c8      	cmp	r8, r9
 800a4f4:	ea43 4404 	orr.w	r4, r3, r4, lsl #16
 800a4f8:	4694      	mov	ip, r2
 800a4fa:	f841 4b04 	str.w	r4, [r1], #4
 800a4fe:	d8e7      	bhi.n	800a4d0 <__mdiff+0x5c>
 800a500:	45bc      	cmp	ip, r7
 800a502:	d304      	bcc.n	800a50e <__mdiff+0x9a>
 800a504:	f851 3d04 	ldr.w	r3, [r1, #-4]!
 800a508:	b183      	cbz	r3, 800a52c <__mdiff+0xb8>
 800a50a:	6106      	str	r6, [r0, #16]
 800a50c:	e7c4      	b.n	800a498 <__mdiff+0x24>
 800a50e:	f85c 4b04 	ldr.w	r4, [ip], #4
 800a512:	b2a2      	uxth	r2, r4
 800a514:	4472      	add	r2, lr
 800a516:	1413      	asrs	r3, r2, #16
 800a518:	eb03 4314 	add.w	r3, r3, r4, lsr #16
 800a51c:	b292      	uxth	r2, r2
 800a51e:	ea42 4203 	orr.w	r2, r2, r3, lsl #16
 800a522:	ea4f 4e23 	mov.w	lr, r3, asr #16
 800a526:	f841 2b04 	str.w	r2, [r1], #4
 800a52a:	e7e9      	b.n	800a500 <__mdiff+0x8c>
 800a52c:	3e01      	subs	r6, #1
 800a52e:	e7e9      	b.n	800a504 <__mdiff+0x90>

0800a530 <__ulp>:
 800a530:	4b10      	ldr	r3, [pc, #64]	; (800a574 <__ulp+0x44>)
 800a532:	400b      	ands	r3, r1
 800a534:	f1a3 7350 	sub.w	r3, r3, #54525952	; 0x3400000
 800a538:	2b00      	cmp	r3, #0
 800a53a:	dd02      	ble.n	800a542 <__ulp+0x12>
 800a53c:	2000      	movs	r0, #0
 800a53e:	4619      	mov	r1, r3
 800a540:	4770      	bx	lr
 800a542:	425b      	negs	r3, r3
 800a544:	151b      	asrs	r3, r3, #20
 800a546:	2b13      	cmp	r3, #19
 800a548:	f04f 0000 	mov.w	r0, #0
 800a54c:	f04f 0100 	mov.w	r1, #0
 800a550:	dc04      	bgt.n	800a55c <__ulp+0x2c>
 800a552:	f44f 2200 	mov.w	r2, #524288	; 0x80000
 800a556:	fa42 f103 	asr.w	r1, r2, r3
 800a55a:	4770      	bx	lr
 800a55c:	2201      	movs	r2, #1
 800a55e:	3b14      	subs	r3, #20
 800a560:	2b1e      	cmp	r3, #30
 800a562:	bfce      	itee	gt
 800a564:	4613      	movgt	r3, r2
 800a566:	f1c3 031f 	rsble	r3, r3, #31
 800a56a:	fa02 f303 	lslle.w	r3, r2, r3
 800a56e:	4618      	mov	r0, r3
 800a570:	4770      	bx	lr
 800a572:	bf00      	nop
 800a574:	7ff00000 	.word	0x7ff00000

0800a578 <__b2d>:
 800a578:	e92d 43f8 	stmdb	sp!, {r3, r4, r5, r6, r7, r8, r9, lr}
 800a57c:	6907      	ldr	r7, [r0, #16]
 800a57e:	f100 0914 	add.w	r9, r0, #20
 800a582:	eb09 0787 	add.w	r7, r9, r7, lsl #2
 800a586:	f857 6c04 	ldr.w	r6, [r7, #-4]
 800a58a:	f1a7 0804 	sub.w	r8, r7, #4
 800a58e:	4630      	mov	r0, r6
 800a590:	f7ff fdc8 	bl	800a124 <__hi0bits>
 800a594:	f1c0 0320 	rsb	r3, r0, #32
 800a598:	280a      	cmp	r0, #10
 800a59a:	600b      	str	r3, [r1, #0]
 800a59c:	491e      	ldr	r1, [pc, #120]	; (800a618 <__b2d+0xa0>)
 800a59e:	dc17      	bgt.n	800a5d0 <__b2d+0x58>
 800a5a0:	45c1      	cmp	r9, r8
 800a5a2:	bf28      	it	cs
 800a5a4:	2200      	movcs	r2, #0
 800a5a6:	f1c0 0c0b 	rsb	ip, r0, #11
 800a5aa:	fa26 f30c 	lsr.w	r3, r6, ip
 800a5ae:	bf38      	it	cc
 800a5b0:	f857 2c08 	ldrcc.w	r2, [r7, #-8]
 800a5b4:	ea43 0501 	orr.w	r5, r3, r1
 800a5b8:	f100 0315 	add.w	r3, r0, #21
 800a5bc:	fa06 f303 	lsl.w	r3, r6, r3
 800a5c0:	fa22 f20c 	lsr.w	r2, r2, ip
 800a5c4:	ea43 0402 	orr.w	r4, r3, r2
 800a5c8:	4620      	mov	r0, r4
 800a5ca:	4629      	mov	r1, r5
 800a5cc:	e8bd 83f8 	ldmia.w	sp!, {r3, r4, r5, r6, r7, r8, r9, pc}
 800a5d0:	45c1      	cmp	r9, r8
 800a5d2:	bf3a      	itte	cc
 800a5d4:	f1a7 0808 	subcc.w	r8, r7, #8
 800a5d8:	f857 2c08 	ldrcc.w	r2, [r7, #-8]
 800a5dc:	2200      	movcs	r2, #0
 800a5de:	f1b0 030b 	subs.w	r3, r0, #11
 800a5e2:	d015      	beq.n	800a610 <__b2d+0x98>
 800a5e4:	409e      	lsls	r6, r3
 800a5e6:	f1c3 0720 	rsb	r7, r3, #32
 800a5ea:	f046 567f 	orr.w	r6, r6, #1069547520	; 0x3fc00000
 800a5ee:	fa22 f107 	lsr.w	r1, r2, r7
 800a5f2:	45c8      	cmp	r8, r9
 800a5f4:	f446 1640 	orr.w	r6, r6, #3145728	; 0x300000
 800a5f8:	ea46 0501 	orr.w	r5, r6, r1
 800a5fc:	bf94      	ite	ls
 800a5fe:	2100      	movls	r1, #0
 800a600:	f858 1c04 	ldrhi.w	r1, [r8, #-4]
 800a604:	fa02 f003 	lsl.w	r0, r2, r3
 800a608:	40f9      	lsrs	r1, r7
 800a60a:	ea40 0401 	orr.w	r4, r0, r1
 800a60e:	e7db      	b.n	800a5c8 <__b2d+0x50>
 800a610:	ea46 0501 	orr.w	r5, r6, r1
 800a614:	4614      	mov	r4, r2
 800a616:	e7d7      	b.n	800a5c8 <__b2d+0x50>
 800a618:	3ff00000 	.word	0x3ff00000

0800a61c <__d2b>:
 800a61c:	e92d 41f3 	stmdb	sp!, {r0, r1, r4, r5, r6, r7, r8, lr}
 800a620:	461c      	mov	r4, r3
 800a622:	e9dd 6508 	ldrd	r6, r5, [sp, #32]
 800a626:	2101      	movs	r1, #1
 800a628:	4690      	mov	r8, r2
 800a62a:	f7ff fcb7 	bl	8009f9c <_Balloc>
 800a62e:	f3c4 0213 	ubfx	r2, r4, #0, #20
 800a632:	f3c4 540a 	ubfx	r4, r4, #20, #11
 800a636:	4607      	mov	r7, r0
 800a638:	bb34      	cbnz	r4, 800a688 <__d2b+0x6c>
 800a63a:	9201      	str	r2, [sp, #4]
 800a63c:	f1b8 0200 	subs.w	r2, r8, #0
 800a640:	d027      	beq.n	800a692 <__d2b+0x76>
 800a642:	a802      	add	r0, sp, #8
 800a644:	f840 2d08 	str.w	r2, [r0, #-8]!
 800a648:	f7ff fd8b 	bl	800a162 <__lo0bits>
 800a64c:	9900      	ldr	r1, [sp, #0]
 800a64e:	b1f0      	cbz	r0, 800a68e <__d2b+0x72>
 800a650:	9a01      	ldr	r2, [sp, #4]
 800a652:	f1c0 0320 	rsb	r3, r0, #32
 800a656:	fa02 f303 	lsl.w	r3, r2, r3
 800a65a:	430b      	orrs	r3, r1
 800a65c:	40c2      	lsrs	r2, r0
 800a65e:	617b      	str	r3, [r7, #20]
 800a660:	9201      	str	r2, [sp, #4]
 800a662:	9b01      	ldr	r3, [sp, #4]
 800a664:	2b00      	cmp	r3, #0
 800a666:	bf14      	ite	ne
 800a668:	2102      	movne	r1, #2
 800a66a:	2101      	moveq	r1, #1
 800a66c:	61bb      	str	r3, [r7, #24]
 800a66e:	6139      	str	r1, [r7, #16]
 800a670:	b1c4      	cbz	r4, 800a6a4 <__d2b+0x88>
 800a672:	f2a4 4433 	subw	r4, r4, #1075	; 0x433
 800a676:	4404      	add	r4, r0
 800a678:	6034      	str	r4, [r6, #0]
 800a67a:	f1c0 0035 	rsb	r0, r0, #53	; 0x35
 800a67e:	6028      	str	r0, [r5, #0]
 800a680:	4638      	mov	r0, r7
 800a682:	b002      	add	sp, #8
 800a684:	e8bd 81f0 	ldmia.w	sp!, {r4, r5, r6, r7, r8, pc}
 800a688:	f442 1280 	orr.w	r2, r2, #1048576	; 0x100000
 800a68c:	e7d5      	b.n	800a63a <__d2b+0x1e>
 800a68e:	6179      	str	r1, [r7, #20]
 800a690:	e7e7      	b.n	800a662 <__d2b+0x46>
 800a692:	a801      	add	r0, sp, #4
 800a694:	f7ff fd65 	bl	800a162 <__lo0bits>
 800a698:	2101      	movs	r1, #1
 800a69a:	9b01      	ldr	r3, [sp, #4]
 800a69c:	6139      	str	r1, [r7, #16]
 800a69e:	617b      	str	r3, [r7, #20]
 800a6a0:	3020      	adds	r0, #32
 800a6a2:	e7e5      	b.n	800a670 <__d2b+0x54>
 800a6a4:	f2a0 4032 	subw	r0, r0, #1074	; 0x432
 800a6a8:	eb07 0381 	add.w	r3, r7, r1, lsl #2
 800a6ac:	6030      	str	r0, [r6, #0]
 800a6ae:	6918      	ldr	r0, [r3, #16]
 800a6b0:	f7ff fd38 	bl	800a124 <__hi0bits>
 800a6b4:	ebc0 1041 	rsb	r0, r0, r1, lsl #5
 800a6b8:	e7e1      	b.n	800a67e <__d2b+0x62>

0800a6ba <__ratio>:
 800a6ba:	e92d 4ff7 	stmdb	sp!, {r0, r1, r2, r4, r5, r6, r7, r8, r9, sl, fp, lr}
 800a6be:	4688      	mov	r8, r1
 800a6c0:	4669      	mov	r1, sp
 800a6c2:	4681      	mov	r9, r0
 800a6c4:	f7ff ff58 	bl	800a578 <__b2d>
 800a6c8:	468b      	mov	fp, r1
 800a6ca:	4606      	mov	r6, r0
 800a6cc:	460f      	mov	r7, r1
 800a6ce:	4640      	mov	r0, r8
 800a6d0:	a901      	add	r1, sp, #4
 800a6d2:	f7ff ff51 	bl	800a578 <__b2d>
 800a6d6:	f8d9 3010 	ldr.w	r3, [r9, #16]
 800a6da:	f8d8 2010 	ldr.w	r2, [r8, #16]
 800a6de:	460d      	mov	r5, r1
 800a6e0:	eba3 0c02 	sub.w	ip, r3, r2
 800a6e4:	e9dd 3200 	ldrd	r3, r2, [sp]
 800a6e8:	1a9b      	subs	r3, r3, r2
 800a6ea:	eb03 134c 	add.w	r3, r3, ip, lsl #5
 800a6ee:	2b00      	cmp	r3, #0
 800a6f0:	bfd5      	itete	le
 800a6f2:	460a      	movle	r2, r1
 800a6f4:	463a      	movgt	r2, r7
 800a6f6:	ebc3 3303 	rsble	r3, r3, r3, lsl #12
 800a6fa:	eb02 5b03 	addgt.w	fp, r2, r3, lsl #20
 800a6fe:	bfd8      	it	le
 800a700:	eb02 5503 	addle.w	r5, r2, r3, lsl #20
 800a704:	462b      	mov	r3, r5
 800a706:	4602      	mov	r2, r0
 800a708:	4659      	mov	r1, fp
 800a70a:	4630      	mov	r0, r6
 800a70c:	f7f6 f80e 	bl	800072c <__aeabi_ddiv>
 800a710:	b003      	add	sp, #12
 800a712:	e8bd 8ff0 	ldmia.w	sp!, {r4, r5, r6, r7, r8, r9, sl, fp, pc}

0800a716 <__copybits>:
 800a716:	3901      	subs	r1, #1
 800a718:	b510      	push	{r4, lr}
 800a71a:	1149      	asrs	r1, r1, #5
 800a71c:	6914      	ldr	r4, [r2, #16]
 800a71e:	3101      	adds	r1, #1
 800a720:	f102 0314 	add.w	r3, r2, #20
 800a724:	eb00 0181 	add.w	r1, r0, r1, lsl #2
 800a728:	eb03 0484 	add.w	r4, r3, r4, lsl #2
 800a72c:	42a3      	cmp	r3, r4
 800a72e:	4602      	mov	r2, r0
 800a730:	d303      	bcc.n	800a73a <__copybits+0x24>
 800a732:	2300      	movs	r3, #0
 800a734:	428a      	cmp	r2, r1
 800a736:	d305      	bcc.n	800a744 <__copybits+0x2e>
 800a738:	bd10      	pop	{r4, pc}
 800a73a:	f853 2b04 	ldr.w	r2, [r3], #4
 800a73e:	f840 2b04 	str.w	r2, [r0], #4
 800a742:	e7f3      	b.n	800a72c <__copybits+0x16>
 800a744:	f842 3b04 	str.w	r3, [r2], #4
 800a748:	e7f4      	b.n	800a734 <__copybits+0x1e>

0800a74a <__any_on>:
 800a74a:	f100 0214 	add.w	r2, r0, #20
 800a74e:	6900      	ldr	r0, [r0, #16]
 800a750:	114b      	asrs	r3, r1, #5
 800a752:	4298      	cmp	r0, r3
 800a754:	b510      	push	{r4, lr}
 800a756:	db11      	blt.n	800a77c <__any_on+0x32>
 800a758:	dd0a      	ble.n	800a770 <__any_on+0x26>
 800a75a:	f011 011f 	ands.w	r1, r1, #31
 800a75e:	d007      	beq.n	800a770 <__any_on+0x26>
 800a760:	f852 4023 	ldr.w	r4, [r2, r3, lsl #2]
 800a764:	fa24 f001 	lsr.w	r0, r4, r1
 800a768:	fa00 f101 	lsl.w	r1, r0, r1
 800a76c:	428c      	cmp	r4, r1
 800a76e:	d10b      	bne.n	800a788 <__any_on+0x3e>
 800a770:	eb02 0383 	add.w	r3, r2, r3, lsl #2
 800a774:	4293      	cmp	r3, r2
 800a776:	d803      	bhi.n	800a780 <__any_on+0x36>
 800a778:	2000      	movs	r0, #0
 800a77a:	bd10      	pop	{r4, pc}
 800a77c:	4603      	mov	r3, r0
 800a77e:	e7f7      	b.n	800a770 <__any_on+0x26>
 800a780:	f853 1d04 	ldr.w	r1, [r3, #-4]!
 800a784:	2900      	cmp	r1, #0
 800a786:	d0f5      	beq.n	800a774 <__any_on+0x2a>
 800a788:	2001      	movs	r0, #1
 800a78a:	e7f6      	b.n	800a77a <__any_on+0x30>

0800a78c <_calloc_r>:
 800a78c:	b538      	push	{r3, r4, r5, lr}
 800a78e:	fb02 f401 	mul.w	r4, r2, r1
 800a792:	4621      	mov	r1, r4
 800a794:	f000 f808 	bl	800a7a8 <_malloc_r>
 800a798:	4605      	mov	r5, r0
 800a79a:	b118      	cbz	r0, 800a7a4 <_calloc_r+0x18>
 800a79c:	4622      	mov	r2, r4
 800a79e:	2100      	movs	r1, #0
 800a7a0:	f7fe f93a 	bl	8008a18 <memset>
 800a7a4:	4628      	mov	r0, r5
 800a7a6:	bd38      	pop	{r3, r4, r5, pc}

0800a7a8 <_malloc_r>:
 800a7a8:	b570      	push	{r4, r5, r6, lr}
 800a7aa:	1ccd      	adds	r5, r1, #3
 800a7ac:	f025 0503 	bic.w	r5, r5, #3
 800a7b0:	3508      	adds	r5, #8
 800a7b2:	2d0c      	cmp	r5, #12
 800a7b4:	bf38      	it	cc
 800a7b6:	250c      	movcc	r5, #12
 800a7b8:	2d00      	cmp	r5, #0
 800a7ba:	4606      	mov	r6, r0
 800a7bc:	db01      	blt.n	800a7c2 <_malloc_r+0x1a>
 800a7be:	42a9      	cmp	r1, r5
 800a7c0:	d903      	bls.n	800a7ca <_malloc_r+0x22>
 800a7c2:	230c      	movs	r3, #12
 800a7c4:	6033      	str	r3, [r6, #0]
 800a7c6:	2000      	movs	r0, #0
 800a7c8:	bd70      	pop	{r4, r5, r6, pc}
 800a7ca:	f000 fc85 	bl	800b0d8 <__malloc_lock>
 800a7ce:	4a21      	ldr	r2, [pc, #132]	; (800a854 <_malloc_r+0xac>)
 800a7d0:	6814      	ldr	r4, [r2, #0]
 800a7d2:	4621      	mov	r1, r4
 800a7d4:	b991      	cbnz	r1, 800a7fc <_malloc_r+0x54>
 800a7d6:	4c20      	ldr	r4, [pc, #128]	; (800a858 <_malloc_r+0xb0>)
 800a7d8:	6823      	ldr	r3, [r4, #0]
 800a7da:	b91b      	cbnz	r3, 800a7e4 <_malloc_r+0x3c>
 800a7dc:	4630      	mov	r0, r6
 800a7de:	f000 fb3f 	bl	800ae60 <_sbrk_r>
 800a7e2:	6020      	str	r0, [r4, #0]
 800a7e4:	4629      	mov	r1, r5
 800a7e6:	4630      	mov	r0, r6
 800a7e8:	f000 fb3a 	bl	800ae60 <_sbrk_r>
 800a7ec:	1c43      	adds	r3, r0, #1
 800a7ee:	d124      	bne.n	800a83a <_malloc_r+0x92>
 800a7f0:	230c      	movs	r3, #12
 800a7f2:	4630      	mov	r0, r6
 800a7f4:	6033      	str	r3, [r6, #0]
 800a7f6:	f000 fc70 	bl	800b0da <__malloc_unlock>
 800a7fa:	e7e4      	b.n	800a7c6 <_malloc_r+0x1e>
 800a7fc:	680b      	ldr	r3, [r1, #0]
 800a7fe:	1b5b      	subs	r3, r3, r5
 800a800:	d418      	bmi.n	800a834 <_malloc_r+0x8c>
 800a802:	2b0b      	cmp	r3, #11
 800a804:	d90f      	bls.n	800a826 <_malloc_r+0x7e>
 800a806:	600b      	str	r3, [r1, #0]
 800a808:	18cc      	adds	r4, r1, r3
 800a80a:	50cd      	str	r5, [r1, r3]
 800a80c:	4630      	mov	r0, r6
 800a80e:	f000 fc64 	bl	800b0da <__malloc_unlock>
 800a812:	f104 000b 	add.w	r0, r4, #11
 800a816:	1d23      	adds	r3, r4, #4
 800a818:	f020 0007 	bic.w	r0, r0, #7
 800a81c:	1ac3      	subs	r3, r0, r3
 800a81e:	d0d3      	beq.n	800a7c8 <_malloc_r+0x20>
 800a820:	425a      	negs	r2, r3
 800a822:	50e2      	str	r2, [r4, r3]
 800a824:	e7d0      	b.n	800a7c8 <_malloc_r+0x20>
 800a826:	684b      	ldr	r3, [r1, #4]
 800a828:	428c      	cmp	r4, r1
 800a82a:	bf16      	itet	ne
 800a82c:	6063      	strne	r3, [r4, #4]
 800a82e:	6013      	streq	r3, [r2, #0]
 800a830:	460c      	movne	r4, r1
 800a832:	e7eb      	b.n	800a80c <_malloc_r+0x64>
 800a834:	460c      	mov	r4, r1
 800a836:	6849      	ldr	r1, [r1, #4]
 800a838:	e7cc      	b.n	800a7d4 <_malloc_r+0x2c>
 800a83a:	1cc4      	adds	r4, r0, #3
 800a83c:	f024 0403 	bic.w	r4, r4, #3
 800a840:	42a0      	cmp	r0, r4
 800a842:	d005      	beq.n	800a850 <_malloc_r+0xa8>
 800a844:	1a21      	subs	r1, r4, r0
 800a846:	4630      	mov	r0, r6
 800a848:	f000 fb0a 	bl	800ae60 <_sbrk_r>
 800a84c:	3001      	adds	r0, #1
 800a84e:	d0cf      	beq.n	800a7f0 <_malloc_r+0x48>
 800a850:	6025      	str	r5, [r4, #0]
 800a852:	e7db      	b.n	800a80c <_malloc_r+0x64>
 800a854:	200005e8 	.word	0x200005e8
 800a858:	200005ec 	.word	0x200005ec

0800a85c <_sungetc_r>:
 800a85c:	b538      	push	{r3, r4, r5, lr}
 800a85e:	1c4b      	adds	r3, r1, #1
 800a860:	4614      	mov	r4, r2
 800a862:	d103      	bne.n	800a86c <_sungetc_r+0x10>
 800a864:	f04f 35ff 	mov.w	r5, #4294967295
 800a868:	4628      	mov	r0, r5
 800a86a:	bd38      	pop	{r3, r4, r5, pc}
 800a86c:	8993      	ldrh	r3, [r2, #12]
 800a86e:	b2cd      	uxtb	r5, r1
 800a870:	f023 0320 	bic.w	r3, r3, #32
 800a874:	8193      	strh	r3, [r2, #12]
 800a876:	6b63      	ldr	r3, [r4, #52]	; 0x34
 800a878:	6852      	ldr	r2, [r2, #4]
 800a87a:	b18b      	cbz	r3, 800a8a0 <_sungetc_r+0x44>
 800a87c:	6ba3      	ldr	r3, [r4, #56]	; 0x38
 800a87e:	4293      	cmp	r3, r2
 800a880:	dd08      	ble.n	800a894 <_sungetc_r+0x38>
 800a882:	6823      	ldr	r3, [r4, #0]
 800a884:	1e5a      	subs	r2, r3, #1
 800a886:	6022      	str	r2, [r4, #0]
 800a888:	f803 5c01 	strb.w	r5, [r3, #-1]
 800a88c:	6863      	ldr	r3, [r4, #4]
 800a88e:	3301      	adds	r3, #1
 800a890:	6063      	str	r3, [r4, #4]
 800a892:	e7e9      	b.n	800a868 <_sungetc_r+0xc>
 800a894:	4621      	mov	r1, r4
 800a896:	f000 fbc3 	bl	800b020 <__submore>
 800a89a:	2800      	cmp	r0, #0
 800a89c:	d0f1      	beq.n	800a882 <_sungetc_r+0x26>
 800a89e:	e7e1      	b.n	800a864 <_sungetc_r+0x8>
 800a8a0:	6921      	ldr	r1, [r4, #16]
 800a8a2:	6823      	ldr	r3, [r4, #0]
 800a8a4:	b151      	cbz	r1, 800a8bc <_sungetc_r+0x60>
 800a8a6:	4299      	cmp	r1, r3
 800a8a8:	d208      	bcs.n	800a8bc <_sungetc_r+0x60>
 800a8aa:	f813 1c01 	ldrb.w	r1, [r3, #-1]
 800a8ae:	42a9      	cmp	r1, r5
 800a8b0:	d104      	bne.n	800a8bc <_sungetc_r+0x60>
 800a8b2:	3b01      	subs	r3, #1
 800a8b4:	3201      	adds	r2, #1
 800a8b6:	6023      	str	r3, [r4, #0]
 800a8b8:	6062      	str	r2, [r4, #4]
 800a8ba:	e7d5      	b.n	800a868 <_sungetc_r+0xc>
 800a8bc:	e9c4 320f 	strd	r3, r2, [r4, #60]	; 0x3c
 800a8c0:	f104 0344 	add.w	r3, r4, #68	; 0x44
 800a8c4:	6363      	str	r3, [r4, #52]	; 0x34
 800a8c6:	2303      	movs	r3, #3
 800a8c8:	63a3      	str	r3, [r4, #56]	; 0x38
 800a8ca:	4623      	mov	r3, r4
 800a8cc:	f803 5f46 	strb.w	r5, [r3, #70]!
 800a8d0:	6023      	str	r3, [r4, #0]
 800a8d2:	2301      	movs	r3, #1
 800a8d4:	e7dc      	b.n	800a890 <_sungetc_r+0x34>

0800a8d6 <__ssrefill_r>:
 800a8d6:	b510      	push	{r4, lr}
 800a8d8:	460c      	mov	r4, r1
 800a8da:	6b49      	ldr	r1, [r1, #52]	; 0x34
 800a8dc:	b169      	cbz	r1, 800a8fa <__ssrefill_r+0x24>
 800a8de:	f104 0344 	add.w	r3, r4, #68	; 0x44
 800a8e2:	4299      	cmp	r1, r3
 800a8e4:	d001      	beq.n	800a8ea <__ssrefill_r+0x14>
 800a8e6:	f000 fbf9 	bl	800b0dc <_free_r>
 800a8ea:	2000      	movs	r0, #0
 800a8ec:	6c23      	ldr	r3, [r4, #64]	; 0x40
 800a8ee:	6360      	str	r0, [r4, #52]	; 0x34
 800a8f0:	6063      	str	r3, [r4, #4]
 800a8f2:	b113      	cbz	r3, 800a8fa <__ssrefill_r+0x24>
 800a8f4:	6be3      	ldr	r3, [r4, #60]	; 0x3c
 800a8f6:	6023      	str	r3, [r4, #0]
 800a8f8:	bd10      	pop	{r4, pc}
 800a8fa:	6923      	ldr	r3, [r4, #16]
 800a8fc:	f04f 30ff 	mov.w	r0, #4294967295
 800a900:	6023      	str	r3, [r4, #0]
 800a902:	2300      	movs	r3, #0
 800a904:	6063      	str	r3, [r4, #4]
 800a906:	89a3      	ldrh	r3, [r4, #12]
 800a908:	f043 0320 	orr.w	r3, r3, #32
 800a90c:	81a3      	strh	r3, [r4, #12]
 800a90e:	e7f3      	b.n	800a8f8 <__ssrefill_r+0x22>

0800a910 <__ssvfiscanf_r>:
 800a910:	e92d 4ff0 	stmdb	sp!, {r4, r5, r6, r7, r8, r9, sl, fp, lr}
 800a914:	460c      	mov	r4, r1
 800a916:	2100      	movs	r1, #0
 800a918:	4606      	mov	r6, r0
 800a91a:	4692      	mov	sl, r2
 800a91c:	270a      	movs	r7, #10
 800a91e:	f5ad 7d23 	sub.w	sp, sp, #652	; 0x28c
 800a922:	9144      	str	r1, [sp, #272]	; 0x110
 800a924:	9145      	str	r1, [sp, #276]	; 0x114
 800a926:	499e      	ldr	r1, [pc, #632]	; (800aba0 <__ssvfiscanf_r+0x290>)
 800a928:	f10d 0804 	add.w	r8, sp, #4
 800a92c:	91a0      	str	r1, [sp, #640]	; 0x280
 800a92e:	499d      	ldr	r1, [pc, #628]	; (800aba4 <__ssvfiscanf_r+0x294>)
 800a930:	f8df 9274 	ldr.w	r9, [pc, #628]	; 800aba8 <__ssvfiscanf_r+0x298>
 800a934:	f8cd 8118 	str.w	r8, [sp, #280]	; 0x118
 800a938:	91a1      	str	r1, [sp, #644]	; 0x284
 800a93a:	9300      	str	r3, [sp, #0]
 800a93c:	f89a 3000 	ldrb.w	r3, [sl]
 800a940:	2b00      	cmp	r3, #0
 800a942:	f000 812a 	beq.w	800ab9a <__ssvfiscanf_r+0x28a>
 800a946:	4655      	mov	r5, sl
 800a948:	f7ff fb06 	bl	8009f58 <__locale_ctype_ptr>
 800a94c:	f815 bb01 	ldrb.w	fp, [r5], #1
 800a950:	4458      	add	r0, fp
 800a952:	7843      	ldrb	r3, [r0, #1]
 800a954:	f013 0308 	ands.w	r3, r3, #8
 800a958:	d01c      	beq.n	800a994 <__ssvfiscanf_r+0x84>
 800a95a:	6863      	ldr	r3, [r4, #4]
 800a95c:	2b00      	cmp	r3, #0
 800a95e:	dd12      	ble.n	800a986 <__ssvfiscanf_r+0x76>
 800a960:	f7ff fafa 	bl	8009f58 <__locale_ctype_ptr>
 800a964:	6823      	ldr	r3, [r4, #0]
 800a966:	781a      	ldrb	r2, [r3, #0]
 800a968:	4410      	add	r0, r2
 800a96a:	7842      	ldrb	r2, [r0, #1]
 800a96c:	0712      	lsls	r2, r2, #28
 800a96e:	d401      	bmi.n	800a974 <__ssvfiscanf_r+0x64>
 800a970:	46aa      	mov	sl, r5
 800a972:	e7e3      	b.n	800a93c <__ssvfiscanf_r+0x2c>
 800a974:	9a45      	ldr	r2, [sp, #276]	; 0x114
 800a976:	3301      	adds	r3, #1
 800a978:	3201      	adds	r2, #1
 800a97a:	9245      	str	r2, [sp, #276]	; 0x114
 800a97c:	6862      	ldr	r2, [r4, #4]
 800a97e:	6023      	str	r3, [r4, #0]
 800a980:	3a01      	subs	r2, #1
 800a982:	6062      	str	r2, [r4, #4]
 800a984:	e7e9      	b.n	800a95a <__ssvfiscanf_r+0x4a>
 800a986:	9ba1      	ldr	r3, [sp, #644]	; 0x284
 800a988:	4621      	mov	r1, r4
 800a98a:	4630      	mov	r0, r6
 800a98c:	4798      	blx	r3
 800a98e:	2800      	cmp	r0, #0
 800a990:	d0e6      	beq.n	800a960 <__ssvfiscanf_r+0x50>
 800a992:	e7ed      	b.n	800a970 <__ssvfiscanf_r+0x60>
 800a994:	f1bb 0f25 	cmp.w	fp, #37	; 0x25
 800a998:	f040 8082 	bne.w	800aaa0 <__ssvfiscanf_r+0x190>
 800a99c:	9343      	str	r3, [sp, #268]	; 0x10c
 800a99e:	9341      	str	r3, [sp, #260]	; 0x104
 800a9a0:	f89a 3001 	ldrb.w	r3, [sl, #1]
 800a9a4:	2b2a      	cmp	r3, #42	; 0x2a
 800a9a6:	d103      	bne.n	800a9b0 <__ssvfiscanf_r+0xa0>
 800a9a8:	2310      	movs	r3, #16
 800a9aa:	f10a 0502 	add.w	r5, sl, #2
 800a9ae:	9341      	str	r3, [sp, #260]	; 0x104
 800a9b0:	46aa      	mov	sl, r5
 800a9b2:	f815 1b01 	ldrb.w	r1, [r5], #1
 800a9b6:	f1a1 0230 	sub.w	r2, r1, #48	; 0x30
 800a9ba:	2a09      	cmp	r2, #9
 800a9bc:	d922      	bls.n	800aa04 <__ssvfiscanf_r+0xf4>
 800a9be:	2203      	movs	r2, #3
 800a9c0:	4879      	ldr	r0, [pc, #484]	; (800aba8 <__ssvfiscanf_r+0x298>)
 800a9c2:	f000 fb7b 	bl	800b0bc <memchr>
 800a9c6:	b138      	cbz	r0, 800a9d8 <__ssvfiscanf_r+0xc8>
 800a9c8:	eba0 0309 	sub.w	r3, r0, r9
 800a9cc:	2001      	movs	r0, #1
 800a9ce:	46aa      	mov	sl, r5
 800a9d0:	4098      	lsls	r0, r3
 800a9d2:	9b41      	ldr	r3, [sp, #260]	; 0x104
 800a9d4:	4318      	orrs	r0, r3
 800a9d6:	9041      	str	r0, [sp, #260]	; 0x104
 800a9d8:	f89a 3000 	ldrb.w	r3, [sl]
 800a9dc:	f10a 0501 	add.w	r5, sl, #1
 800a9e0:	2b67      	cmp	r3, #103	; 0x67
 800a9e2:	d82b      	bhi.n	800aa3c <__ssvfiscanf_r+0x12c>
 800a9e4:	2b65      	cmp	r3, #101	; 0x65
 800a9e6:	f080 809f 	bcs.w	800ab28 <__ssvfiscanf_r+0x218>
 800a9ea:	2b47      	cmp	r3, #71	; 0x47
 800a9ec:	d810      	bhi.n	800aa10 <__ssvfiscanf_r+0x100>
 800a9ee:	2b45      	cmp	r3, #69	; 0x45
 800a9f0:	f080 809a 	bcs.w	800ab28 <__ssvfiscanf_r+0x218>
 800a9f4:	2b00      	cmp	r3, #0
 800a9f6:	d06c      	beq.n	800aad2 <__ssvfiscanf_r+0x1c2>
 800a9f8:	2b25      	cmp	r3, #37	; 0x25
 800a9fa:	d051      	beq.n	800aaa0 <__ssvfiscanf_r+0x190>
 800a9fc:	2303      	movs	r3, #3
 800a9fe:	9742      	str	r7, [sp, #264]	; 0x108
 800aa00:	9347      	str	r3, [sp, #284]	; 0x11c
 800aa02:	e027      	b.n	800aa54 <__ssvfiscanf_r+0x144>
 800aa04:	9b43      	ldr	r3, [sp, #268]	; 0x10c
 800aa06:	fb07 1303 	mla	r3, r7, r3, r1
 800aa0a:	3b30      	subs	r3, #48	; 0x30
 800aa0c:	9343      	str	r3, [sp, #268]	; 0x10c
 800aa0e:	e7cf      	b.n	800a9b0 <__ssvfiscanf_r+0xa0>
 800aa10:	2b5b      	cmp	r3, #91	; 0x5b
 800aa12:	d06a      	beq.n	800aaea <__ssvfiscanf_r+0x1da>
 800aa14:	d80c      	bhi.n	800aa30 <__ssvfiscanf_r+0x120>
 800aa16:	2b58      	cmp	r3, #88	; 0x58
 800aa18:	d1f0      	bne.n	800a9fc <__ssvfiscanf_r+0xec>
 800aa1a:	9a41      	ldr	r2, [sp, #260]	; 0x104
 800aa1c:	f442 7200 	orr.w	r2, r2, #512	; 0x200
 800aa20:	9241      	str	r2, [sp, #260]	; 0x104
 800aa22:	2210      	movs	r2, #16
 800aa24:	9242      	str	r2, [sp, #264]	; 0x108
 800aa26:	2b6e      	cmp	r3, #110	; 0x6e
 800aa28:	bf8c      	ite	hi
 800aa2a:	2304      	movhi	r3, #4
 800aa2c:	2303      	movls	r3, #3
 800aa2e:	e010      	b.n	800aa52 <__ssvfiscanf_r+0x142>
 800aa30:	2b63      	cmp	r3, #99	; 0x63
 800aa32:	d065      	beq.n	800ab00 <__ssvfiscanf_r+0x1f0>
 800aa34:	2b64      	cmp	r3, #100	; 0x64
 800aa36:	d1e1      	bne.n	800a9fc <__ssvfiscanf_r+0xec>
 800aa38:	9742      	str	r7, [sp, #264]	; 0x108
 800aa3a:	e7f4      	b.n	800aa26 <__ssvfiscanf_r+0x116>
 800aa3c:	2b70      	cmp	r3, #112	; 0x70
 800aa3e:	d04b      	beq.n	800aad8 <__ssvfiscanf_r+0x1c8>
 800aa40:	d826      	bhi.n	800aa90 <__ssvfiscanf_r+0x180>
 800aa42:	2b6e      	cmp	r3, #110	; 0x6e
 800aa44:	d062      	beq.n	800ab0c <__ssvfiscanf_r+0x1fc>
 800aa46:	d84c      	bhi.n	800aae2 <__ssvfiscanf_r+0x1d2>
 800aa48:	2b69      	cmp	r3, #105	; 0x69
 800aa4a:	d1d7      	bne.n	800a9fc <__ssvfiscanf_r+0xec>
 800aa4c:	2300      	movs	r3, #0
 800aa4e:	9342      	str	r3, [sp, #264]	; 0x108
 800aa50:	2303      	movs	r3, #3
 800aa52:	9347      	str	r3, [sp, #284]	; 0x11c
 800aa54:	6863      	ldr	r3, [r4, #4]
 800aa56:	2b00      	cmp	r3, #0
 800aa58:	dd68      	ble.n	800ab2c <__ssvfiscanf_r+0x21c>
 800aa5a:	9b41      	ldr	r3, [sp, #260]	; 0x104
 800aa5c:	0659      	lsls	r1, r3, #25
 800aa5e:	d407      	bmi.n	800aa70 <__ssvfiscanf_r+0x160>
 800aa60:	f7ff fa7a 	bl	8009f58 <__locale_ctype_ptr>
 800aa64:	6823      	ldr	r3, [r4, #0]
 800aa66:	781a      	ldrb	r2, [r3, #0]
 800aa68:	4410      	add	r0, r2
 800aa6a:	7842      	ldrb	r2, [r0, #1]
 800aa6c:	0712      	lsls	r2, r2, #28
 800aa6e:	d464      	bmi.n	800ab3a <__ssvfiscanf_r+0x22a>
 800aa70:	9b47      	ldr	r3, [sp, #284]	; 0x11c
 800aa72:	2b02      	cmp	r3, #2
 800aa74:	dc73      	bgt.n	800ab5e <__ssvfiscanf_r+0x24e>
 800aa76:	466b      	mov	r3, sp
 800aa78:	4622      	mov	r2, r4
 800aa7a:	a941      	add	r1, sp, #260	; 0x104
 800aa7c:	4630      	mov	r0, r6
 800aa7e:	f000 f897 	bl	800abb0 <_scanf_chars>
 800aa82:	2801      	cmp	r0, #1
 800aa84:	f000 8089 	beq.w	800ab9a <__ssvfiscanf_r+0x28a>
 800aa88:	2802      	cmp	r0, #2
 800aa8a:	f47f af71 	bne.w	800a970 <__ssvfiscanf_r+0x60>
 800aa8e:	e01d      	b.n	800aacc <__ssvfiscanf_r+0x1bc>
 800aa90:	2b75      	cmp	r3, #117	; 0x75
 800aa92:	d0d1      	beq.n	800aa38 <__ssvfiscanf_r+0x128>
 800aa94:	2b78      	cmp	r3, #120	; 0x78
 800aa96:	d0c0      	beq.n	800aa1a <__ssvfiscanf_r+0x10a>
 800aa98:	2b73      	cmp	r3, #115	; 0x73
 800aa9a:	d1af      	bne.n	800a9fc <__ssvfiscanf_r+0xec>
 800aa9c:	2302      	movs	r3, #2
 800aa9e:	e7d8      	b.n	800aa52 <__ssvfiscanf_r+0x142>
 800aaa0:	6863      	ldr	r3, [r4, #4]
 800aaa2:	2b00      	cmp	r3, #0
 800aaa4:	dd0c      	ble.n	800aac0 <__ssvfiscanf_r+0x1b0>
 800aaa6:	6823      	ldr	r3, [r4, #0]
 800aaa8:	781a      	ldrb	r2, [r3, #0]
 800aaaa:	455a      	cmp	r2, fp
 800aaac:	d175      	bne.n	800ab9a <__ssvfiscanf_r+0x28a>
 800aaae:	3301      	adds	r3, #1
 800aab0:	6862      	ldr	r2, [r4, #4]
 800aab2:	6023      	str	r3, [r4, #0]
 800aab4:	9b45      	ldr	r3, [sp, #276]	; 0x114
 800aab6:	3a01      	subs	r2, #1
 800aab8:	3301      	adds	r3, #1
 800aaba:	6062      	str	r2, [r4, #4]
 800aabc:	9345      	str	r3, [sp, #276]	; 0x114
 800aabe:	e757      	b.n	800a970 <__ssvfiscanf_r+0x60>
 800aac0:	9ba1      	ldr	r3, [sp, #644]	; 0x284
 800aac2:	4621      	mov	r1, r4
 800aac4:	4630      	mov	r0, r6
 800aac6:	4798      	blx	r3
 800aac8:	2800      	cmp	r0, #0
 800aaca:	d0ec      	beq.n	800aaa6 <__ssvfiscanf_r+0x196>
 800aacc:	9844      	ldr	r0, [sp, #272]	; 0x110
 800aace:	2800      	cmp	r0, #0
 800aad0:	d159      	bne.n	800ab86 <__ssvfiscanf_r+0x276>
 800aad2:	f04f 30ff 	mov.w	r0, #4294967295
 800aad6:	e05c      	b.n	800ab92 <__ssvfiscanf_r+0x282>
 800aad8:	9a41      	ldr	r2, [sp, #260]	; 0x104
 800aada:	f042 0220 	orr.w	r2, r2, #32
 800aade:	9241      	str	r2, [sp, #260]	; 0x104
 800aae0:	e79b      	b.n	800aa1a <__ssvfiscanf_r+0x10a>
 800aae2:	2308      	movs	r3, #8
 800aae4:	9342      	str	r3, [sp, #264]	; 0x108
 800aae6:	2304      	movs	r3, #4
 800aae8:	e7b3      	b.n	800aa52 <__ssvfiscanf_r+0x142>
 800aaea:	4629      	mov	r1, r5
 800aaec:	4640      	mov	r0, r8
 800aaee:	f000 f9c7 	bl	800ae80 <__sccl>
 800aaf2:	9b41      	ldr	r3, [sp, #260]	; 0x104
 800aaf4:	4605      	mov	r5, r0
 800aaf6:	f043 0340 	orr.w	r3, r3, #64	; 0x40
 800aafa:	9341      	str	r3, [sp, #260]	; 0x104
 800aafc:	2301      	movs	r3, #1
 800aafe:	e7a8      	b.n	800aa52 <__ssvfiscanf_r+0x142>
 800ab00:	9b41      	ldr	r3, [sp, #260]	; 0x104
 800ab02:	f043 0340 	orr.w	r3, r3, #64	; 0x40
 800ab06:	9341      	str	r3, [sp, #260]	; 0x104
 800ab08:	2300      	movs	r3, #0
 800ab0a:	e7a2      	b.n	800aa52 <__ssvfiscanf_r+0x142>
 800ab0c:	9841      	ldr	r0, [sp, #260]	; 0x104
 800ab0e:	06c3      	lsls	r3, r0, #27
 800ab10:	f53f af2e 	bmi.w	800a970 <__ssvfiscanf_r+0x60>
 800ab14:	9b00      	ldr	r3, [sp, #0]
 800ab16:	9a45      	ldr	r2, [sp, #276]	; 0x114
 800ab18:	1d19      	adds	r1, r3, #4
 800ab1a:	9100      	str	r1, [sp, #0]
 800ab1c:	681b      	ldr	r3, [r3, #0]
 800ab1e:	07c0      	lsls	r0, r0, #31
 800ab20:	bf4c      	ite	mi
 800ab22:	801a      	strhmi	r2, [r3, #0]
 800ab24:	601a      	strpl	r2, [r3, #0]
 800ab26:	e723      	b.n	800a970 <__ssvfiscanf_r+0x60>
 800ab28:	2305      	movs	r3, #5
 800ab2a:	e792      	b.n	800aa52 <__ssvfiscanf_r+0x142>
 800ab2c:	9ba1      	ldr	r3, [sp, #644]	; 0x284
 800ab2e:	4621      	mov	r1, r4
 800ab30:	4630      	mov	r0, r6
 800ab32:	4798      	blx	r3
 800ab34:	2800      	cmp	r0, #0
 800ab36:	d090      	beq.n	800aa5a <__ssvfiscanf_r+0x14a>
 800ab38:	e7c8      	b.n	800aacc <__ssvfiscanf_r+0x1bc>
 800ab3a:	9a45      	ldr	r2, [sp, #276]	; 0x114
 800ab3c:	3201      	adds	r2, #1
 800ab3e:	9245      	str	r2, [sp, #276]	; 0x114
 800ab40:	6862      	ldr	r2, [r4, #4]
 800ab42:	3a01      	subs	r2, #1
 800ab44:	2a00      	cmp	r2, #0
 800ab46:	6062      	str	r2, [r4, #4]
 800ab48:	dd02      	ble.n	800ab50 <__ssvfiscanf_r+0x240>
 800ab4a:	3301      	adds	r3, #1
 800ab4c:	6023      	str	r3, [r4, #0]
 800ab4e:	e787      	b.n	800aa60 <__ssvfiscanf_r+0x150>
 800ab50:	9ba1      	ldr	r3, [sp, #644]	; 0x284
 800ab52:	4621      	mov	r1, r4
 800ab54:	4630      	mov	r0, r6
 800ab56:	4798      	blx	r3
 800ab58:	2800      	cmp	r0, #0
 800ab5a:	d081      	beq.n	800aa60 <__ssvfiscanf_r+0x150>
 800ab5c:	e7b6      	b.n	800aacc <__ssvfiscanf_r+0x1bc>
 800ab5e:	2b04      	cmp	r3, #4
 800ab60:	dc06      	bgt.n	800ab70 <__ssvfiscanf_r+0x260>
 800ab62:	466b      	mov	r3, sp
 800ab64:	4622      	mov	r2, r4
 800ab66:	a941      	add	r1, sp, #260	; 0x104
 800ab68:	4630      	mov	r0, r6
 800ab6a:	f000 f883 	bl	800ac74 <_scanf_i>
 800ab6e:	e788      	b.n	800aa82 <__ssvfiscanf_r+0x172>
 800ab70:	4b0e      	ldr	r3, [pc, #56]	; (800abac <__ssvfiscanf_r+0x29c>)
 800ab72:	2b00      	cmp	r3, #0
 800ab74:	f43f aefc 	beq.w	800a970 <__ssvfiscanf_r+0x60>
 800ab78:	466b      	mov	r3, sp
 800ab7a:	4622      	mov	r2, r4
 800ab7c:	a941      	add	r1, sp, #260	; 0x104
 800ab7e:	4630      	mov	r0, r6
 800ab80:	f3af 8000 	nop.w
 800ab84:	e77d      	b.n	800aa82 <__ssvfiscanf_r+0x172>
 800ab86:	89a3      	ldrh	r3, [r4, #12]
 800ab88:	f013 0f40 	tst.w	r3, #64	; 0x40
 800ab8c:	bf18      	it	ne
 800ab8e:	f04f 30ff 	movne.w	r0, #4294967295
 800ab92:	f50d 7d23 	add.w	sp, sp, #652	; 0x28c
 800ab96:	e8bd 8ff0 	ldmia.w	sp!, {r4, r5, r6, r7, r8, r9, sl, fp, pc}
 800ab9a:	9844      	ldr	r0, [sp, #272]	; 0x110
 800ab9c:	e7f9      	b.n	800ab92 <__ssvfiscanf_r+0x282>
 800ab9e:	bf00      	nop
 800aba0:	0800a85d 	.word	0x0800a85d
 800aba4:	0800a8d7 	.word	0x0800a8d7
 800aba8:	0800c57c 	.word	0x0800c57c
 800abac:	00000000 	.word	0x00000000

0800abb0 <_scanf_chars>:
 800abb0:	e92d 41f0 	stmdb	sp!, {r4, r5, r6, r7, r8, lr}
 800abb4:	4615      	mov	r5, r2
 800abb6:	688a      	ldr	r2, [r1, #8]
 800abb8:	4680      	mov	r8, r0
 800abba:	460c      	mov	r4, r1
 800abbc:	b932      	cbnz	r2, 800abcc <_scanf_chars+0x1c>
 800abbe:	698a      	ldr	r2, [r1, #24]
 800abc0:	2a00      	cmp	r2, #0
 800abc2:	bf14      	ite	ne
 800abc4:	f04f 32ff 	movne.w	r2, #4294967295
 800abc8:	2201      	moveq	r2, #1
 800abca:	608a      	str	r2, [r1, #8]
 800abcc:	2600      	movs	r6, #0
 800abce:	6822      	ldr	r2, [r4, #0]
 800abd0:	06d1      	lsls	r1, r2, #27
 800abd2:	bf5f      	itttt	pl
 800abd4:	681a      	ldrpl	r2, [r3, #0]
 800abd6:	1d11      	addpl	r1, r2, #4
 800abd8:	6019      	strpl	r1, [r3, #0]
 800abda:	6817      	ldrpl	r7, [r2, #0]
 800abdc:	69a3      	ldr	r3, [r4, #24]
 800abde:	b1db      	cbz	r3, 800ac18 <_scanf_chars+0x68>
 800abe0:	2b01      	cmp	r3, #1
 800abe2:	d107      	bne.n	800abf4 <_scanf_chars+0x44>
 800abe4:	682b      	ldr	r3, [r5, #0]
 800abe6:	6962      	ldr	r2, [r4, #20]
 800abe8:	781b      	ldrb	r3, [r3, #0]
 800abea:	5cd3      	ldrb	r3, [r2, r3]
 800abec:	b9a3      	cbnz	r3, 800ac18 <_scanf_chars+0x68>
 800abee:	2e00      	cmp	r6, #0
 800abf0:	d131      	bne.n	800ac56 <_scanf_chars+0xa6>
 800abf2:	e006      	b.n	800ac02 <_scanf_chars+0x52>
 800abf4:	2b02      	cmp	r3, #2
 800abf6:	d007      	beq.n	800ac08 <_scanf_chars+0x58>
 800abf8:	2e00      	cmp	r6, #0
 800abfa:	d12c      	bne.n	800ac56 <_scanf_chars+0xa6>
 800abfc:	69a3      	ldr	r3, [r4, #24]
 800abfe:	2b01      	cmp	r3, #1
 800ac00:	d129      	bne.n	800ac56 <_scanf_chars+0xa6>
 800ac02:	2001      	movs	r0, #1
 800ac04:	e8bd 81f0 	ldmia.w	sp!, {r4, r5, r6, r7, r8, pc}
 800ac08:	f7ff f9a6 	bl	8009f58 <__locale_ctype_ptr>
 800ac0c:	682b      	ldr	r3, [r5, #0]
 800ac0e:	781b      	ldrb	r3, [r3, #0]
 800ac10:	4418      	add	r0, r3
 800ac12:	7843      	ldrb	r3, [r0, #1]
 800ac14:	071b      	lsls	r3, r3, #28
 800ac16:	d4ef      	bmi.n	800abf8 <_scanf_chars+0x48>
 800ac18:	6823      	ldr	r3, [r4, #0]
 800ac1a:	3601      	adds	r6, #1
 800ac1c:	06da      	lsls	r2, r3, #27
 800ac1e:	bf5e      	ittt	pl
 800ac20:	682b      	ldrpl	r3, [r5, #0]
 800ac22:	781b      	ldrbpl	r3, [r3, #0]
 800ac24:	703b      	strbpl	r3, [r7, #0]
 800ac26:	682a      	ldr	r2, [r5, #0]
 800ac28:	686b      	ldr	r3, [r5, #4]
 800ac2a:	f102 0201 	add.w	r2, r2, #1
 800ac2e:	602a      	str	r2, [r5, #0]
 800ac30:	68a2      	ldr	r2, [r4, #8]
 800ac32:	f103 33ff 	add.w	r3, r3, #4294967295
 800ac36:	f102 32ff 	add.w	r2, r2, #4294967295
 800ac3a:	606b      	str	r3, [r5, #4]
 800ac3c:	bf58      	it	pl
 800ac3e:	3701      	addpl	r7, #1
 800ac40:	60a2      	str	r2, [r4, #8]
 800ac42:	b142      	cbz	r2, 800ac56 <_scanf_chars+0xa6>
 800ac44:	2b00      	cmp	r3, #0
 800ac46:	dcc9      	bgt.n	800abdc <_scanf_chars+0x2c>
 800ac48:	f8d4 3180 	ldr.w	r3, [r4, #384]	; 0x180
 800ac4c:	4629      	mov	r1, r5
 800ac4e:	4640      	mov	r0, r8
 800ac50:	4798      	blx	r3
 800ac52:	2800      	cmp	r0, #0
 800ac54:	d0c2      	beq.n	800abdc <_scanf_chars+0x2c>
 800ac56:	6823      	ldr	r3, [r4, #0]
 800ac58:	f013 0310 	ands.w	r3, r3, #16
 800ac5c:	d105      	bne.n	800ac6a <_scanf_chars+0xba>
 800ac5e:	68e2      	ldr	r2, [r4, #12]
 800ac60:	3201      	adds	r2, #1
 800ac62:	60e2      	str	r2, [r4, #12]
 800ac64:	69a2      	ldr	r2, [r4, #24]
 800ac66:	b102      	cbz	r2, 800ac6a <_scanf_chars+0xba>
 800ac68:	703b      	strb	r3, [r7, #0]
 800ac6a:	6923      	ldr	r3, [r4, #16]
 800ac6c:	2000      	movs	r0, #0
 800ac6e:	441e      	add	r6, r3
 800ac70:	6126      	str	r6, [r4, #16]
 800ac72:	e7c7      	b.n	800ac04 <_scanf_chars+0x54>

0800ac74 <_scanf_i>:
 800ac74:	e92d 4ff0 	stmdb	sp!, {r4, r5, r6, r7, r8, r9, sl, fp, lr}
 800ac78:	460c      	mov	r4, r1
 800ac7a:	469a      	mov	sl, r3
 800ac7c:	4b74      	ldr	r3, [pc, #464]	; (800ae50 <_scanf_i+0x1dc>)
 800ac7e:	b087      	sub	sp, #28
 800ac80:	4683      	mov	fp, r0
 800ac82:	4616      	mov	r6, r2
 800ac84:	e893 0007 	ldmia.w	r3, {r0, r1, r2}
 800ac88:	ab03      	add	r3, sp, #12
 800ac8a:	68a7      	ldr	r7, [r4, #8]
 800ac8c:	e883 0007 	stmia.w	r3, {r0, r1, r2}
 800ac90:	4b70      	ldr	r3, [pc, #448]	; (800ae54 <_scanf_i+0x1e0>)
 800ac92:	69a1      	ldr	r1, [r4, #24]
 800ac94:	4a70      	ldr	r2, [pc, #448]	; (800ae58 <_scanf_i+0x1e4>)
 800ac96:	f104 091c 	add.w	r9, r4, #28
 800ac9a:	2903      	cmp	r1, #3
 800ac9c:	bf08      	it	eq
 800ac9e:	461a      	moveq	r2, r3
 800aca0:	1e7b      	subs	r3, r7, #1
 800aca2:	f5b3 7fae 	cmp.w	r3, #348	; 0x15c
 800aca6:	bf84      	itt	hi
 800aca8:	f240 135d 	movwhi	r3, #349	; 0x15d
 800acac:	60a3      	strhi	r3, [r4, #8]
 800acae:	6823      	ldr	r3, [r4, #0]
 800acb0:	bf88      	it	hi
 800acb2:	f46f 75ae 	mvnhi.w	r5, #348	; 0x15c
 800acb6:	f443 6350 	orr.w	r3, r3, #3328	; 0xd00
 800acba:	6023      	str	r3, [r4, #0]
 800acbc:	bf98      	it	ls
 800acbe:	2700      	movls	r7, #0
 800acc0:	464b      	mov	r3, r9
 800acc2:	f04f 0800 	mov.w	r8, #0
 800acc6:	9200      	str	r2, [sp, #0]
 800acc8:	bf88      	it	hi
 800acca:	197f      	addhi	r7, r7, r5
 800accc:	6831      	ldr	r1, [r6, #0]
 800acce:	9301      	str	r3, [sp, #4]
 800acd0:	ab03      	add	r3, sp, #12
 800acd2:	f853 0028 	ldr.w	r0, [r3, r8, lsl #2]
 800acd6:	2202      	movs	r2, #2
 800acd8:	7809      	ldrb	r1, [r1, #0]
 800acda:	f000 f9ef 	bl	800b0bc <memchr>
 800acde:	9b01      	ldr	r3, [sp, #4]
 800ace0:	b330      	cbz	r0, 800ad30 <_scanf_i+0xbc>
 800ace2:	f1b8 0f01 	cmp.w	r8, #1
 800ace6:	d15a      	bne.n	800ad9e <_scanf_i+0x12a>
 800ace8:	6862      	ldr	r2, [r4, #4]
 800acea:	b92a      	cbnz	r2, 800acf8 <_scanf_i+0x84>
 800acec:	2108      	movs	r1, #8
 800acee:	6822      	ldr	r2, [r4, #0]
 800acf0:	6061      	str	r1, [r4, #4]
 800acf2:	f442 7200 	orr.w	r2, r2, #512	; 0x200
 800acf6:	6022      	str	r2, [r4, #0]
 800acf8:	6822      	ldr	r2, [r4, #0]
 800acfa:	f422 62a0 	bic.w	r2, r2, #1280	; 0x500
 800acfe:	6022      	str	r2, [r4, #0]
 800ad00:	68a2      	ldr	r2, [r4, #8]
 800ad02:	1e51      	subs	r1, r2, #1
 800ad04:	60a1      	str	r1, [r4, #8]
 800ad06:	b19a      	cbz	r2, 800ad30 <_scanf_i+0xbc>
 800ad08:	6832      	ldr	r2, [r6, #0]
 800ad0a:	1c5d      	adds	r5, r3, #1
 800ad0c:	1c51      	adds	r1, r2, #1
 800ad0e:	6031      	str	r1, [r6, #0]
 800ad10:	7812      	ldrb	r2, [r2, #0]
 800ad12:	701a      	strb	r2, [r3, #0]
 800ad14:	6873      	ldr	r3, [r6, #4]
 800ad16:	3b01      	subs	r3, #1
 800ad18:	2b00      	cmp	r3, #0
 800ad1a:	6073      	str	r3, [r6, #4]
 800ad1c:	dc07      	bgt.n	800ad2e <_scanf_i+0xba>
 800ad1e:	f8d4 3180 	ldr.w	r3, [r4, #384]	; 0x180
 800ad22:	4631      	mov	r1, r6
 800ad24:	4658      	mov	r0, fp
 800ad26:	4798      	blx	r3
 800ad28:	2800      	cmp	r0, #0
 800ad2a:	f040 8087 	bne.w	800ae3c <_scanf_i+0x1c8>
 800ad2e:	462b      	mov	r3, r5
 800ad30:	f108 0801 	add.w	r8, r8, #1
 800ad34:	f1b8 0f03 	cmp.w	r8, #3
 800ad38:	d1c8      	bne.n	800accc <_scanf_i+0x58>
 800ad3a:	6862      	ldr	r2, [r4, #4]
 800ad3c:	b90a      	cbnz	r2, 800ad42 <_scanf_i+0xce>
 800ad3e:	220a      	movs	r2, #10
 800ad40:	6062      	str	r2, [r4, #4]
 800ad42:	6862      	ldr	r2, [r4, #4]
 800ad44:	4945      	ldr	r1, [pc, #276]	; (800ae5c <_scanf_i+0x1e8>)
 800ad46:	6960      	ldr	r0, [r4, #20]
 800ad48:	1a89      	subs	r1, r1, r2
 800ad4a:	9301      	str	r3, [sp, #4]
 800ad4c:	f000 f898 	bl	800ae80 <__sccl>
 800ad50:	9b01      	ldr	r3, [sp, #4]
 800ad52:	f04f 0800 	mov.w	r8, #0
 800ad56:	461d      	mov	r5, r3
 800ad58:	68a3      	ldr	r3, [r4, #8]
 800ad5a:	6822      	ldr	r2, [r4, #0]
 800ad5c:	2b00      	cmp	r3, #0
 800ad5e:	d03b      	beq.n	800add8 <_scanf_i+0x164>
 800ad60:	6831      	ldr	r1, [r6, #0]
 800ad62:	6960      	ldr	r0, [r4, #20]
 800ad64:	f891 c000 	ldrb.w	ip, [r1]
 800ad68:	f810 000c 	ldrb.w	r0, [r0, ip]
 800ad6c:	2800      	cmp	r0, #0
 800ad6e:	d033      	beq.n	800add8 <_scanf_i+0x164>
 800ad70:	f1bc 0f30 	cmp.w	ip, #48	; 0x30
 800ad74:	d121      	bne.n	800adba <_scanf_i+0x146>
 800ad76:	0510      	lsls	r0, r2, #20
 800ad78:	d51f      	bpl.n	800adba <_scanf_i+0x146>
 800ad7a:	f108 0801 	add.w	r8, r8, #1
 800ad7e:	b117      	cbz	r7, 800ad86 <_scanf_i+0x112>
 800ad80:	3301      	adds	r3, #1
 800ad82:	3f01      	subs	r7, #1
 800ad84:	60a3      	str	r3, [r4, #8]
 800ad86:	6873      	ldr	r3, [r6, #4]
 800ad88:	3b01      	subs	r3, #1
 800ad8a:	2b00      	cmp	r3, #0
 800ad8c:	6073      	str	r3, [r6, #4]
 800ad8e:	dd1c      	ble.n	800adca <_scanf_i+0x156>
 800ad90:	6833      	ldr	r3, [r6, #0]
 800ad92:	3301      	adds	r3, #1
 800ad94:	6033      	str	r3, [r6, #0]
 800ad96:	68a3      	ldr	r3, [r4, #8]
 800ad98:	3b01      	subs	r3, #1
 800ad9a:	60a3      	str	r3, [r4, #8]
 800ad9c:	e7dc      	b.n	800ad58 <_scanf_i+0xe4>
 800ad9e:	f1b8 0f02 	cmp.w	r8, #2
 800ada2:	d1ad      	bne.n	800ad00 <_scanf_i+0x8c>
 800ada4:	6822      	ldr	r2, [r4, #0]
 800ada6:	f402 61c0 	and.w	r1, r2, #1536	; 0x600
 800adaa:	f5b1 7f00 	cmp.w	r1, #512	; 0x200
 800adae:	d1bf      	bne.n	800ad30 <_scanf_i+0xbc>
 800adb0:	2110      	movs	r1, #16
 800adb2:	f442 7280 	orr.w	r2, r2, #256	; 0x100
 800adb6:	6061      	str	r1, [r4, #4]
 800adb8:	e7a1      	b.n	800acfe <_scanf_i+0x8a>
 800adba:	f422 6210 	bic.w	r2, r2, #2304	; 0x900
 800adbe:	6022      	str	r2, [r4, #0]
 800adc0:	780b      	ldrb	r3, [r1, #0]
 800adc2:	3501      	adds	r5, #1
 800adc4:	f805 3c01 	strb.w	r3, [r5, #-1]
 800adc8:	e7dd      	b.n	800ad86 <_scanf_i+0x112>
 800adca:	f8d4 3180 	ldr.w	r3, [r4, #384]	; 0x180
 800adce:	4631      	mov	r1, r6
 800add0:	4658      	mov	r0, fp
 800add2:	4798      	blx	r3
 800add4:	2800      	cmp	r0, #0
 800add6:	d0de      	beq.n	800ad96 <_scanf_i+0x122>
 800add8:	6823      	ldr	r3, [r4, #0]
 800adda:	05d9      	lsls	r1, r3, #23
 800addc:	d50c      	bpl.n	800adf8 <_scanf_i+0x184>
 800adde:	454d      	cmp	r5, r9
 800ade0:	d908      	bls.n	800adf4 <_scanf_i+0x180>
 800ade2:	f815 1c01 	ldrb.w	r1, [r5, #-1]
 800ade6:	1e6f      	subs	r7, r5, #1
 800ade8:	f8d4 317c 	ldr.w	r3, [r4, #380]	; 0x17c
 800adec:	4632      	mov	r2, r6
 800adee:	4658      	mov	r0, fp
 800adf0:	4798      	blx	r3
 800adf2:	463d      	mov	r5, r7
 800adf4:	454d      	cmp	r5, r9
 800adf6:	d029      	beq.n	800ae4c <_scanf_i+0x1d8>
 800adf8:	6822      	ldr	r2, [r4, #0]
 800adfa:	f012 0210 	ands.w	r2, r2, #16
 800adfe:	d113      	bne.n	800ae28 <_scanf_i+0x1b4>
 800ae00:	702a      	strb	r2, [r5, #0]
 800ae02:	6863      	ldr	r3, [r4, #4]
 800ae04:	4649      	mov	r1, r9
 800ae06:	4658      	mov	r0, fp
 800ae08:	9e00      	ldr	r6, [sp, #0]
 800ae0a:	47b0      	blx	r6
 800ae0c:	f8da 3000 	ldr.w	r3, [sl]
 800ae10:	6821      	ldr	r1, [r4, #0]
 800ae12:	1d1a      	adds	r2, r3, #4
 800ae14:	f8ca 2000 	str.w	r2, [sl]
 800ae18:	f011 0f20 	tst.w	r1, #32
 800ae1c:	681b      	ldr	r3, [r3, #0]
 800ae1e:	d010      	beq.n	800ae42 <_scanf_i+0x1ce>
 800ae20:	6018      	str	r0, [r3, #0]
 800ae22:	68e3      	ldr	r3, [r4, #12]
 800ae24:	3301      	adds	r3, #1
 800ae26:	60e3      	str	r3, [r4, #12]
 800ae28:	2000      	movs	r0, #0
 800ae2a:	eba5 0509 	sub.w	r5, r5, r9
 800ae2e:	44a8      	add	r8, r5
 800ae30:	6925      	ldr	r5, [r4, #16]
 800ae32:	4445      	add	r5, r8
 800ae34:	6125      	str	r5, [r4, #16]
 800ae36:	b007      	add	sp, #28
 800ae38:	e8bd 8ff0 	ldmia.w	sp!, {r4, r5, r6, r7, r8, r9, sl, fp, pc}
 800ae3c:	f04f 0800 	mov.w	r8, #0
 800ae40:	e7ca      	b.n	800add8 <_scanf_i+0x164>
 800ae42:	07ca      	lsls	r2, r1, #31
 800ae44:	bf4c      	ite	mi
 800ae46:	8018      	strhmi	r0, [r3, #0]
 800ae48:	6018      	strpl	r0, [r3, #0]
 800ae4a:	e7ea      	b.n	800ae22 <_scanf_i+0x1ae>
 800ae4c:	2001      	movs	r0, #1
 800ae4e:	e7f2      	b.n	800ae36 <_scanf_i+0x1c2>
 800ae50:	0800b710 	.word	0x0800b710
 800ae54:	08009835 	.word	0x08009835
 800ae58:	0800affd 	.word	0x0800affd
 800ae5c:	0800c590 	.word	0x0800c590

0800ae60 <_sbrk_r>:
 800ae60:	b538      	push	{r3, r4, r5, lr}
 800ae62:	2300      	movs	r3, #0
 800ae64:	4c05      	ldr	r4, [pc, #20]	; (800ae7c <_sbrk_r+0x1c>)
 800ae66:	4605      	mov	r5, r0
 800ae68:	4608      	mov	r0, r1
 800ae6a:	6023      	str	r3, [r4, #0]
 800ae6c:	f7f7 fef2 	bl	8002c54 <_sbrk>
 800ae70:	1c43      	adds	r3, r0, #1
 800ae72:	d102      	bne.n	800ae7a <_sbrk_r+0x1a>
 800ae74:	6823      	ldr	r3, [r4, #0]
 800ae76:	b103      	cbz	r3, 800ae7a <_sbrk_r+0x1a>
 800ae78:	602b      	str	r3, [r5, #0]
 800ae7a:	bd38      	pop	{r3, r4, r5, pc}
 800ae7c:	20001c2c 	.word	0x20001c2c

0800ae80 <__sccl>:
 800ae80:	b570      	push	{r4, r5, r6, lr}
 800ae82:	780b      	ldrb	r3, [r1, #0]
 800ae84:	1e44      	subs	r4, r0, #1
 800ae86:	2b5e      	cmp	r3, #94	; 0x5e
 800ae88:	bf13      	iteet	ne
 800ae8a:	1c4a      	addne	r2, r1, #1
 800ae8c:	1c8a      	addeq	r2, r1, #2
 800ae8e:	784b      	ldrbeq	r3, [r1, #1]
 800ae90:	2100      	movne	r1, #0
 800ae92:	bf08      	it	eq
 800ae94:	2101      	moveq	r1, #1
 800ae96:	f100 05ff 	add.w	r5, r0, #255	; 0xff
 800ae9a:	f804 1f01 	strb.w	r1, [r4, #1]!
 800ae9e:	42ac      	cmp	r4, r5
 800aea0:	d1fb      	bne.n	800ae9a <__sccl+0x1a>
 800aea2:	b913      	cbnz	r3, 800aeaa <__sccl+0x2a>
 800aea4:	3a01      	subs	r2, #1
 800aea6:	4610      	mov	r0, r2
 800aea8:	bd70      	pop	{r4, r5, r6, pc}
 800aeaa:	f081 0401 	eor.w	r4, r1, #1
 800aeae:	54c4      	strb	r4, [r0, r3]
 800aeb0:	1c51      	adds	r1, r2, #1
 800aeb2:	f811 5c01 	ldrb.w	r5, [r1, #-1]
 800aeb6:	1e4e      	subs	r6, r1, #1
 800aeb8:	2d2d      	cmp	r5, #45	; 0x2d
 800aeba:	460a      	mov	r2, r1
 800aebc:	d006      	beq.n	800aecc <__sccl+0x4c>
 800aebe:	2d5d      	cmp	r5, #93	; 0x5d
 800aec0:	d0f1      	beq.n	800aea6 <__sccl+0x26>
 800aec2:	b90d      	cbnz	r5, 800aec8 <__sccl+0x48>
 800aec4:	4632      	mov	r2, r6
 800aec6:	e7ee      	b.n	800aea6 <__sccl+0x26>
 800aec8:	462b      	mov	r3, r5
 800aeca:	e7f0      	b.n	800aeae <__sccl+0x2e>
 800aecc:	780e      	ldrb	r6, [r1, #0]
 800aece:	2e5d      	cmp	r6, #93	; 0x5d
 800aed0:	d0fa      	beq.n	800aec8 <__sccl+0x48>
 800aed2:	42b3      	cmp	r3, r6
 800aed4:	dcf8      	bgt.n	800aec8 <__sccl+0x48>
 800aed6:	3301      	adds	r3, #1
 800aed8:	429e      	cmp	r6, r3
 800aeda:	54c4      	strb	r4, [r0, r3]
 800aedc:	dcfb      	bgt.n	800aed6 <__sccl+0x56>
 800aede:	3102      	adds	r1, #2
 800aee0:	e7e7      	b.n	800aeb2 <__sccl+0x32>

0800aee2 <strncmp>:
 800aee2:	b510      	push	{r4, lr}
 800aee4:	b16a      	cbz	r2, 800af02 <strncmp+0x20>
 800aee6:	3901      	subs	r1, #1
 800aee8:	1884      	adds	r4, r0, r2
 800aeea:	f810 3b01 	ldrb.w	r3, [r0], #1
 800aeee:	f811 2f01 	ldrb.w	r2, [r1, #1]!
 800aef2:	4293      	cmp	r3, r2
 800aef4:	d103      	bne.n	800aefe <strncmp+0x1c>
 800aef6:	42a0      	cmp	r0, r4
 800aef8:	d001      	beq.n	800aefe <strncmp+0x1c>
 800aefa:	2b00      	cmp	r3, #0
 800aefc:	d1f5      	bne.n	800aeea <strncmp+0x8>
 800aefe:	1a98      	subs	r0, r3, r2
 800af00:	bd10      	pop	{r4, pc}
 800af02:	4610      	mov	r0, r2
 800af04:	e7fc      	b.n	800af00 <strncmp+0x1e>

0800af06 <_strtoul_l.isra.0>:
 800af06:	e92d 47f0 	stmdb	sp!, {r4, r5, r6, r7, r8, r9, sl, lr}
 800af0a:	4680      	mov	r8, r0
 800af0c:	4689      	mov	r9, r1
 800af0e:	4692      	mov	sl, r2
 800af10:	461e      	mov	r6, r3
 800af12:	460f      	mov	r7, r1
 800af14:	463d      	mov	r5, r7
 800af16:	9808      	ldr	r0, [sp, #32]
 800af18:	f815 4b01 	ldrb.w	r4, [r5], #1
 800af1c:	f7ff f818 	bl	8009f50 <__locale_ctype_ptr_l>
 800af20:	4420      	add	r0, r4
 800af22:	7843      	ldrb	r3, [r0, #1]
 800af24:	f013 0308 	ands.w	r3, r3, #8
 800af28:	d130      	bne.n	800af8c <_strtoul_l.isra.0+0x86>
 800af2a:	2c2d      	cmp	r4, #45	; 0x2d
 800af2c:	d130      	bne.n	800af90 <_strtoul_l.isra.0+0x8a>
 800af2e:	2101      	movs	r1, #1
 800af30:	787c      	ldrb	r4, [r7, #1]
 800af32:	1cbd      	adds	r5, r7, #2
 800af34:	2e00      	cmp	r6, #0
 800af36:	d05c      	beq.n	800aff2 <_strtoul_l.isra.0+0xec>
 800af38:	2e10      	cmp	r6, #16
 800af3a:	d109      	bne.n	800af50 <_strtoul_l.isra.0+0x4a>
 800af3c:	2c30      	cmp	r4, #48	; 0x30
 800af3e:	d107      	bne.n	800af50 <_strtoul_l.isra.0+0x4a>
 800af40:	782b      	ldrb	r3, [r5, #0]
 800af42:	f003 03df 	and.w	r3, r3, #223	; 0xdf
 800af46:	2b58      	cmp	r3, #88	; 0x58
 800af48:	d14e      	bne.n	800afe8 <_strtoul_l.isra.0+0xe2>
 800af4a:	2610      	movs	r6, #16
 800af4c:	786c      	ldrb	r4, [r5, #1]
 800af4e:	3502      	adds	r5, #2
 800af50:	f04f 32ff 	mov.w	r2, #4294967295
 800af54:	fbb2 f2f6 	udiv	r2, r2, r6
 800af58:	2300      	movs	r3, #0
 800af5a:	fb06 fc02 	mul.w	ip, r6, r2
 800af5e:	4618      	mov	r0, r3
 800af60:	ea6f 0c0c 	mvn.w	ip, ip
 800af64:	f1a4 0730 	sub.w	r7, r4, #48	; 0x30
 800af68:	2f09      	cmp	r7, #9
 800af6a:	d817      	bhi.n	800af9c <_strtoul_l.isra.0+0x96>
 800af6c:	463c      	mov	r4, r7
 800af6e:	42a6      	cmp	r6, r4
 800af70:	dd23      	ble.n	800afba <_strtoul_l.isra.0+0xb4>
 800af72:	2b00      	cmp	r3, #0
 800af74:	db1e      	blt.n	800afb4 <_strtoul_l.isra.0+0xae>
 800af76:	4282      	cmp	r2, r0
 800af78:	d31c      	bcc.n	800afb4 <_strtoul_l.isra.0+0xae>
 800af7a:	d101      	bne.n	800af80 <_strtoul_l.isra.0+0x7a>
 800af7c:	45a4      	cmp	ip, r4
 800af7e:	db19      	blt.n	800afb4 <_strtoul_l.isra.0+0xae>
 800af80:	2301      	movs	r3, #1
 800af82:	fb00 4006 	mla	r0, r0, r6, r4
 800af86:	f815 4b01 	ldrb.w	r4, [r5], #1
 800af8a:	e7eb      	b.n	800af64 <_strtoul_l.isra.0+0x5e>
 800af8c:	462f      	mov	r7, r5
 800af8e:	e7c1      	b.n	800af14 <_strtoul_l.isra.0+0xe>
 800af90:	2c2b      	cmp	r4, #43	; 0x2b
 800af92:	bf04      	itt	eq
 800af94:	1cbd      	addeq	r5, r7, #2
 800af96:	787c      	ldrbeq	r4, [r7, #1]
 800af98:	4619      	mov	r1, r3
 800af9a:	e7cb      	b.n	800af34 <_strtoul_l.isra.0+0x2e>
 800af9c:	f1a4 0741 	sub.w	r7, r4, #65	; 0x41
 800afa0:	2f19      	cmp	r7, #25
 800afa2:	d801      	bhi.n	800afa8 <_strtoul_l.isra.0+0xa2>
 800afa4:	3c37      	subs	r4, #55	; 0x37
 800afa6:	e7e2      	b.n	800af6e <_strtoul_l.isra.0+0x68>
 800afa8:	f1a4 0761 	sub.w	r7, r4, #97	; 0x61
 800afac:	2f19      	cmp	r7, #25
 800afae:	d804      	bhi.n	800afba <_strtoul_l.isra.0+0xb4>
 800afb0:	3c57      	subs	r4, #87	; 0x57
 800afb2:	e7dc      	b.n	800af6e <_strtoul_l.isra.0+0x68>
 800afb4:	f04f 33ff 	mov.w	r3, #4294967295
 800afb8:	e7e5      	b.n	800af86 <_strtoul_l.isra.0+0x80>
 800afba:	2b00      	cmp	r3, #0
 800afbc:	da09      	bge.n	800afd2 <_strtoul_l.isra.0+0xcc>
 800afbe:	2322      	movs	r3, #34	; 0x22
 800afc0:	f04f 30ff 	mov.w	r0, #4294967295
 800afc4:	f8c8 3000 	str.w	r3, [r8]
 800afc8:	f1ba 0f00 	cmp.w	sl, #0
 800afcc:	d107      	bne.n	800afde <_strtoul_l.isra.0+0xd8>
 800afce:	e8bd 87f0 	ldmia.w	sp!, {r4, r5, r6, r7, r8, r9, sl, pc}
 800afd2:	b101      	cbz	r1, 800afd6 <_strtoul_l.isra.0+0xd0>
 800afd4:	4240      	negs	r0, r0
 800afd6:	f1ba 0f00 	cmp.w	sl, #0
 800afda:	d0f8      	beq.n	800afce <_strtoul_l.isra.0+0xc8>
 800afdc:	b10b      	cbz	r3, 800afe2 <_strtoul_l.isra.0+0xdc>
 800afde:	f105 39ff 	add.w	r9, r5, #4294967295
 800afe2:	f8ca 9000 	str.w	r9, [sl]
 800afe6:	e7f2      	b.n	800afce <_strtoul_l.isra.0+0xc8>
 800afe8:	2430      	movs	r4, #48	; 0x30
 800afea:	2e00      	cmp	r6, #0
 800afec:	d1b0      	bne.n	800af50 <_strtoul_l.isra.0+0x4a>
 800afee:	2608      	movs	r6, #8
 800aff0:	e7ae      	b.n	800af50 <_strtoul_l.isra.0+0x4a>
 800aff2:	2c30      	cmp	r4, #48	; 0x30
 800aff4:	d0a4      	beq.n	800af40 <_strtoul_l.isra.0+0x3a>
 800aff6:	260a      	movs	r6, #10
 800aff8:	e7aa      	b.n	800af50 <_strtoul_l.isra.0+0x4a>
	...

0800affc <_strtoul_r>:
 800affc:	b537      	push	{r0, r1, r2, r4, r5, lr}
 800affe:	4c06      	ldr	r4, [pc, #24]	; (800b018 <_strtoul_r+0x1c>)
 800b000:	4d06      	ldr	r5, [pc, #24]	; (800b01c <_strtoul_r+0x20>)
 800b002:	6824      	ldr	r4, [r4, #0]
 800b004:	6a24      	ldr	r4, [r4, #32]
 800b006:	2c00      	cmp	r4, #0
 800b008:	bf08      	it	eq
 800b00a:	462c      	moveq	r4, r5
 800b00c:	9400      	str	r4, [sp, #0]
 800b00e:	f7ff ff7a 	bl	800af06 <_strtoul_l.isra.0>
 800b012:	b003      	add	sp, #12
 800b014:	bd30      	pop	{r4, r5, pc}
 800b016:	bf00      	nop
 800b018:	200001b4 	.word	0x200001b4
 800b01c:	20000218 	.word	0x20000218

0800b020 <__submore>:
 800b020:	e92d 41f0 	stmdb	sp!, {r4, r5, r6, r7, r8, lr}
 800b024:	460c      	mov	r4, r1
 800b026:	6b49      	ldr	r1, [r1, #52]	; 0x34
 800b028:	f104 0344 	add.w	r3, r4, #68	; 0x44
 800b02c:	4299      	cmp	r1, r3
 800b02e:	d11b      	bne.n	800b068 <__submore+0x48>
 800b030:	f44f 6180 	mov.w	r1, #1024	; 0x400
 800b034:	f7ff fbb8 	bl	800a7a8 <_malloc_r>
 800b038:	b918      	cbnz	r0, 800b042 <__submore+0x22>
 800b03a:	f04f 30ff 	mov.w	r0, #4294967295
 800b03e:	e8bd 81f0 	ldmia.w	sp!, {r4, r5, r6, r7, r8, pc}
 800b042:	f44f 6380 	mov.w	r3, #1024	; 0x400
 800b046:	63a3      	str	r3, [r4, #56]	; 0x38
 800b048:	f894 3046 	ldrb.w	r3, [r4, #70]	; 0x46
 800b04c:	6360      	str	r0, [r4, #52]	; 0x34
 800b04e:	f880 33ff 	strb.w	r3, [r0, #1023]	; 0x3ff
 800b052:	f894 3045 	ldrb.w	r3, [r4, #69]	; 0x45
 800b056:	f200 30fd 	addw	r0, r0, #1021	; 0x3fd
 800b05a:	7043      	strb	r3, [r0, #1]
 800b05c:	f894 3044 	ldrb.w	r3, [r4, #68]	; 0x44
 800b060:	7003      	strb	r3, [r0, #0]
 800b062:	6020      	str	r0, [r4, #0]
 800b064:	2000      	movs	r0, #0
 800b066:	e7ea      	b.n	800b03e <__submore+0x1e>
 800b068:	6ba6      	ldr	r6, [r4, #56]	; 0x38
 800b06a:	0077      	lsls	r7, r6, #1
 800b06c:	463a      	mov	r2, r7
 800b06e:	f000 f881 	bl	800b174 <_realloc_r>
 800b072:	4605      	mov	r5, r0
 800b074:	2800      	cmp	r0, #0
 800b076:	d0e0      	beq.n	800b03a <__submore+0x1a>
 800b078:	eb00 0806 	add.w	r8, r0, r6
 800b07c:	4601      	mov	r1, r0
 800b07e:	4632      	mov	r2, r6
 800b080:	4640      	mov	r0, r8
 800b082:	f7fd fcbe 	bl	8008a02 <memcpy>
 800b086:	f8c4 8000 	str.w	r8, [r4]
 800b08a:	e9c4 570d 	strd	r5, r7, [r4, #52]	; 0x34
 800b08e:	e7e9      	b.n	800b064 <__submore+0x44>

0800b090 <__ascii_wctomb>:
 800b090:	b149      	cbz	r1, 800b0a6 <__ascii_wctomb+0x16>
 800b092:	2aff      	cmp	r2, #255	; 0xff
 800b094:	bf8b      	itete	hi
 800b096:	238a      	movhi	r3, #138	; 0x8a
 800b098:	700a      	strbls	r2, [r1, #0]
 800b09a:	6003      	strhi	r3, [r0, #0]
 800b09c:	2001      	movls	r0, #1
 800b09e:	bf88      	it	hi
 800b0a0:	f04f 30ff 	movhi.w	r0, #4294967295
 800b0a4:	4770      	bx	lr
 800b0a6:	4608      	mov	r0, r1
 800b0a8:	4770      	bx	lr
	...

0800b0ac <malloc>:
 800b0ac:	4b02      	ldr	r3, [pc, #8]	; (800b0b8 <malloc+0xc>)
 800b0ae:	4601      	mov	r1, r0
 800b0b0:	6818      	ldr	r0, [r3, #0]
 800b0b2:	f7ff bb79 	b.w	800a7a8 <_malloc_r>
 800b0b6:	bf00      	nop
 800b0b8:	200001b4 	.word	0x200001b4

0800b0bc <memchr>:
 800b0bc:	b510      	push	{r4, lr}
 800b0be:	b2c9      	uxtb	r1, r1
 800b0c0:	4402      	add	r2, r0
 800b0c2:	4290      	cmp	r0, r2
 800b0c4:	4603      	mov	r3, r0
 800b0c6:	d101      	bne.n	800b0cc <memchr+0x10>
 800b0c8:	2300      	movs	r3, #0
 800b0ca:	e003      	b.n	800b0d4 <memchr+0x18>
 800b0cc:	781c      	ldrb	r4, [r3, #0]
 800b0ce:	3001      	adds	r0, #1
 800b0d0:	428c      	cmp	r4, r1
 800b0d2:	d1f6      	bne.n	800b0c2 <memchr+0x6>
 800b0d4:	4618      	mov	r0, r3
 800b0d6:	bd10      	pop	{r4, pc}

0800b0d8 <__malloc_lock>:
 800b0d8:	4770      	bx	lr

0800b0da <__malloc_unlock>:
 800b0da:	4770      	bx	lr

0800b0dc <_free_r>:
 800b0dc:	b538      	push	{r3, r4, r5, lr}
 800b0de:	4605      	mov	r5, r0
 800b0e0:	2900      	cmp	r1, #0
 800b0e2:	d043      	beq.n	800b16c <_free_r+0x90>
 800b0e4:	f851 3c04 	ldr.w	r3, [r1, #-4]
 800b0e8:	1f0c      	subs	r4, r1, #4
 800b0ea:	2b00      	cmp	r3, #0
 800b0ec:	bfb8      	it	lt
 800b0ee:	18e4      	addlt	r4, r4, r3
 800b0f0:	f7ff fff2 	bl	800b0d8 <__malloc_lock>
 800b0f4:	4a1e      	ldr	r2, [pc, #120]	; (800b170 <_free_r+0x94>)
 800b0f6:	6813      	ldr	r3, [r2, #0]
 800b0f8:	4610      	mov	r0, r2
 800b0fa:	b933      	cbnz	r3, 800b10a <_free_r+0x2e>
 800b0fc:	6063      	str	r3, [r4, #4]
 800b0fe:	6014      	str	r4, [r2, #0]
 800b100:	4628      	mov	r0, r5
 800b102:	e8bd 4038 	ldmia.w	sp!, {r3, r4, r5, lr}
 800b106:	f7ff bfe8 	b.w	800b0da <__malloc_unlock>
 800b10a:	42a3      	cmp	r3, r4
 800b10c:	d90b      	bls.n	800b126 <_free_r+0x4a>
 800b10e:	6821      	ldr	r1, [r4, #0]
 800b110:	1862      	adds	r2, r4, r1
 800b112:	4293      	cmp	r3, r2
 800b114:	bf01      	itttt	eq
 800b116:	681a      	ldreq	r2, [r3, #0]
 800b118:	685b      	ldreq	r3, [r3, #4]
 800b11a:	1852      	addeq	r2, r2, r1
 800b11c:	6022      	streq	r2, [r4, #0]
 800b11e:	6063      	str	r3, [r4, #4]
 800b120:	6004      	str	r4, [r0, #0]
 800b122:	e7ed      	b.n	800b100 <_free_r+0x24>
 800b124:	4613      	mov	r3, r2
 800b126:	685a      	ldr	r2, [r3, #4]
 800b128:	b10a      	cbz	r2, 800b12e <_free_r+0x52>
 800b12a:	42a2      	cmp	r2, r4
 800b12c:	d9fa      	bls.n	800b124 <_free_r+0x48>
 800b12e:	6819      	ldr	r1, [r3, #0]
 800b130:	1858      	adds	r0, r3, r1
 800b132:	42a0      	cmp	r0, r4
 800b134:	d10b      	bne.n	800b14e <_free_r+0x72>
 800b136:	6820      	ldr	r0, [r4, #0]
 800b138:	4401      	add	r1, r0
 800b13a:	1858      	adds	r0, r3, r1
 800b13c:	4282      	cmp	r2, r0
 800b13e:	6019      	str	r1, [r3, #0]
 800b140:	d1de      	bne.n	800b100 <_free_r+0x24>
 800b142:	6810      	ldr	r0, [r2, #0]
 800b144:	6852      	ldr	r2, [r2, #4]
 800b146:	4401      	add	r1, r0
 800b148:	6019      	str	r1, [r3, #0]
 800b14a:	605a      	str	r2, [r3, #4]
 800b14c:	e7d8      	b.n	800b100 <_free_r+0x24>
 800b14e:	d902      	bls.n	800b156 <_free_r+0x7a>
 800b150:	230c      	movs	r3, #12
 800b152:	602b      	str	r3, [r5, #0]
 800b154:	e7d4      	b.n	800b100 <_free_r+0x24>
 800b156:	6820      	ldr	r0, [r4, #0]
 800b158:	1821      	adds	r1, r4, r0
 800b15a:	428a      	cmp	r2, r1
 800b15c:	bf01      	itttt	eq
 800b15e:	6811      	ldreq	r1, [r2, #0]
 800b160:	6852      	ldreq	r2, [r2, #4]
 800b162:	1809      	addeq	r1, r1, r0
 800b164:	6021      	streq	r1, [r4, #0]
 800b166:	6062      	str	r2, [r4, #4]
 800b168:	605c      	str	r4, [r3, #4]
 800b16a:	e7c9      	b.n	800b100 <_free_r+0x24>
 800b16c:	bd38      	pop	{r3, r4, r5, pc}
 800b16e:	bf00      	nop
 800b170:	200005e8 	.word	0x200005e8

0800b174 <_realloc_r>:
 800b174:	b5f8      	push	{r3, r4, r5, r6, r7, lr}
 800b176:	4607      	mov	r7, r0
 800b178:	4614      	mov	r4, r2
 800b17a:	460e      	mov	r6, r1
 800b17c:	b921      	cbnz	r1, 800b188 <_realloc_r+0x14>
 800b17e:	e8bd 40f8 	ldmia.w	sp!, {r3, r4, r5, r6, r7, lr}
 800b182:	4611      	mov	r1, r2
 800b184:	f7ff bb10 	b.w	800a7a8 <_malloc_r>
 800b188:	b922      	cbnz	r2, 800b194 <_realloc_r+0x20>
 800b18a:	f7ff ffa7 	bl	800b0dc <_free_r>
 800b18e:	4625      	mov	r5, r4
 800b190:	4628      	mov	r0, r5
 800b192:	bdf8      	pop	{r3, r4, r5, r6, r7, pc}
 800b194:	f000 f814 	bl	800b1c0 <_malloc_usable_size_r>
 800b198:	42a0      	cmp	r0, r4
 800b19a:	d20f      	bcs.n	800b1bc <_realloc_r+0x48>
 800b19c:	4621      	mov	r1, r4
 800b19e:	4638      	mov	r0, r7
 800b1a0:	f7ff fb02 	bl	800a7a8 <_malloc_r>
 800b1a4:	4605      	mov	r5, r0
 800b1a6:	2800      	cmp	r0, #0
 800b1a8:	d0f2      	beq.n	800b190 <_realloc_r+0x1c>
 800b1aa:	4631      	mov	r1, r6
 800b1ac:	4622      	mov	r2, r4
 800b1ae:	f7fd fc28 	bl	8008a02 <memcpy>
 800b1b2:	4631      	mov	r1, r6
 800b1b4:	4638      	mov	r0, r7
 800b1b6:	f7ff ff91 	bl	800b0dc <_free_r>
 800b1ba:	e7e9      	b.n	800b190 <_realloc_r+0x1c>
 800b1bc:	4635      	mov	r5, r6
 800b1be:	e7e7      	b.n	800b190 <_realloc_r+0x1c>

0800b1c0 <_malloc_usable_size_r>:
 800b1c0:	f851 3c04 	ldr.w	r3, [r1, #-4]
 800b1c4:	1f18      	subs	r0, r3, #4
 800b1c6:	2b00      	cmp	r3, #0
 800b1c8:	bfbc      	itt	lt
 800b1ca:	580b      	ldrlt	r3, [r1, r0]
 800b1cc:	18c0      	addlt	r0, r0, r3
 800b1ce:	4770      	bx	lr

0800b1d0 <fmod>:
 800b1d0:	e92d 4ff0 	stmdb	sp!, {r4, r5, r6, r7, r8, r9, sl, fp, lr}
 800b1d4:	b08b      	sub	sp, #44	; 0x2c
 800b1d6:	461f      	mov	r7, r3
 800b1d8:	4604      	mov	r4, r0
 800b1da:	460d      	mov	r5, r1
 800b1dc:	4616      	mov	r6, r2
 800b1de:	f000 f8a7 	bl	800b330 <__ieee754_fmod>
 800b1e2:	4b27      	ldr	r3, [pc, #156]	; (800b280 <fmod+0xb0>)
 800b1e4:	4680      	mov	r8, r0
 800b1e6:	f993 a000 	ldrsb.w	sl, [r3]
 800b1ea:	4689      	mov	r9, r1
 800b1ec:	f1ba 3fff 	cmp.w	sl, #4294967295
 800b1f0:	d030      	beq.n	800b254 <fmod+0x84>
 800b1f2:	4632      	mov	r2, r6
 800b1f4:	463b      	mov	r3, r7
 800b1f6:	4630      	mov	r0, r6
 800b1f8:	4639      	mov	r1, r7
 800b1fa:	f7f5 fc07 	bl	8000a0c <__aeabi_dcmpun>
 800b1fe:	bb48      	cbnz	r0, 800b254 <fmod+0x84>
 800b200:	4622      	mov	r2, r4
 800b202:	462b      	mov	r3, r5
 800b204:	4620      	mov	r0, r4
 800b206:	4629      	mov	r1, r5
 800b208:	f7f5 fc00 	bl	8000a0c <__aeabi_dcmpun>
 800b20c:	4683      	mov	fp, r0
 800b20e:	bb08      	cbnz	r0, 800b254 <fmod+0x84>
 800b210:	2200      	movs	r2, #0
 800b212:	2300      	movs	r3, #0
 800b214:	4630      	mov	r0, r6
 800b216:	4639      	mov	r1, r7
 800b218:	f7f5 fbc6 	bl	80009a8 <__aeabi_dcmpeq>
 800b21c:	b1d0      	cbz	r0, 800b254 <fmod+0x84>
 800b21e:	2301      	movs	r3, #1
 800b220:	9300      	str	r3, [sp, #0]
 800b222:	4b18      	ldr	r3, [pc, #96]	; (800b284 <fmod+0xb4>)
 800b224:	e9cd 4502 	strd	r4, r5, [sp, #8]
 800b228:	9301      	str	r3, [sp, #4]
 800b22a:	e9cd 6704 	strd	r6, r7, [sp, #16]
 800b22e:	f8cd b020 	str.w	fp, [sp, #32]
 800b232:	f1ba 0f00 	cmp.w	sl, #0
 800b236:	d112      	bne.n	800b25e <fmod+0x8e>
 800b238:	e9cd 4506 	strd	r4, r5, [sp, #24]
 800b23c:	4668      	mov	r0, sp
 800b23e:	f000 fa2d 	bl	800b69c <matherr>
 800b242:	b1b8      	cbz	r0, 800b274 <fmod+0xa4>
 800b244:	9b08      	ldr	r3, [sp, #32]
 800b246:	b11b      	cbz	r3, 800b250 <fmod+0x80>
 800b248:	f7fd fb88 	bl	800895c <__errno>
 800b24c:	9b08      	ldr	r3, [sp, #32]
 800b24e:	6003      	str	r3, [r0, #0]
 800b250:	e9dd 8906 	ldrd	r8, r9, [sp, #24]
 800b254:	4640      	mov	r0, r8
 800b256:	4649      	mov	r1, r9
 800b258:	b00b      	add	sp, #44	; 0x2c
 800b25a:	e8bd 8ff0 	ldmia.w	sp!, {r4, r5, r6, r7, r8, r9, sl, fp, pc}
 800b25e:	2200      	movs	r2, #0
 800b260:	2300      	movs	r3, #0
 800b262:	4610      	mov	r0, r2
 800b264:	4619      	mov	r1, r3
 800b266:	f7f5 fa61 	bl	800072c <__aeabi_ddiv>
 800b26a:	f1ba 0f02 	cmp.w	sl, #2
 800b26e:	e9cd 0106 	strd	r0, r1, [sp, #24]
 800b272:	d1e3      	bne.n	800b23c <fmod+0x6c>
 800b274:	f7fd fb72 	bl	800895c <__errno>
 800b278:	2321      	movs	r3, #33	; 0x21
 800b27a:	6003      	str	r3, [r0, #0]
 800b27c:	e7e2      	b.n	800b244 <fmod+0x74>
 800b27e:	bf00      	nop
 800b280:	20000384 	.word	0x20000384
 800b284:	0800c6fc 	.word	0x0800c6fc

0800b288 <sqrt>:
 800b288:	e92d 4ff0 	stmdb	sp!, {r4, r5, r6, r7, r8, r9, sl, fp, lr}
 800b28c:	b08b      	sub	sp, #44	; 0x2c
 800b28e:	4604      	mov	r4, r0
 800b290:	460d      	mov	r5, r1
 800b292:	f000 f957 	bl	800b544 <__ieee754_sqrt>
 800b296:	4b24      	ldr	r3, [pc, #144]	; (800b328 <sqrt+0xa0>)
 800b298:	4680      	mov	r8, r0
 800b29a:	f993 a000 	ldrsb.w	sl, [r3]
 800b29e:	4689      	mov	r9, r1
 800b2a0:	f1ba 3fff 	cmp.w	sl, #4294967295
 800b2a4:	d02b      	beq.n	800b2fe <sqrt+0x76>
 800b2a6:	4622      	mov	r2, r4
 800b2a8:	462b      	mov	r3, r5
 800b2aa:	4620      	mov	r0, r4
 800b2ac:	4629      	mov	r1, r5
 800b2ae:	f7f5 fbad 	bl	8000a0c <__aeabi_dcmpun>
 800b2b2:	4683      	mov	fp, r0
 800b2b4:	bb18      	cbnz	r0, 800b2fe <sqrt+0x76>
 800b2b6:	2600      	movs	r6, #0
 800b2b8:	2700      	movs	r7, #0
 800b2ba:	4632      	mov	r2, r6
 800b2bc:	463b      	mov	r3, r7
 800b2be:	4620      	mov	r0, r4
 800b2c0:	4629      	mov	r1, r5
 800b2c2:	f7f5 fb7b 	bl	80009bc <__aeabi_dcmplt>
 800b2c6:	b1d0      	cbz	r0, 800b2fe <sqrt+0x76>
 800b2c8:	2301      	movs	r3, #1
 800b2ca:	9300      	str	r3, [sp, #0]
 800b2cc:	4b17      	ldr	r3, [pc, #92]	; (800b32c <sqrt+0xa4>)
 800b2ce:	f8cd b020 	str.w	fp, [sp, #32]
 800b2d2:	9301      	str	r3, [sp, #4]
 800b2d4:	e9cd 4504 	strd	r4, r5, [sp, #16]
 800b2d8:	e9cd 4502 	strd	r4, r5, [sp, #8]
 800b2dc:	f1ba 0f00 	cmp.w	sl, #0
 800b2e0:	d112      	bne.n	800b308 <sqrt+0x80>
 800b2e2:	e9cd 6706 	strd	r6, r7, [sp, #24]
 800b2e6:	4668      	mov	r0, sp
 800b2e8:	f000 f9d8 	bl	800b69c <matherr>
 800b2ec:	b1b8      	cbz	r0, 800b31e <sqrt+0x96>
 800b2ee:	9b08      	ldr	r3, [sp, #32]
 800b2f0:	b11b      	cbz	r3, 800b2fa <sqrt+0x72>
 800b2f2:	f7fd fb33 	bl	800895c <__errno>
 800b2f6:	9b08      	ldr	r3, [sp, #32]
 800b2f8:	6003      	str	r3, [r0, #0]
 800b2fa:	e9dd 8906 	ldrd	r8, r9, [sp, #24]
 800b2fe:	4640      	mov	r0, r8
 800b300:	4649      	mov	r1, r9
 800b302:	b00b      	add	sp, #44	; 0x2c
 800b304:	e8bd 8ff0 	ldmia.w	sp!, {r4, r5, r6, r7, r8, r9, sl, fp, pc}
 800b308:	4632      	mov	r2, r6
 800b30a:	463b      	mov	r3, r7
 800b30c:	4630      	mov	r0, r6
 800b30e:	4639      	mov	r1, r7
 800b310:	f7f5 fa0c 	bl	800072c <__aeabi_ddiv>
 800b314:	f1ba 0f02 	cmp.w	sl, #2
 800b318:	e9cd 0106 	strd	r0, r1, [sp, #24]
 800b31c:	d1e3      	bne.n	800b2e6 <sqrt+0x5e>
 800b31e:	f7fd fb1d 	bl	800895c <__errno>
 800b322:	2321      	movs	r3, #33	; 0x21
 800b324:	6003      	str	r3, [r0, #0]
 800b326:	e7e2      	b.n	800b2ee <sqrt+0x66>
 800b328:	20000384 	.word	0x20000384
 800b32c:	0800c701 	.word	0x0800c701

0800b330 <__ieee754_fmod>:
 800b330:	e92d 47f0 	stmdb	sp!, {r4, r5, r6, r7, r8, r9, sl, lr}
 800b334:	f023 4400 	bic.w	r4, r3, #2147483648	; 0x80000000
 800b338:	4682      	mov	sl, r0
 800b33a:	ea54 0002 	orrs.w	r0, r4, r2
 800b33e:	461e      	mov	r6, r3
 800b340:	4694      	mov	ip, r2
 800b342:	4696      	mov	lr, r2
 800b344:	d00c      	beq.n	800b360 <__ieee754_fmod+0x30>
 800b346:	4d78      	ldr	r5, [pc, #480]	; (800b528 <__ieee754_fmod+0x1f8>)
 800b348:	f021 4800 	bic.w	r8, r1, #2147483648	; 0x80000000
 800b34c:	45a8      	cmp	r8, r5
 800b34e:	4689      	mov	r9, r1
 800b350:	dc06      	bgt.n	800b360 <__ieee754_fmod+0x30>
 800b352:	4255      	negs	r5, r2
 800b354:	4315      	orrs	r5, r2
 800b356:	4f75      	ldr	r7, [pc, #468]	; (800b52c <__ieee754_fmod+0x1fc>)
 800b358:	ea44 75d5 	orr.w	r5, r4, r5, lsr #31
 800b35c:	42bd      	cmp	r5, r7
 800b35e:	d908      	bls.n	800b372 <__ieee754_fmod+0x42>
 800b360:	4650      	mov	r0, sl
 800b362:	f7f5 f8b9 	bl	80004d8 <__aeabi_dmul>
 800b366:	4602      	mov	r2, r0
 800b368:	460b      	mov	r3, r1
 800b36a:	f7f5 f9df 	bl	800072c <__aeabi_ddiv>
 800b36e:	4682      	mov	sl, r0
 800b370:	e00f      	b.n	800b392 <__ieee754_fmod+0x62>
 800b372:	45a0      	cmp	r8, r4
 800b374:	4652      	mov	r2, sl
 800b376:	4657      	mov	r7, sl
 800b378:	f001 4500 	and.w	r5, r1, #2147483648	; 0x80000000
 800b37c:	dc0c      	bgt.n	800b398 <__ieee754_fmod+0x68>
 800b37e:	db08      	blt.n	800b392 <__ieee754_fmod+0x62>
 800b380:	45e2      	cmp	sl, ip
 800b382:	d306      	bcc.n	800b392 <__ieee754_fmod+0x62>
 800b384:	d108      	bne.n	800b398 <__ieee754_fmod+0x68>
 800b386:	496a      	ldr	r1, [pc, #424]	; (800b530 <__ieee754_fmod+0x200>)
 800b388:	0fed      	lsrs	r5, r5, #31
 800b38a:	eb01 05c5 	add.w	r5, r1, r5, lsl #3
 800b38e:	e9d5 a100 	ldrd	sl, r1, [r5]
 800b392:	4650      	mov	r0, sl
 800b394:	e8bd 87f0 	ldmia.w	sp!, {r4, r5, r6, r7, r8, r9, sl, pc}
 800b398:	4b66      	ldr	r3, [pc, #408]	; (800b534 <__ieee754_fmod+0x204>)
 800b39a:	4598      	cmp	r8, r3
 800b39c:	dc48      	bgt.n	800b430 <__ieee754_fmod+0x100>
 800b39e:	f1b8 0f00 	cmp.w	r8, #0
 800b3a2:	d13c      	bne.n	800b41e <__ieee754_fmod+0xee>
 800b3a4:	4611      	mov	r1, r2
 800b3a6:	4864      	ldr	r0, [pc, #400]	; (800b538 <__ieee754_fmod+0x208>)
 800b3a8:	2900      	cmp	r1, #0
 800b3aa:	dc35      	bgt.n	800b418 <__ieee754_fmod+0xe8>
 800b3ac:	429c      	cmp	r4, r3
 800b3ae:	dc4f      	bgt.n	800b450 <__ieee754_fmod+0x120>
 800b3b0:	2c00      	cmp	r4, #0
 800b3b2:	d145      	bne.n	800b440 <__ieee754_fmod+0x110>
 800b3b4:	4661      	mov	r1, ip
 800b3b6:	4b60      	ldr	r3, [pc, #384]	; (800b538 <__ieee754_fmod+0x208>)
 800b3b8:	2900      	cmp	r1, #0
 800b3ba:	dc3e      	bgt.n	800b43a <__ieee754_fmod+0x10a>
 800b3bc:	495f      	ldr	r1, [pc, #380]	; (800b53c <__ieee754_fmod+0x20c>)
 800b3be:	4288      	cmp	r0, r1
 800b3c0:	db4a      	blt.n	800b458 <__ieee754_fmod+0x128>
 800b3c2:	f3c9 0113 	ubfx	r1, r9, #0, #20
 800b3c6:	f441 1180 	orr.w	r1, r1, #1048576	; 0x100000
 800b3ca:	4a5c      	ldr	r2, [pc, #368]	; (800b53c <__ieee754_fmod+0x20c>)
 800b3cc:	4293      	cmp	r3, r2
 800b3ce:	db57      	blt.n	800b480 <__ieee754_fmod+0x150>
 800b3d0:	f3c6 0613 	ubfx	r6, r6, #0, #20
 800b3d4:	f446 1680 	orr.w	r6, r6, #1048576	; 0x100000
 800b3d8:	1ac0      	subs	r0, r0, r3
 800b3da:	1b8a      	subs	r2, r1, r6
 800b3dc:	eba7 040e 	sub.w	r4, r7, lr
 800b3e0:	2800      	cmp	r0, #0
 800b3e2:	d163      	bne.n	800b4ac <__ieee754_fmod+0x17c>
 800b3e4:	4577      	cmp	r7, lr
 800b3e6:	bf38      	it	cc
 800b3e8:	f102 32ff 	addcc.w	r2, r2, #4294967295
 800b3ec:	2a00      	cmp	r2, #0
 800b3ee:	bfbc      	itt	lt
 800b3f0:	463c      	movlt	r4, r7
 800b3f2:	460a      	movlt	r2, r1
 800b3f4:	ea52 0104 	orrs.w	r1, r2, r4
 800b3f8:	d0c5      	beq.n	800b386 <__ieee754_fmod+0x56>
 800b3fa:	494e      	ldr	r1, [pc, #312]	; (800b534 <__ieee754_fmod+0x204>)
 800b3fc:	428a      	cmp	r2, r1
 800b3fe:	dd6a      	ble.n	800b4d6 <__ieee754_fmod+0x1a6>
 800b400:	494e      	ldr	r1, [pc, #312]	; (800b53c <__ieee754_fmod+0x20c>)
 800b402:	428b      	cmp	r3, r1
 800b404:	db6d      	blt.n	800b4e2 <__ieee754_fmod+0x1b2>
 800b406:	f5a2 1280 	sub.w	r2, r2, #1048576	; 0x100000
 800b40a:	f203 33ff 	addw	r3, r3, #1023	; 0x3ff
 800b40e:	4315      	orrs	r5, r2
 800b410:	ea45 5103 	orr.w	r1, r5, r3, lsl #20
 800b414:	4620      	mov	r0, r4
 800b416:	e7aa      	b.n	800b36e <__ieee754_fmod+0x3e>
 800b418:	3801      	subs	r0, #1
 800b41a:	0049      	lsls	r1, r1, #1
 800b41c:	e7c4      	b.n	800b3a8 <__ieee754_fmod+0x78>
 800b41e:	4847      	ldr	r0, [pc, #284]	; (800b53c <__ieee754_fmod+0x20c>)
 800b420:	ea4f 21c8 	mov.w	r1, r8, lsl #11
 800b424:	0049      	lsls	r1, r1, #1
 800b426:	2900      	cmp	r1, #0
 800b428:	f100 30ff 	add.w	r0, r0, #4294967295
 800b42c:	dcfa      	bgt.n	800b424 <__ieee754_fmod+0xf4>
 800b42e:	e7bd      	b.n	800b3ac <__ieee754_fmod+0x7c>
 800b430:	ea4f 5028 	mov.w	r0, r8, asr #20
 800b434:	f2a0 30ff 	subw	r0, r0, #1023	; 0x3ff
 800b438:	e7b8      	b.n	800b3ac <__ieee754_fmod+0x7c>
 800b43a:	3b01      	subs	r3, #1
 800b43c:	0049      	lsls	r1, r1, #1
 800b43e:	e7bb      	b.n	800b3b8 <__ieee754_fmod+0x88>
 800b440:	4b3e      	ldr	r3, [pc, #248]	; (800b53c <__ieee754_fmod+0x20c>)
 800b442:	02e1      	lsls	r1, r4, #11
 800b444:	0049      	lsls	r1, r1, #1
 800b446:	2900      	cmp	r1, #0
 800b448:	f103 33ff 	add.w	r3, r3, #4294967295
 800b44c:	dcfa      	bgt.n	800b444 <__ieee754_fmod+0x114>
 800b44e:	e7b5      	b.n	800b3bc <__ieee754_fmod+0x8c>
 800b450:	1523      	asrs	r3, r4, #20
 800b452:	f2a3 33ff 	subw	r3, r3, #1023	; 0x3ff
 800b456:	e7b1      	b.n	800b3bc <__ieee754_fmod+0x8c>
 800b458:	1a0f      	subs	r7, r1, r0
 800b45a:	2f1f      	cmp	r7, #31
 800b45c:	dc0a      	bgt.n	800b474 <__ieee754_fmod+0x144>
 800b45e:	f200 411e 	addw	r1, r0, #1054	; 0x41e
 800b462:	fa08 f807 	lsl.w	r8, r8, r7
 800b466:	fa22 f101 	lsr.w	r1, r2, r1
 800b46a:	ea41 0108 	orr.w	r1, r1, r8
 800b46e:	fa02 f707 	lsl.w	r7, r2, r7
 800b472:	e7aa      	b.n	800b3ca <__ieee754_fmod+0x9a>
 800b474:	4932      	ldr	r1, [pc, #200]	; (800b540 <__ieee754_fmod+0x210>)
 800b476:	2700      	movs	r7, #0
 800b478:	1a09      	subs	r1, r1, r0
 800b47a:	fa02 f101 	lsl.w	r1, r2, r1
 800b47e:	e7a4      	b.n	800b3ca <__ieee754_fmod+0x9a>
 800b480:	eba2 0e03 	sub.w	lr, r2, r3
 800b484:	f1be 0f1f 	cmp.w	lr, #31
 800b488:	dc09      	bgt.n	800b49e <__ieee754_fmod+0x16e>
 800b48a:	f203 461e 	addw	r6, r3, #1054	; 0x41e
 800b48e:	fa04 f40e 	lsl.w	r4, r4, lr
 800b492:	fa2c f606 	lsr.w	r6, ip, r6
 800b496:	4326      	orrs	r6, r4
 800b498:	fa0c fe0e 	lsl.w	lr, ip, lr
 800b49c:	e79c      	b.n	800b3d8 <__ieee754_fmod+0xa8>
 800b49e:	4e28      	ldr	r6, [pc, #160]	; (800b540 <__ieee754_fmod+0x210>)
 800b4a0:	f04f 0e00 	mov.w	lr, #0
 800b4a4:	1af6      	subs	r6, r6, r3
 800b4a6:	fa0c f606 	lsl.w	r6, ip, r6
 800b4aa:	e795      	b.n	800b3d8 <__ieee754_fmod+0xa8>
 800b4ac:	4577      	cmp	r7, lr
 800b4ae:	bf38      	it	cc
 800b4b0:	f102 32ff 	addcc.w	r2, r2, #4294967295
 800b4b4:	2a00      	cmp	r2, #0
 800b4b6:	da05      	bge.n	800b4c4 <__ieee754_fmod+0x194>
 800b4b8:	0ffa      	lsrs	r2, r7, #31
 800b4ba:	eb02 0141 	add.w	r1, r2, r1, lsl #1
 800b4be:	007f      	lsls	r7, r7, #1
 800b4c0:	3801      	subs	r0, #1
 800b4c2:	e78a      	b.n	800b3da <__ieee754_fmod+0xaa>
 800b4c4:	ea52 0104 	orrs.w	r1, r2, r4
 800b4c8:	f43f af5d 	beq.w	800b386 <__ieee754_fmod+0x56>
 800b4cc:	0fe1      	lsrs	r1, r4, #31
 800b4ce:	eb01 0142 	add.w	r1, r1, r2, lsl #1
 800b4d2:	0067      	lsls	r7, r4, #1
 800b4d4:	e7f4      	b.n	800b4c0 <__ieee754_fmod+0x190>
 800b4d6:	0fe0      	lsrs	r0, r4, #31
 800b4d8:	eb00 0242 	add.w	r2, r0, r2, lsl #1
 800b4dc:	0064      	lsls	r4, r4, #1
 800b4de:	3b01      	subs	r3, #1
 800b4e0:	e78c      	b.n	800b3fc <__ieee754_fmod+0xcc>
 800b4e2:	1ac9      	subs	r1, r1, r3
 800b4e4:	2914      	cmp	r1, #20
 800b4e6:	dc0a      	bgt.n	800b4fe <__ieee754_fmod+0x1ce>
 800b4e8:	f203 431e 	addw	r3, r3, #1054	; 0x41e
 800b4ec:	fa02 f303 	lsl.w	r3, r2, r3
 800b4f0:	40cc      	lsrs	r4, r1
 800b4f2:	4323      	orrs	r3, r4
 800b4f4:	410a      	asrs	r2, r1
 800b4f6:	ea42 0105 	orr.w	r1, r2, r5
 800b4fa:	4618      	mov	r0, r3
 800b4fc:	e737      	b.n	800b36e <__ieee754_fmod+0x3e>
 800b4fe:	291f      	cmp	r1, #31
 800b500:	dc07      	bgt.n	800b512 <__ieee754_fmod+0x1e2>
 800b502:	f203 431e 	addw	r3, r3, #1054	; 0x41e
 800b506:	40cc      	lsrs	r4, r1
 800b508:	fa02 f303 	lsl.w	r3, r2, r3
 800b50c:	4323      	orrs	r3, r4
 800b50e:	462a      	mov	r2, r5
 800b510:	e7f1      	b.n	800b4f6 <__ieee754_fmod+0x1c6>
 800b512:	f1c3 437f 	rsb	r3, r3, #4278190080	; 0xff000000
 800b516:	f503 037f 	add.w	r3, r3, #16711680	; 0xff0000
 800b51a:	f503 437b 	add.w	r3, r3, #64256	; 0xfb00
 800b51e:	33e2      	adds	r3, #226	; 0xe2
 800b520:	fa42 f303 	asr.w	r3, r2, r3
 800b524:	e7f3      	b.n	800b50e <__ieee754_fmod+0x1de>
 800b526:	bf00      	nop
 800b528:	7fefffff 	.word	0x7fefffff
 800b52c:	7ff00000 	.word	0x7ff00000
 800b530:	0800c708 	.word	0x0800c708
 800b534:	000fffff 	.word	0x000fffff
 800b538:	fffffbed 	.word	0xfffffbed
 800b53c:	fffffc02 	.word	0xfffffc02
 800b540:	fffffbe2 	.word	0xfffffbe2

0800b544 <__ieee754_sqrt>:
 800b544:	4b54      	ldr	r3, [pc, #336]	; (800b698 <__ieee754_sqrt+0x154>)
 800b546:	e92d 41f0 	stmdb	sp!, {r4, r5, r6, r7, r8, lr}
 800b54a:	438b      	bics	r3, r1
 800b54c:	4606      	mov	r6, r0
 800b54e:	460d      	mov	r5, r1
 800b550:	460a      	mov	r2, r1
 800b552:	460c      	mov	r4, r1
 800b554:	d10f      	bne.n	800b576 <__ieee754_sqrt+0x32>
 800b556:	4602      	mov	r2, r0
 800b558:	460b      	mov	r3, r1
 800b55a:	f7f4 ffbd 	bl	80004d8 <__aeabi_dmul>
 800b55e:	4602      	mov	r2, r0
 800b560:	460b      	mov	r3, r1
 800b562:	4630      	mov	r0, r6
 800b564:	4629      	mov	r1, r5
 800b566:	f7f4 fe01 	bl	800016c <__adddf3>
 800b56a:	4606      	mov	r6, r0
 800b56c:	460d      	mov	r5, r1
 800b56e:	4630      	mov	r0, r6
 800b570:	4629      	mov	r1, r5
 800b572:	e8bd 81f0 	ldmia.w	sp!, {r4, r5, r6, r7, r8, pc}
 800b576:	2900      	cmp	r1, #0
 800b578:	4607      	mov	r7, r0
 800b57a:	4603      	mov	r3, r0
 800b57c:	dc0e      	bgt.n	800b59c <__ieee754_sqrt+0x58>
 800b57e:	f021 4c00 	bic.w	ip, r1, #2147483648	; 0x80000000
 800b582:	ea5c 0707 	orrs.w	r7, ip, r7
 800b586:	d0f2      	beq.n	800b56e <__ieee754_sqrt+0x2a>
 800b588:	b141      	cbz	r1, 800b59c <__ieee754_sqrt+0x58>
 800b58a:	4602      	mov	r2, r0
 800b58c:	460b      	mov	r3, r1
 800b58e:	f7f4 fdeb 	bl	8000168 <__aeabi_dsub>
 800b592:	4602      	mov	r2, r0
 800b594:	460b      	mov	r3, r1
 800b596:	f7f5 f8c9 	bl	800072c <__aeabi_ddiv>
 800b59a:	e7e6      	b.n	800b56a <__ieee754_sqrt+0x26>
 800b59c:	1512      	asrs	r2, r2, #20
 800b59e:	d074      	beq.n	800b68a <__ieee754_sqrt+0x146>
 800b5a0:	f2a2 32ff 	subw	r2, r2, #1023	; 0x3ff
 800b5a4:	07d5      	lsls	r5, r2, #31
 800b5a6:	f04f 0500 	mov.w	r5, #0
 800b5aa:	f3c4 0413 	ubfx	r4, r4, #0, #20
 800b5ae:	bf48      	it	mi
 800b5b0:	0fd9      	lsrmi	r1, r3, #31
 800b5b2:	f444 1480 	orr.w	r4, r4, #1048576	; 0x100000
 800b5b6:	bf44      	itt	mi
 800b5b8:	005b      	lslmi	r3, r3, #1
 800b5ba:	eb01 0444 	addmi.w	r4, r1, r4, lsl #1
 800b5be:	1051      	asrs	r1, r2, #1
 800b5c0:	0fda      	lsrs	r2, r3, #31
 800b5c2:	eb02 0444 	add.w	r4, r2, r4, lsl #1
 800b5c6:	4628      	mov	r0, r5
 800b5c8:	2216      	movs	r2, #22
 800b5ca:	f44f 1600 	mov.w	r6, #2097152	; 0x200000
 800b5ce:	005b      	lsls	r3, r3, #1
 800b5d0:	1987      	adds	r7, r0, r6
 800b5d2:	42a7      	cmp	r7, r4
 800b5d4:	bfde      	ittt	le
 800b5d6:	19b8      	addle	r0, r7, r6
 800b5d8:	1be4      	suble	r4, r4, r7
 800b5da:	19ad      	addle	r5, r5, r6
 800b5dc:	0fdf      	lsrs	r7, r3, #31
 800b5de:	3a01      	subs	r2, #1
 800b5e0:	eb07 0444 	add.w	r4, r7, r4, lsl #1
 800b5e4:	ea4f 0343 	mov.w	r3, r3, lsl #1
 800b5e8:	ea4f 0656 	mov.w	r6, r6, lsr #1
 800b5ec:	d1f0      	bne.n	800b5d0 <__ieee754_sqrt+0x8c>
 800b5ee:	f04f 0c20 	mov.w	ip, #32
 800b5f2:	4696      	mov	lr, r2
 800b5f4:	f04f 4600 	mov.w	r6, #2147483648	; 0x80000000
 800b5f8:	4284      	cmp	r4, r0
 800b5fa:	eb06 070e 	add.w	r7, r6, lr
 800b5fe:	dc02      	bgt.n	800b606 <__ieee754_sqrt+0xc2>
 800b600:	d112      	bne.n	800b628 <__ieee754_sqrt+0xe4>
 800b602:	429f      	cmp	r7, r3
 800b604:	d810      	bhi.n	800b628 <__ieee754_sqrt+0xe4>
 800b606:	2f00      	cmp	r7, #0
 800b608:	eb07 0e06 	add.w	lr, r7, r6
 800b60c:	da42      	bge.n	800b694 <__ieee754_sqrt+0x150>
 800b60e:	f1be 0f00 	cmp.w	lr, #0
 800b612:	db3f      	blt.n	800b694 <__ieee754_sqrt+0x150>
 800b614:	f100 0801 	add.w	r8, r0, #1
 800b618:	1a24      	subs	r4, r4, r0
 800b61a:	4640      	mov	r0, r8
 800b61c:	429f      	cmp	r7, r3
 800b61e:	bf88      	it	hi
 800b620:	f104 34ff 	addhi.w	r4, r4, #4294967295
 800b624:	1bdb      	subs	r3, r3, r7
 800b626:	4432      	add	r2, r6
 800b628:	0064      	lsls	r4, r4, #1
 800b62a:	f1bc 0c01 	subs.w	ip, ip, #1
 800b62e:	eb04 74d3 	add.w	r4, r4, r3, lsr #31
 800b632:	ea4f 0656 	mov.w	r6, r6, lsr #1
 800b636:	ea4f 0343 	mov.w	r3, r3, lsl #1
 800b63a:	d1dd      	bne.n	800b5f8 <__ieee754_sqrt+0xb4>
 800b63c:	4323      	orrs	r3, r4
 800b63e:	d006      	beq.n	800b64e <__ieee754_sqrt+0x10a>
 800b640:	1c54      	adds	r4, r2, #1
 800b642:	bf0b      	itete	eq
 800b644:	4662      	moveq	r2, ip
 800b646:	3201      	addne	r2, #1
 800b648:	3501      	addeq	r5, #1
 800b64a:	f022 0201 	bicne.w	r2, r2, #1
 800b64e:	106b      	asrs	r3, r5, #1
 800b650:	0852      	lsrs	r2, r2, #1
 800b652:	07e8      	lsls	r0, r5, #31
 800b654:	f103 537f 	add.w	r3, r3, #1069547520	; 0x3fc00000
 800b658:	f503 1300 	add.w	r3, r3, #2097152	; 0x200000
 800b65c:	bf48      	it	mi
 800b65e:	f042 4200 	orrmi.w	r2, r2, #2147483648	; 0x80000000
 800b662:	eb03 5501 	add.w	r5, r3, r1, lsl #20
 800b666:	4616      	mov	r6, r2
 800b668:	e781      	b.n	800b56e <__ieee754_sqrt+0x2a>
 800b66a:	0adc      	lsrs	r4, r3, #11
 800b66c:	3915      	subs	r1, #21
 800b66e:	055b      	lsls	r3, r3, #21
 800b670:	2c00      	cmp	r4, #0
 800b672:	d0fa      	beq.n	800b66a <__ieee754_sqrt+0x126>
 800b674:	02e6      	lsls	r6, r4, #11
 800b676:	d50a      	bpl.n	800b68e <__ieee754_sqrt+0x14a>
 800b678:	f1c2 0020 	rsb	r0, r2, #32
 800b67c:	fa23 f000 	lsr.w	r0, r3, r0
 800b680:	1e55      	subs	r5, r2, #1
 800b682:	4093      	lsls	r3, r2
 800b684:	4304      	orrs	r4, r0
 800b686:	1b4a      	subs	r2, r1, r5
 800b688:	e78a      	b.n	800b5a0 <__ieee754_sqrt+0x5c>
 800b68a:	4611      	mov	r1, r2
 800b68c:	e7f0      	b.n	800b670 <__ieee754_sqrt+0x12c>
 800b68e:	0064      	lsls	r4, r4, #1
 800b690:	3201      	adds	r2, #1
 800b692:	e7ef      	b.n	800b674 <__ieee754_sqrt+0x130>
 800b694:	4680      	mov	r8, r0
 800b696:	e7bf      	b.n	800b618 <__ieee754_sqrt+0xd4>
 800b698:	7ff00000 	.word	0x7ff00000

0800b69c <matherr>:
 800b69c:	2000      	movs	r0, #0
 800b69e:	4770      	bx	lr

0800b6a0 <_init>:
 800b6a0:	b5f8      	push	{r3, r4, r5, r6, r7, lr}
 800b6a2:	bf00      	nop
 800b6a4:	bcf8      	pop	{r3, r4, r5, r6, r7}
 800b6a6:	bc08      	pop	{r3}
 800b6a8:	469e      	mov	lr, r3
 800b6aa:	4770      	bx	lr

0800b6ac <_fini>:
 800b6ac:	b5f8      	push	{r3, r4, r5, r6, r7, lr}
 800b6ae:	bf00      	nop
 800b6b0:	bcf8      	pop	{r3, r4, r5, r6, r7}
 800b6b2:	bc08      	pop	{r3}
 800b6b4:	469e      	mov	lr, r3
 800b6b6:	4770      	bx	lr
